
/home/preston/Documents/pico-sdk/test/kitchen_sink/kitchen_sink_copy_to_ram.elf:     file format elf32-littlearm

Sections:
Idx Name          Size      VMA       LMA       File off  Algn
  0 .boot2        00000100  10000000  10000000  00001000  2**0
                  CONTENTS, ALLOC, LOAD, READONLY, CODE
  1 .flashtext    000001e0  10000100  10000100  00001100  2**3
                  CONTENTS, ALLOC, LOAD, READONLY, CODE
  2 .rodata       00000000  100002e0  100002e0  00008510  2**0
                  CONTENTS, ALLOC, LOAD, DATA
  3 .binary_info  0000002c  100002e0  100002e0  000012e0  2**2
                  CONTENTS, ALLOC, LOAD, DATA
  4 .ram_vector_table 000000c0  20000000  20000000  00008510  2**2
                  CONTENTS
  5 .text         00005518  200000c0  1000030c  000020c0  2**3
                  CONTENTS, ALLOC, LOAD, READONLY, CODE
  6 .data         00000f24  200055e0  10005824  000075e0  2**4
                  CONTENTS, ALLOC, LOAD, CODE
  7 .uninitialized_ram.magic_location 0000000c  20006504  10006748  00008504  2**2
                  CONTENTS, ALLOC, LOAD, DATA
  8 .uninitialized_data 00000000  20006510  20006510  000085d0  2**0
                  CONTENTS
  9 .scratch_x    00000000  20040000  20040000  000085d0  2**0
                  CONTENTS
 10 .scratch_y    00000000  20041000  20041000  000085d0  2**0
                  CONTENTS
 11 .bss          00000518  20006510  20006510  00008510  2**3
                  ALLOC
 12 .heap         00000800  20006a28  20006a28  000085d0  2**2
                  CONTENTS, READONLY
 13 .stack_dummy  00000800  20041000  20041000  00008de0  2**5
                  CONTENTS, READONLY
 14 .ARM.attributes 00000028  00000000  00000000  000095e0  2**0
                  CONTENTS, READONLY
 15 .comment      00000031  00000000  00000000  00009608  2**0
                  CONTENTS, READONLY
 16 .debug_line   00002998  00000000  00000000  00009639  2**0
                  CONTENTS, READONLY, DEBUGGING
 17 .debug_info   00011005  00000000  00000000  0000bfd1  2**0
                  CONTENTS, READONLY, DEBUGGING
 18 .debug_abbrev 000036db  00000000  00000000  0001cfd6  2**0
                  CONTENTS, READONLY, DEBUGGING
 19 .debug_aranges 00000338  00000000  00000000  000206b8  2**3
                  CONTENTS, READONLY, DEBUGGING
 20 .debug_str    0000121e  00000000  00000000  000209f0  2**0
                  CONTENTS, READONLY, DEBUGGING
 21 .debug_loc    00002787  00000000  00000000  00021c0e  2**0
                  CONTENTS, READONLY, DEBUGGING
 22 .debug_ranges 000001c0  00000000  00000000  00024395  2**0
                  CONTENTS, READONLY, DEBUGGING
 23 .debug_frame  00000688  00000000  00000000  00024558  2**2
                  CONTENTS, READONLY, DEBUGGING
 24 .stab         0000006c  00000000  00000000  00024be0  2**2
                  CONTENTS, READONLY, DEBUGGING
 25 .stabstr      000000e3  00000000  00000000  00024c4c  2**0
                  CONTENTS, READONLY, DEBUGGING

/home/preston/Documents/pico-sdk/test/kitchen_sink/kitchen_sink_copy_to_ram.elf:     file format elf32-littlearm


Disassembly of section .boot2:

10000000 <__flash_binary_start>:
10000000:	4b32b500 	.word	0x4b32b500
10000004:	60582021 	.word	0x60582021
10000008:	21026898 	.word	0x21026898
1000000c:	60984388 	.word	0x60984388
10000010:	611860d8 	.word	0x611860d8
10000014:	4b2e6158 	.word	0x4b2e6158
10000018:	60992100 	.word	0x60992100
1000001c:	61592102 	.word	0x61592102
10000020:	22f02101 	.word	0x22f02101
10000024:	492b5099 	.word	0x492b5099
10000028:	21016019 	.word	0x21016019
1000002c:	20356099 	.word	0x20356099
10000030:	f844f000 	.word	0xf844f000
10000034:	42902202 	.word	0x42902202
10000038:	2106d014 	.word	0x2106d014
1000003c:	f0006619 	.word	0xf0006619
10000040:	6e19f834 	.word	0x6e19f834
10000044:	66192101 	.word	0x66192101
10000048:	66182000 	.word	0x66182000
1000004c:	f000661a 	.word	0xf000661a
10000050:	6e19f82c 	.word	0x6e19f82c
10000054:	6e196e19 	.word	0x6e196e19
10000058:	f0002005 	.word	0xf0002005
1000005c:	2101f82f 	.word	0x2101f82f
10000060:	d1f94208 	.word	0xd1f94208
10000064:	60992100 	.word	0x60992100
10000068:	6019491b 	.word	0x6019491b
1000006c:	60592100 	.word	0x60592100
10000070:	481b491a 	.word	0x481b491a
10000074:	21016001 	.word	0x21016001
10000078:	21eb6099 	.word	0x21eb6099
1000007c:	21a06619 	.word	0x21a06619
10000080:	f0006619 	.word	0xf0006619
10000084:	2100f812 	.word	0x2100f812
10000088:	49166099 	.word	0x49166099
1000008c:	60014814 	.word	0x60014814
10000090:	60992101 	.word	0x60992101
10000094:	2800bc01 	.word	0x2800bc01
10000098:	4700d000 	.word	0x4700d000
1000009c:	49134812 	.word	0x49134812
100000a0:	c8036008 	.word	0xc8036008
100000a4:	8808f380 	.word	0x8808f380
100000a8:	b5034708 	.word	0xb5034708
100000ac:	20046a99 	.word	0x20046a99
100000b0:	d0fb4201 	.word	0xd0fb4201
100000b4:	42012001 	.word	0x42012001
100000b8:	bd03d1f8 	.word	0xbd03d1f8
100000bc:	6618b502 	.word	0x6618b502
100000c0:	f7ff6618 	.word	0xf7ff6618
100000c4:	6e18fff2 	.word	0x6e18fff2
100000c8:	bd026e18 	.word	0xbd026e18
100000cc:	40020000 	.word	0x40020000
100000d0:	18000000 	.word	0x18000000
100000d4:	00070000 	.word	0x00070000
100000d8:	005f0300 	.word	0x005f0300
100000dc:	00002221 	.word	0x00002221
100000e0:	180000f4 	.word	0x180000f4
100000e4:	a0002022 	.word	0xa0002022
100000e8:	10000100 	.word	0x10000100
100000ec:	e000ed08 	.word	0xe000ed08
	...
100000fc:	7a4eb274 	.word	0x7a4eb274

Disassembly of section .flashtext:

10000100 <__VECTOR_TABLE>:
10000100:	20042000 	.word	0x20042000
10000104:	100001f7 	.word	0x100001f7
10000108:	100001c3 	.word	0x100001c3
1000010c:	100001c5 	.word	0x100001c5
10000110:	100001c1 	.word	0x100001c1
10000114:	100001c1 	.word	0x100001c1
10000118:	100001c1 	.word	0x100001c1
1000011c:	100001c1 	.word	0x100001c1
10000120:	100001c1 	.word	0x100001c1
10000124:	100001c1 	.word	0x100001c1
10000128:	100001c1 	.word	0x100001c1
1000012c:	100001c7 	.word	0x100001c7
10000130:	100001c1 	.word	0x100001c1
10000134:	100001c1 	.word	0x100001c1
10000138:	100001c9 	.word	0x100001c9
1000013c:	100001cb 	.word	0x100001cb
10000140:	100001cd 	.word	0x100001cd
10000144:	100001cd 	.word	0x100001cd
10000148:	100001cd 	.word	0x100001cd
1000014c:	100001cd 	.word	0x100001cd
10000150:	100001cd 	.word	0x100001cd
10000154:	100001cd 	.word	0x100001cd
10000158:	100001cd 	.word	0x100001cd
1000015c:	100001cd 	.word	0x100001cd
10000160:	100001cd 	.word	0x100001cd
10000164:	100001cd 	.word	0x100001cd
10000168:	100001cd 	.word	0x100001cd
1000016c:	100001cd 	.word	0x100001cd
10000170:	100001cd 	.word	0x100001cd
10000174:	100001cd 	.word	0x100001cd
10000178:	100001cd 	.word	0x100001cd
1000017c:	100001cd 	.word	0x100001cd
10000180:	100001cd 	.word	0x100001cd
10000184:	100001cd 	.word	0x100001cd
10000188:	100001cd 	.word	0x100001cd
1000018c:	100001cd 	.word	0x100001cd
10000190:	100001cd 	.word	0x100001cd
10000194:	100001cd 	.word	0x100001cd
10000198:	100001cd 	.word	0x100001cd
1000019c:	100001cd 	.word	0x100001cd
100001a0:	100001cd 	.word	0x100001cd
100001a4:	100001cd 	.word	0x100001cd
100001a8:	100001cd 	.word	0x100001cd
100001ac:	100001cd 	.word	0x100001cd
100001b0:	100001cd 	.word	0x100001cd
100001b4:	100001cd 	.word	0x100001cd
100001b8:	100001cd 	.word	0x100001cd
100001bc:	100001cd 	.word	0x100001cd

100001c0 <isr_invalid>:
100001c0:	be00      	bkpt	0x0000

100001c2 <isr_nmi>:
100001c2:	be00      	bkpt	0x0000

100001c4 <isr_hardfault>:
100001c4:	be00      	bkpt	0x0000

100001c6 <isr_svcall>:
100001c6:	be00      	bkpt	0x0000

100001c8 <isr_pendsv>:
100001c8:	be00      	bkpt	0x0000

100001ca <isr_systick>:
100001ca:	be00      	bkpt	0x0000

100001cc <__unhandled_user_irq>:
100001cc:	f000 f851 	bl	10000272 <__get_current_exception>
100001d0:	3810      	subs	r0, #16

100001d2 <unhandled_user_irq_num_in_r0>:
100001d2:	be00      	bkpt	0x0000

100001d4 <binary_info_header>:
100001d4:	7188ebf2 	.word	0x7188ebf2
100001d8:	100002e0 	.word	0x100002e0
100001dc:	1000030c 	.word	0x1000030c
100001e0:	10000234 	.word	0x10000234
100001e4:	e71aa390 	.word	0xe71aa390

100001e8 <_entry_point>:
100001e8:	2000      	movs	r0, #0
100001ea:	4924      	ldr	r1, [pc, #144]	; (1000027c <__get_current_exception+0xa>)
100001ec:	6008      	str	r0, [r1, #0]
100001ee:	c806      	ldmia	r0!, {r1, r2}
100001f0:	f381 8808 	msr	MSP, r1
100001f4:	4710      	bx	r2

100001f6 <_reset_handler>:
100001f6:	4822      	ldr	r0, [pc, #136]	; (10000280 <__get_current_exception+0xe>)
100001f8:	6800      	ldr	r0, [r0, #0]
100001fa:	2800      	cmp	r0, #0
100001fc:	d135      	bne.n	1000026a <hold_non_core0_in_bootrom>
100001fe:	a40d      	add	r4, pc, #52	; (adr r4, 10000234 <data_cpy_table>)
10000200:	cc0e      	ldmia	r4!, {r1, r2, r3}
10000202:	2900      	cmp	r1, #0
10000204:	d002      	beq.n	1000020c <_reset_handler+0x16>
10000206:	f000 f812 	bl	1000022e <data_cpy>
1000020a:	e7f9      	b.n	10000200 <_reset_handler+0xa>
1000020c:	491d      	ldr	r1, [pc, #116]	; (10000284 <__get_current_exception+0x12>)
1000020e:	4a1e      	ldr	r2, [pc, #120]	; (10000288 <__get_current_exception+0x16>)
10000210:	2000      	movs	r0, #0
10000212:	e000      	b.n	10000216 <bss_fill_test>

10000214 <bss_fill_loop>:
10000214:	c101      	stmia	r1!, {r0}

10000216 <bss_fill_test>:
10000216:	4291      	cmp	r1, r2
10000218:	d1fc      	bne.n	10000214 <bss_fill_loop>

1000021a <platform_entry>:
1000021a:	491c      	ldr	r1, [pc, #112]	; (1000028c <__get_current_exception+0x1a>)
1000021c:	4788      	blx	r1
1000021e:	491c      	ldr	r1, [pc, #112]	; (10000290 <__get_current_exception+0x1e>)
10000220:	4788      	blx	r1
10000222:	491c      	ldr	r1, [pc, #112]	; (10000294 <__get_current_exception+0x22>)
10000224:	4788      	blx	r1
10000226:	be00      	bkpt	0x0000
10000228:	e7fd      	b.n	10000226 <platform_entry+0xc>

1000022a <data_cpy_loop>:
1000022a:	c901      	ldmia	r1!, {r0}
1000022c:	c201      	stmia	r2!, {r0}

1000022e <data_cpy>:
1000022e:	429a      	cmp	r2, r3
10000230:	d3fb      	bcc.n	1000022a <data_cpy_loop>
10000232:	4770      	bx	lr

10000234 <data_cpy_table>:
10000234:	1000030c 	.word	0x1000030c
10000238:	200000c0 	.word	0x200000c0
1000023c:	200055d8 	.word	0x200055d8
10000240:	10005824 	.word	0x10005824
10000244:	200055e0 	.word	0x200055e0
10000248:	20006504 	.word	0x20006504
1000024c:	10006754 	.word	0x10006754
10000250:	20040000 	.word	0x20040000
10000254:	20040000 	.word	0x20040000
10000258:	10006754 	.word	0x10006754
1000025c:	20041000 	.word	0x20041000
10000260:	20041000 	.word	0x20041000
10000264:	00000000 	.word	0x00000000
10000268:	4770      	bx	lr

1000026a <hold_non_core0_in_bootrom>:
1000026a:	480b      	ldr	r0, [pc, #44]	; (10000298 <__get_current_exception+0x26>)
1000026c:	f000 f818 	bl	100002a0 <__rom_func_lookup_veneer>
10000270:	4700      	bx	r0

10000272 <__get_current_exception>:
10000272:	f3ef 8005 	mrs	r0, IPSR
10000276:	b2c0      	uxtb	r0, r0
10000278:	4770      	bx	lr
1000027a:	0000      	.short	0x0000
1000027c:	e000ed08 	.word	0xe000ed08
10000280:	d0000000 	.word	0xd0000000
10000284:	20006510 	.word	0x20006510
10000288:	20006a28 	.word	0x20006a28
1000028c:	200024f9 	.word	0x200024f9
10000290:	200001a5 	.word	0x200001a5
10000294:	20002621 	.word	0x20002621
10000298:	00005657 	.word	0x00005657
1000029c:	00000000 	.word	0x00000000

100002a0 <__rom_func_lookup_veneer>:
100002a0:	b401      	push	{r0}
100002a2:	4802      	ldr	r0, [pc, #8]	; (100002ac <__rom_func_lookup_veneer+0xc>)
100002a4:	4684      	mov	ip, r0
100002a6:	bc01      	pop	{r0}
100002a8:	4760      	bx	ip
100002aa:	bf00      	nop
100002ac:	2000162d 	.word	0x2000162d

100002b0 <__bi_50>:
100002b0:	50520006 5360b3ab 20005b54              ..RP..`ST[. 

100002bc <__bi_38>:
100002bc:	50520006 02031c86 20005b64              ..RP....d[. 

100002c8 <__bi_30>:
100002c8:	50520006 9da22254 20005b80              ..RPT"...[. 

100002d4 <__bi_22>:
100002d4:	50520005 68f465de 10006754              ..RP.e.hTg..

Disassembly of section .text:

200000c0 <_init>:
200000c0:	b5f8      	push	{r3, r4, r5, r6, r7, lr}
200000c2:	46c0      	nop			; (mov r8, r8)

200000c4 <deregister_tm_clones>:
200000c4:	4b05      	ldr	r3, [pc, #20]	; (200000dc <deregister_tm_clones+0x18>)
200000c6:	4806      	ldr	r0, [pc, #24]	; (200000e0 <deregister_tm_clones+0x1c>)
200000c8:	3303      	adds	r3, #3
200000ca:	b510      	push	{r4, lr}
200000cc:	1a1b      	subs	r3, r3, r0
200000ce:	2b06      	cmp	r3, #6
200000d0:	d903      	bls.n	200000da <deregister_tm_clones+0x16>
200000d2:	4b04      	ldr	r3, [pc, #16]	; (200000e4 <deregister_tm_clones+0x20>)
200000d4:	2b00      	cmp	r3, #0
200000d6:	d000      	beq.n	200000da <deregister_tm_clones+0x16>
200000d8:	4798      	blx	r3
200000da:	bd10      	pop	{r4, pc}
200000dc:	20006504 	.word	0x20006504
200000e0:	20006504 	.word	0x20006504
200000e4:	00000000 	.word	0x00000000

200000e8 <register_tm_clones>:
200000e8:	4806      	ldr	r0, [pc, #24]	; (20000104 <register_tm_clones+0x1c>)
200000ea:	4907      	ldr	r1, [pc, #28]	; (20000108 <register_tm_clones+0x20>)
200000ec:	b510      	push	{r4, lr}
200000ee:	1a09      	subs	r1, r1, r0
200000f0:	1089      	asrs	r1, r1, #2
200000f2:	0fcb      	lsrs	r3, r1, #31
200000f4:	1859      	adds	r1, r3, r1
200000f6:	1049      	asrs	r1, r1, #1
200000f8:	d003      	beq.n	20000102 <register_tm_clones+0x1a>
200000fa:	4b04      	ldr	r3, [pc, #16]	; (2000010c <register_tm_clones+0x24>)
200000fc:	2b00      	cmp	r3, #0
200000fe:	d000      	beq.n	20000102 <register_tm_clones+0x1a>
20000100:	4798      	blx	r3
20000102:	bd10      	pop	{r4, pc}
20000104:	20006504 	.word	0x20006504
20000108:	20006504 	.word	0x20006504
2000010c:	00000000 	.word	0x00000000

20000110 <__do_global_dtors_aux>:
20000110:	b510      	push	{r4, lr}
20000112:	4c07      	ldr	r4, [pc, #28]	; (20000130 <__do_global_dtors_aux+0x20>)
20000114:	7823      	ldrb	r3, [r4, #0]
20000116:	2b00      	cmp	r3, #0
20000118:	d109      	bne.n	2000012e <__do_global_dtors_aux+0x1e>
2000011a:	f7ff ffd3 	bl	200000c4 <deregister_tm_clones>
2000011e:	4b05      	ldr	r3, [pc, #20]	; (20000134 <__do_global_dtors_aux+0x24>)
20000120:	2b00      	cmp	r3, #0
20000122:	d002      	beq.n	2000012a <__do_global_dtors_aux+0x1a>
20000124:	4804      	ldr	r0, [pc, #16]	; (20000138 <__do_global_dtors_aux+0x28>)
20000126:	e000      	b.n	2000012a <__do_global_dtors_aux+0x1a>
20000128:	bf00      	nop
2000012a:	2301      	movs	r3, #1
2000012c:	7023      	strb	r3, [r4, #0]
2000012e:	bd10      	pop	{r4, pc}
20000130:	20006610 	.word	0x20006610
20000134:	00000000 	.word	0x00000000
20000138:	200055d8 	.word	0x200055d8

2000013c <frame_dummy>:
2000013c:	4b09      	ldr	r3, [pc, #36]	; (20000164 <frame_dummy+0x28>)
2000013e:	b510      	push	{r4, lr}
20000140:	2b00      	cmp	r3, #0
20000142:	d003      	beq.n	2000014c <frame_dummy+0x10>
20000144:	4908      	ldr	r1, [pc, #32]	; (20000168 <frame_dummy+0x2c>)
20000146:	4809      	ldr	r0, [pc, #36]	; (2000016c <frame_dummy+0x30>)
20000148:	e000      	b.n	2000014c <frame_dummy+0x10>
2000014a:	bf00      	nop
2000014c:	4808      	ldr	r0, [pc, #32]	; (20000170 <frame_dummy+0x34>)
2000014e:	6803      	ldr	r3, [r0, #0]
20000150:	2b00      	cmp	r3, #0
20000152:	d102      	bne.n	2000015a <frame_dummy+0x1e>
20000154:	f7ff ffc8 	bl	200000e8 <register_tm_clones>
20000158:	bd10      	pop	{r4, pc}
2000015a:	4b06      	ldr	r3, [pc, #24]	; (20000174 <frame_dummy+0x38>)
2000015c:	2b00      	cmp	r3, #0
2000015e:	d0f9      	beq.n	20000154 <frame_dummy+0x18>
20000160:	4798      	blx	r3
20000162:	e7f7      	b.n	20000154 <frame_dummy+0x18>
20000164:	00000000 	.word	0x00000000
20000168:	20006614 	.word	0x20006614
2000016c:	200055d8 	.word	0x200055d8
20000170:	20006504 	.word	0x20006504
20000174:	00000000 	.word	0x00000000

20000178 <spiggle>:
20000178:	b570      	push	{r4, r5, r6, lr}
2000017a:	2001      	movs	r0, #1
2000017c:	f001 fa36 	bl	200015ec <check_dma_channel_param_impl>
20000180:	4c05      	ldr	r4, [pc, #20]	; (20000198 <spiggle+0x20>)
20000182:	4b06      	ldr	r3, [pc, #24]	; (2000019c <spiggle+0x24>)
20000184:	2001      	movs	r0, #1
20000186:	6123      	str	r3, [r4, #16]
20000188:	4b05      	ldr	r3, [pc, #20]	; (200001a0 <spiggle+0x28>)
2000018a:	681d      	ldr	r5, [r3, #0]
2000018c:	f001 fa2e 	bl	200015ec <check_dma_channel_param_impl>
20000190:	2317      	movs	r3, #23
20000192:	6025      	str	r5, [r4, #0]
20000194:	61e3      	str	r3, [r4, #28]
20000196:	bd70      	pop	{r4, r5, r6, pc}
20000198:	50000040 	.word	0x50000040
2000019c:	005f8f55 	.word	0x005f8f55
200001a0:	20005bd8 	.word	0x20005bd8

200001a4 <main>:
200001a4:	b510      	push	{r4, lr}
200001a6:	f7ff ffe7 	bl	20000178 <spiggle>
200001aa:	f004 f8c5 	bl	20004338 <stdio_init_all>
200001ae:	4b1a      	ldr	r3, [pc, #104]	; (20000218 <main+0x74>)
200001b0:	481a      	ldr	r0, [pc, #104]	; (2000021c <main+0x78>)
200001b2:	6a99      	ldr	r1, [r3, #40]	; 0x28
200001b4:	0049      	lsls	r1, r1, #1
200001b6:	f004 f8b3 	bl	20004320 <__wrap_printf>
200001ba:	4819      	ldr	r0, [pc, #100]	; (20000220 <main+0x7c>)
200001bc:	f003 ff24 	bl	20004008 <__wrap_puts>
200001c0:	4818      	ldr	r0, [pc, #96]	; (20000224 <main+0x80>)
200001c2:	f003 ff21 	bl	20004008 <__wrap_puts>
200001c6:	4c18      	ldr	r4, [pc, #96]	; (20000228 <main+0x84>)
200001c8:	2100      	movs	r1, #0
200001ca:	0020      	movs	r0, r4
200001cc:	f005 fa2c 	bl	20005628 <mutex_try_enter>
200001d0:	2800      	cmp	r0, #0
200001d2:	d01e      	beq.n	20000212 <main+0x6e>
200001d4:	2100      	movs	r1, #0
200001d6:	0020      	movs	r0, r4
200001d8:	f005 fa26 	bl	20005628 <mutex_try_enter>
200001dc:	2800      	cmp	r0, #0
200001de:	d115      	bne.n	2000020c <main+0x68>
200001e0:	0020      	movs	r0, r4
200001e2:	2100      	movs	r1, #0
200001e4:	3008      	adds	r0, #8
200001e6:	f005 fa43 	bl	20005670 <recursive_mutex_try_enter>
200001ea:	2800      	cmp	r0, #0
200001ec:	d00b      	beq.n	20000206 <main+0x62>
200001ee:	0020      	movs	r0, r4
200001f0:	2100      	movs	r1, #0
200001f2:	3008      	adds	r0, #8
200001f4:	f005 fa3c 	bl	20005670 <recursive_mutex_try_enter>
200001f8:	2800      	cmp	r0, #0
200001fa:	d101      	bne.n	20000200 <main+0x5c>
200001fc:	f002 fa2a 	bl	20002654 <hard_assertion_failure>
20000200:	df03      	svc	3
20000202:	2000      	movs	r0, #0
20000204:	bd10      	pop	{r4, pc}
20000206:	f002 fa25 	bl	20002654 <hard_assertion_failure>
2000020a:	e7f0      	b.n	200001ee <main+0x4a>
2000020c:	f002 fa22 	bl	20002654 <hard_assertion_failure>
20000210:	e7e6      	b.n	200001e0 <main+0x3c>
20000212:	f002 fa1f 	bl	20002654 <hard_assertion_failure>
20000216:	e7dd      	b.n	200001d4 <main+0x30>
20000218:	40054000 	.word	0x40054000
2000021c:	2000582c 	.word	0x2000582c
20000220:	20005834 	.word	0x20005834
20000224:	20005848 	.word	0x20005848
20000228:	200064c8 	.word	0x200064c8

2000022c <hw_claim_or_assert>:
2000022c:	b5f8      	push	{r3, r4, r5, r6, r7, lr}
2000022e:	f3ef 8710 	mrs	r7, PRIMASK
20000232:	b672      	cpsid	i
20000234:	4e0d      	ldr	r6, [pc, #52]	; (2000026c <hw_claim_or_assert+0x40>)
20000236:	6833      	ldr	r3, [r6, #0]
20000238:	2b00      	cmp	r3, #0
2000023a:	d0fc      	beq.n	20000236 <hw_claim_or_assert+0xa>
2000023c:	f3bf 8f5f 	dmb	sy
20000240:	2507      	movs	r5, #7
20000242:	08cb      	lsrs	r3, r1, #3
20000244:	18c0      	adds	r0, r0, r3
20000246:	2301      	movs	r3, #1
20000248:	400d      	ands	r5, r1
2000024a:	40ab      	lsls	r3, r5
2000024c:	001d      	movs	r5, r3
2000024e:	7804      	ldrb	r4, [r0, #0]
20000250:	4025      	ands	r5, r4
20000252:	d107      	bne.n	20000264 <hw_claim_or_assert+0x38>
20000254:	4323      	orrs	r3, r4
20000256:	7003      	strb	r3, [r0, #0]
20000258:	f3bf 8f5f 	dmb	sy
2000025c:	6035      	str	r5, [r6, #0]
2000025e:	f387 8810 	msr	PRIMASK, r7
20000262:	bdf8      	pop	{r3, r4, r5, r6, r7, pc}
20000264:	0010      	movs	r0, r2
20000266:	f002 f9dd 	bl	20002624 <panic>
2000026a:	46c0      	nop			; (mov r8, r8)
2000026c:	d000012c 	.word	0xd000012c

20000270 <running_on_fpga>:
20000270:	4b02      	ldr	r3, [pc, #8]	; (2000027c <running_on_fpga+0xc>)
20000272:	6818      	ldr	r0, [r3, #0]
20000274:	0780      	lsls	r0, r0, #30
20000276:	0fc0      	lsrs	r0, r0, #31
20000278:	4770      	bx	lr
2000027a:	46c0      	nop			; (mov r8, r8)
2000027c:	4006c000 	.word	0x4006c000

20000280 <spin_locks_reset>:
20000280:	2100      	movs	r1, #0
20000282:	4b04      	ldr	r3, [pc, #16]	; (20000294 <spin_locks_reset+0x14>)
20000284:	4a04      	ldr	r2, [pc, #16]	; (20000298 <spin_locks_reset+0x18>)
20000286:	f3bf 8f5f 	dmb	sy
2000028a:	c302      	stmia	r3!, {r1}
2000028c:	4293      	cmp	r3, r2
2000028e:	d1fa      	bne.n	20000286 <spin_locks_reset+0x6>
20000290:	4770      	bx	lr
20000292:	46c0      	nop			; (mov r8, r8)
20000294:	d0000100 	.word	0xd0000100
20000298:	d0000180 	.word	0xd0000180

2000029c <next_striped_spin_lock_num>:
2000029c:	4a04      	ldr	r2, [pc, #16]	; (200002b0 <next_striped_spin_lock_num+0x14>)
2000029e:	7810      	ldrb	r0, [r2, #0]
200002a0:	1c43      	adds	r3, r0, #1
200002a2:	b2db      	uxtb	r3, r3
200002a4:	2b17      	cmp	r3, #23
200002a6:	d900      	bls.n	200002aa <next_striped_spin_lock_num+0xe>
200002a8:	2310      	movs	r3, #16
200002aa:	7013      	strb	r3, [r2, #0]
200002ac:	4770      	bx	lr
200002ae:	46c0      	nop			; (mov r8, r8)
200002b0:	20005bdc 	.word	0x20005bdc

200002b4 <clocks_init>:
200002b4:	b530      	push	{r4, r5, lr}
200002b6:	200c      	movs	r0, #12
200002b8:	b083      	sub	sp, #12
200002ba:	f001 f97b 	bl	200015b4 <watchdog_start_tick>
200002be:	f7ff ffd7 	bl	20000270 <running_on_fpga>
200002c2:	2800      	cmp	r0, #0
200002c4:	d00e      	beq.n	200002e4 <clocks_init+0x30>
200002c6:	4b96      	ldr	r3, [pc, #600]	; (20000520 <clocks_init+0x26c>)
200002c8:	4a96      	ldr	r2, [pc, #600]	; (20000524 <clocks_init+0x270>)
200002ca:	601a      	str	r2, [r3, #0]
200002cc:	605a      	str	r2, [r3, #4]
200002ce:	609a      	str	r2, [r3, #8]
200002d0:	60da      	str	r2, [r3, #12]
200002d2:	611a      	str	r2, [r3, #16]
200002d4:	615a      	str	r2, [r3, #20]
200002d6:	619a      	str	r2, [r3, #24]
200002d8:	61da      	str	r2, [r3, #28]
200002da:	621a      	str	r2, [r3, #32]
200002dc:	4a92      	ldr	r2, [pc, #584]	; (20000528 <clocks_init+0x274>)
200002de:	625a      	str	r2, [r3, #36]	; 0x24
200002e0:	b003      	add	sp, #12
200002e2:	bd30      	pop	{r4, r5, pc}
200002e4:	4c91      	ldr	r4, [pc, #580]	; (2000052c <clocks_init+0x278>)
200002e6:	67a0      	str	r0, [r4, #120]	; 0x78
200002e8:	f001 f96c 	bl	200015c4 <xosc_init>
200002ec:	2201      	movs	r2, #1
200002ee:	4b90      	ldr	r3, [pc, #576]	; (20000530 <clocks_init+0x27c>)
200002f0:	601a      	str	r2, [r3, #0]
200002f2:	6c63      	ldr	r3, [r4, #68]	; 0x44
200002f4:	2b01      	cmp	r3, #1
200002f6:	d1fc      	bne.n	200002f2 <clocks_init+0x3e>
200002f8:	2203      	movs	r2, #3
200002fa:	4b8e      	ldr	r3, [pc, #568]	; (20000534 <clocks_init+0x280>)
200002fc:	601a      	str	r2, [r3, #0]
200002fe:	4a8b      	ldr	r2, [pc, #556]	; (2000052c <clocks_init+0x278>)
20000300:	6b93      	ldr	r3, [r2, #56]	; 0x38
20000302:	2b01      	cmp	r3, #1
20000304:	d1fc      	bne.n	20000300 <clocks_init+0x4c>
20000306:	3301      	adds	r3, #1
20000308:	9300      	str	r3, [sp, #0]
2000030a:	4a8b      	ldr	r2, [pc, #556]	; (20000538 <clocks_init+0x284>)
2000030c:	3304      	adds	r3, #4
2000030e:	2101      	movs	r1, #1
20000310:	488a      	ldr	r0, [pc, #552]	; (2000053c <clocks_init+0x288>)
20000312:	f001 f901 	bl	20001518 <pll_init>
20000316:	2305      	movs	r3, #5
20000318:	4a89      	ldr	r2, [pc, #548]	; (20000540 <clocks_init+0x28c>)
2000031a:	9300      	str	r3, [sp, #0]
2000031c:	2101      	movs	r1, #1
2000031e:	4889      	ldr	r0, [pc, #548]	; (20000544 <clocks_init+0x290>)
20000320:	f001 f8fa 	bl	20001518 <pll_init>
20000324:	4b88      	ldr	r3, [pc, #544]	; (20000548 <clocks_init+0x294>)
20000326:	685a      	ldr	r2, [r3, #4]
20000328:	2aff      	cmp	r2, #255	; 0xff
2000032a:	d802      	bhi.n	20000332 <clocks_init+0x7e>
2000032c:	2280      	movs	r2, #128	; 0x80
2000032e:	0052      	lsls	r2, r2, #1
20000330:	605a      	str	r2, [r3, #4]
20000332:	2280      	movs	r2, #128	; 0x80
20000334:	4c7a      	ldr	r4, [pc, #488]	; (20000520 <clocks_init+0x26c>)
20000336:	4b7f      	ldr	r3, [pc, #508]	; (20000534 <clocks_init+0x280>)
20000338:	6921      	ldr	r1, [r4, #16]
2000033a:	0112      	lsls	r2, r2, #4
2000033c:	4d82      	ldr	r5, [pc, #520]	; (20000548 <clocks_init+0x294>)
2000033e:	601a      	str	r2, [r3, #0]
20000340:	2900      	cmp	r1, #0
20000342:	d000      	beq.n	20000346 <clocks_init+0x92>
20000344:	e0e5      	b.n	20000512 <clocks_init+0x25e>
20000346:	21e0      	movs	r1, #224	; 0xe0
20000348:	4b7f      	ldr	r3, [pc, #508]	; (20000548 <clocks_init+0x294>)
2000034a:	2002      	movs	r0, #2
2000034c:	681a      	ldr	r2, [r3, #0]
2000034e:	4011      	ands	r1, r2
20000350:	2280      	movs	r2, #128	; 0x80
20000352:	0152      	lsls	r2, r2, #5
20000354:	432a      	orrs	r2, r5
20000356:	6011      	str	r1, [r2, #0]
20000358:	6819      	ldr	r1, [r3, #0]
2000035a:	4048      	eors	r0, r1
2000035c:	2103      	movs	r1, #3
2000035e:	4001      	ands	r1, r0
20000360:	6011      	str	r1, [r2, #0]
20000362:	2104      	movs	r1, #4
20000364:	689a      	ldr	r2, [r3, #8]
20000366:	4211      	tst	r1, r2
20000368:	d0fc      	beq.n	20000364 <clocks_init+0xb0>
2000036a:	2280      	movs	r2, #128	; 0x80
2000036c:	2180      	movs	r1, #128	; 0x80
2000036e:	0192      	lsls	r2, r2, #6
20000370:	432a      	orrs	r2, r5
20000372:	0109      	lsls	r1, r1, #4
20000374:	6011      	str	r1, [r2, #0]
20000376:	2280      	movs	r2, #128	; 0x80
20000378:	0052      	lsls	r2, r2, #1
2000037a:	605a      	str	r2, [r3, #4]
2000037c:	4b73      	ldr	r3, [pc, #460]	; (2000054c <clocks_init+0x298>)
2000037e:	6123      	str	r3, [r4, #16]
20000380:	4b73      	ldr	r3, [pc, #460]	; (20000550 <clocks_init+0x29c>)
20000382:	6859      	ldr	r1, [r3, #4]
20000384:	29ff      	cmp	r1, #255	; 0xff
20000386:	d800      	bhi.n	2000038a <clocks_init+0xd6>
20000388:	e0c1      	b.n	2000050e <clocks_init+0x25a>
2000038a:	2203      	movs	r2, #3
2000038c:	4b68      	ldr	r3, [pc, #416]	; (20000530 <clocks_init+0x27c>)
2000038e:	4870      	ldr	r0, [pc, #448]	; (20000550 <clocks_init+0x29c>)
20000390:	601a      	str	r2, [r3, #0]
20000392:	2101      	movs	r1, #1
20000394:	0003      	movs	r3, r0
20000396:	689a      	ldr	r2, [r3, #8]
20000398:	4211      	tst	r1, r2
2000039a:	d0fc      	beq.n	20000396 <clocks_init+0xe2>
2000039c:	25e0      	movs	r5, #224	; 0xe0
2000039e:	681a      	ldr	r2, [r3, #0]
200003a0:	4015      	ands	r5, r2
200003a2:	2280      	movs	r2, #128	; 0x80
200003a4:	0152      	lsls	r2, r2, #5
200003a6:	4302      	orrs	r2, r0
200003a8:	6015      	str	r5, [r2, #0]
200003aa:	681b      	ldr	r3, [r3, #0]
200003ac:	404b      	eors	r3, r1
200003ae:	2103      	movs	r1, #3
200003b0:	4019      	ands	r1, r3
200003b2:	6011      	str	r1, [r2, #0]
200003b4:	2102      	movs	r1, #2
200003b6:	4a66      	ldr	r2, [pc, #408]	; (20000550 <clocks_init+0x29c>)
200003b8:	6893      	ldr	r3, [r2, #8]
200003ba:	4219      	tst	r1, r3
200003bc:	d0fc      	beq.n	200003b8 <clocks_init+0x104>
200003be:	2380      	movs	r3, #128	; 0x80
200003c0:	2180      	movs	r1, #128	; 0x80
200003c2:	019b      	lsls	r3, r3, #6
200003c4:	4303      	orrs	r3, r0
200003c6:	0109      	lsls	r1, r1, #4
200003c8:	6019      	str	r1, [r3, #0]
200003ca:	2180      	movs	r1, #128	; 0x80
200003cc:	4b61      	ldr	r3, [pc, #388]	; (20000554 <clocks_init+0x2a0>)
200003ce:	0049      	lsls	r1, r1, #1
200003d0:	6051      	str	r1, [r2, #4]
200003d2:	6163      	str	r3, [r4, #20]
200003d4:	4b60      	ldr	r3, [pc, #384]	; (20000558 <clocks_init+0x2a4>)
200003d6:	685a      	ldr	r2, [r3, #4]
200003d8:	2aff      	cmp	r2, #255	; 0xff
200003da:	d800      	bhi.n	200003de <clocks_init+0x12a>
200003dc:	6059      	str	r1, [r3, #4]
200003de:	2280      	movs	r2, #128	; 0x80
200003e0:	4b5e      	ldr	r3, [pc, #376]	; (2000055c <clocks_init+0x2a8>)
200003e2:	69e1      	ldr	r1, [r4, #28]
200003e4:	0112      	lsls	r2, r2, #4
200003e6:	4d5c      	ldr	r5, [pc, #368]	; (20000558 <clocks_init+0x2a4>)
200003e8:	601a      	str	r2, [r3, #0]
200003ea:	2900      	cmp	r1, #0
200003ec:	d005      	beq.n	200003fa <clocks_init+0x146>
200003ee:	6960      	ldr	r0, [r4, #20]
200003f0:	f001 fa20 	bl	20001834 <__wrap___aeabi_uidiv>
200003f4:	3001      	adds	r0, #1
200003f6:	3801      	subs	r0, #1
200003f8:	d1fd      	bne.n	200003f6 <clocks_init+0x142>
200003fa:	22e0      	movs	r2, #224	; 0xe0
200003fc:	4956      	ldr	r1, [pc, #344]	; (20000558 <clocks_init+0x2a4>)
200003fe:	680b      	ldr	r3, [r1, #0]
20000400:	401a      	ands	r2, r3
20000402:	2380      	movs	r3, #128	; 0x80
20000404:	015b      	lsls	r3, r3, #5
20000406:	432b      	orrs	r3, r5
20000408:	601a      	str	r2, [r3, #0]
2000040a:	2380      	movs	r3, #128	; 0x80
2000040c:	2280      	movs	r2, #128	; 0x80
2000040e:	019b      	lsls	r3, r3, #6
20000410:	432b      	orrs	r3, r5
20000412:	0112      	lsls	r2, r2, #4
20000414:	601a      	str	r2, [r3, #0]
20000416:	2280      	movs	r2, #128	; 0x80
20000418:	4b42      	ldr	r3, [pc, #264]	; (20000524 <clocks_init+0x270>)
2000041a:	0052      	lsls	r2, r2, #1
2000041c:	604a      	str	r2, [r1, #4]
2000041e:	61e3      	str	r3, [r4, #28]
20000420:	4b4f      	ldr	r3, [pc, #316]	; (20000560 <clocks_init+0x2ac>)
20000422:	6859      	ldr	r1, [r3, #4]
20000424:	29ff      	cmp	r1, #255	; 0xff
20000426:	d800      	bhi.n	2000042a <clocks_init+0x176>
20000428:	605a      	str	r2, [r3, #4]
2000042a:	2280      	movs	r2, #128	; 0x80
2000042c:	4b4d      	ldr	r3, [pc, #308]	; (20000564 <clocks_init+0x2b0>)
2000042e:	6a21      	ldr	r1, [r4, #32]
20000430:	0112      	lsls	r2, r2, #4
20000432:	4d4b      	ldr	r5, [pc, #300]	; (20000560 <clocks_init+0x2ac>)
20000434:	601a      	str	r2, [r3, #0]
20000436:	2900      	cmp	r1, #0
20000438:	d005      	beq.n	20000446 <clocks_init+0x192>
2000043a:	6960      	ldr	r0, [r4, #20]
2000043c:	f001 f9fa 	bl	20001834 <__wrap___aeabi_uidiv>
20000440:	3001      	adds	r0, #1
20000442:	3801      	subs	r0, #1
20000444:	d1fd      	bne.n	20000442 <clocks_init+0x18e>
20000446:	22e0      	movs	r2, #224	; 0xe0
20000448:	4945      	ldr	r1, [pc, #276]	; (20000560 <clocks_init+0x2ac>)
2000044a:	680b      	ldr	r3, [r1, #0]
2000044c:	401a      	ands	r2, r3
2000044e:	2380      	movs	r3, #128	; 0x80
20000450:	015b      	lsls	r3, r3, #5
20000452:	432b      	orrs	r3, r5
20000454:	601a      	str	r2, [r3, #0]
20000456:	2380      	movs	r3, #128	; 0x80
20000458:	2280      	movs	r2, #128	; 0x80
2000045a:	019b      	lsls	r3, r3, #6
2000045c:	432b      	orrs	r3, r5
2000045e:	0112      	lsls	r2, r2, #4
20000460:	601a      	str	r2, [r3, #0]
20000462:	2380      	movs	r3, #128	; 0x80
20000464:	005b      	lsls	r3, r3, #1
20000466:	604b      	str	r3, [r1, #4]
20000468:	4b2e      	ldr	r3, [pc, #184]	; (20000524 <clocks_init+0x270>)
2000046a:	4a3f      	ldr	r2, [pc, #252]	; (20000568 <clocks_init+0x2b4>)
2000046c:	6223      	str	r3, [r4, #32]
2000046e:	4b3f      	ldr	r3, [pc, #252]	; (2000056c <clocks_init+0x2b8>)
20000470:	6859      	ldr	r1, [r3, #4]
20000472:	4291      	cmp	r1, r2
20000474:	d801      	bhi.n	2000047a <clocks_init+0x1c6>
20000476:	3201      	adds	r2, #1
20000478:	605a      	str	r2, [r3, #4]
2000047a:	2280      	movs	r2, #128	; 0x80
2000047c:	4b3c      	ldr	r3, [pc, #240]	; (20000570 <clocks_init+0x2bc>)
2000047e:	6a61      	ldr	r1, [r4, #36]	; 0x24
20000480:	0112      	lsls	r2, r2, #4
20000482:	4d3a      	ldr	r5, [pc, #232]	; (2000056c <clocks_init+0x2b8>)
20000484:	601a      	str	r2, [r3, #0]
20000486:	2900      	cmp	r1, #0
20000488:	d005      	beq.n	20000496 <clocks_init+0x1e2>
2000048a:	6960      	ldr	r0, [r4, #20]
2000048c:	f001 f9d2 	bl	20001834 <__wrap___aeabi_uidiv>
20000490:	3001      	adds	r0, #1
20000492:	3801      	subs	r0, #1
20000494:	d1fd      	bne.n	20000492 <clocks_init+0x1de>
20000496:	22e0      	movs	r2, #224	; 0xe0
20000498:	4934      	ldr	r1, [pc, #208]	; (2000056c <clocks_init+0x2b8>)
2000049a:	680b      	ldr	r3, [r1, #0]
2000049c:	401a      	ands	r2, r3
2000049e:	2380      	movs	r3, #128	; 0x80
200004a0:	015b      	lsls	r3, r3, #5
200004a2:	432b      	orrs	r3, r5
200004a4:	601a      	str	r2, [r3, #0]
200004a6:	2380      	movs	r3, #128	; 0x80
200004a8:	2280      	movs	r2, #128	; 0x80
200004aa:	019b      	lsls	r3, r3, #6
200004ac:	432b      	orrs	r3, r5
200004ae:	0112      	lsls	r2, r2, #4
200004b0:	601a      	str	r2, [r3, #0]
200004b2:	2380      	movs	r3, #128	; 0x80
200004b4:	02db      	lsls	r3, r3, #11
200004b6:	604b      	str	r3, [r1, #4]
200004b8:	4b1b      	ldr	r3, [pc, #108]	; (20000528 <clocks_init+0x274>)
200004ba:	6263      	str	r3, [r4, #36]	; 0x24
200004bc:	4b2d      	ldr	r3, [pc, #180]	; (20000574 <clocks_init+0x2c0>)
200004be:	685a      	ldr	r2, [r3, #4]
200004c0:	2aff      	cmp	r2, #255	; 0xff
200004c2:	d802      	bhi.n	200004ca <clocks_init+0x216>
200004c4:	2280      	movs	r2, #128	; 0x80
200004c6:	0052      	lsls	r2, r2, #1
200004c8:	605a      	str	r2, [r3, #4]
200004ca:	2280      	movs	r2, #128	; 0x80
200004cc:	4b2a      	ldr	r3, [pc, #168]	; (20000578 <clocks_init+0x2c4>)
200004ce:	69a1      	ldr	r1, [r4, #24]
200004d0:	0112      	lsls	r2, r2, #4
200004d2:	4d28      	ldr	r5, [pc, #160]	; (20000574 <clocks_init+0x2c0>)
200004d4:	601a      	str	r2, [r3, #0]
200004d6:	2900      	cmp	r1, #0
200004d8:	d005      	beq.n	200004e6 <clocks_init+0x232>
200004da:	6960      	ldr	r0, [r4, #20]
200004dc:	f001 f9aa 	bl	20001834 <__wrap___aeabi_uidiv>
200004e0:	3001      	adds	r0, #1
200004e2:	3801      	subs	r0, #1
200004e4:	d1fd      	bne.n	200004e2 <clocks_init+0x22e>
200004e6:	22e0      	movs	r2, #224	; 0xe0
200004e8:	4922      	ldr	r1, [pc, #136]	; (20000574 <clocks_init+0x2c0>)
200004ea:	680b      	ldr	r3, [r1, #0]
200004ec:	401a      	ands	r2, r3
200004ee:	2380      	movs	r3, #128	; 0x80
200004f0:	015b      	lsls	r3, r3, #5
200004f2:	432b      	orrs	r3, r5
200004f4:	601a      	str	r2, [r3, #0]
200004f6:	2380      	movs	r3, #128	; 0x80
200004f8:	2280      	movs	r2, #128	; 0x80
200004fa:	019b      	lsls	r3, r3, #6
200004fc:	432b      	orrs	r3, r5
200004fe:	0112      	lsls	r2, r2, #4
20000500:	601a      	str	r2, [r3, #0]
20000502:	2380      	movs	r3, #128	; 0x80
20000504:	005b      	lsls	r3, r3, #1
20000506:	604b      	str	r3, [r1, #4]
20000508:	4b12      	ldr	r3, [pc, #72]	; (20000554 <clocks_init+0x2a0>)
2000050a:	61a3      	str	r3, [r4, #24]
2000050c:	e6e8      	b.n	200002e0 <clocks_init+0x2c>
2000050e:	605a      	str	r2, [r3, #4]
20000510:	e73b      	b.n	2000038a <clocks_init+0xd6>
20000512:	6960      	ldr	r0, [r4, #20]
20000514:	f001 f98e 	bl	20001834 <__wrap___aeabi_uidiv>
20000518:	3001      	adds	r0, #1
2000051a:	3801      	subs	r0, #1
2000051c:	d1fd      	bne.n	2000051a <clocks_init+0x266>
2000051e:	e712      	b.n	20000346 <clocks_init+0x92>
20000520:	20006770 	.word	0x20006770
20000524:	02dc6c00 	.word	0x02dc6c00
20000528:	0000b71b 	.word	0x0000b71b
2000052c:	40008000 	.word	0x40008000
20000530:	4000b03c 	.word	0x4000b03c
20000534:	4000b030 	.word	0x4000b030
20000538:	59682f00 	.word	0x59682f00
2000053c:	40028000 	.word	0x40028000
20000540:	47868c00 	.word	0x47868c00
20000544:	4002c000 	.word	0x4002c000
20000548:	40008030 	.word	0x40008030
2000054c:	00b71b00 	.word	0x00b71b00
20000550:	4000803c 	.word	0x4000803c
20000554:	07735940 	.word	0x07735940
20000558:	40008054 	.word	0x40008054
2000055c:	4000b054 	.word	0x4000b054
20000560:	40008060 	.word	0x40008060
20000564:	4000b060 	.word	0x4000b060
20000568:	0003ffff 	.word	0x0003ffff
2000056c:	4000806c 	.word	0x4000806c
20000570:	4000b06c 	.word	0x4000b06c
20000574:	40008048 	.word	0x40008048
20000578:	4000b048 	.word	0x4000b048

2000057c <clock_get_hz>:
2000057c:	4b01      	ldr	r3, [pc, #4]	; (20000584 <clock_get_hz+0x8>)
2000057e:	0080      	lsls	r0, r0, #2
20000580:	58c0      	ldr	r0, [r0, r3]
20000582:	4770      	bx	lr
20000584:	20006770 	.word	0x20006770

20000588 <gpio_set_function>:
20000588:	4a09      	ldr	r2, [pc, #36]	; (200005b0 <gpio_set_function+0x28>)
2000058a:	0083      	lsls	r3, r0, #2
2000058c:	4694      	mov	ip, r2
2000058e:	2240      	movs	r2, #64	; 0x40
20000590:	4463      	add	r3, ip
20000592:	b510      	push	{r4, lr}
20000594:	681c      	ldr	r4, [r3, #0]
20000596:	00c0      	lsls	r0, r0, #3
20000598:	4062      	eors	r2, r4
2000059a:	24c0      	movs	r4, #192	; 0xc0
2000059c:	4014      	ands	r4, r2
2000059e:	2280      	movs	r2, #128	; 0x80
200005a0:	0152      	lsls	r2, r2, #5
200005a2:	4313      	orrs	r3, r2
200005a4:	601c      	str	r4, [r3, #0]
200005a6:	4b03      	ldr	r3, [pc, #12]	; (200005b4 <gpio_set_function+0x2c>)
200005a8:	469c      	mov	ip, r3
200005aa:	4460      	add	r0, ip
200005ac:	6041      	str	r1, [r0, #4]
200005ae:	bd10      	pop	{r4, pc}
200005b0:	4001c004 	.word	0x4001c004
200005b4:	40014000 	.word	0x40014000

200005b8 <irq_set_enabled>:
200005b8:	2301      	movs	r3, #1
200005ba:	4083      	lsls	r3, r0
200005bc:	2900      	cmp	r1, #0
200005be:	d102      	bne.n	200005c6 <irq_set_enabled+0xe>
200005c0:	4a03      	ldr	r2, [pc, #12]	; (200005d0 <irq_set_enabled+0x18>)
200005c2:	6013      	str	r3, [r2, #0]
200005c4:	4770      	bx	lr
200005c6:	4a03      	ldr	r2, [pc, #12]	; (200005d4 <irq_set_enabled+0x1c>)
200005c8:	6013      	str	r3, [r2, #0]
200005ca:	4a03      	ldr	r2, [pc, #12]	; (200005d8 <irq_set_enabled+0x20>)
200005cc:	6013      	str	r3, [r2, #0]
200005ce:	e7f9      	b.n	200005c4 <irq_set_enabled+0xc>
200005d0:	e000e180 	.word	0xe000e180
200005d4:	e000e280 	.word	0xe000e280
200005d8:	e000e100 	.word	0xe000e100

200005dc <irq_get_vtable_handler>:
200005dc:	4b02      	ldr	r3, [pc, #8]	; (200005e8 <irq_get_vtable_handler+0xc>)
200005de:	3010      	adds	r0, #16
200005e0:	689b      	ldr	r3, [r3, #8]
200005e2:	0080      	lsls	r0, r0, #2
200005e4:	58c0      	ldr	r0, [r0, r3]
200005e6:	4770      	bx	lr
200005e8:	e000ed00 	.word	0xe000ed00

200005ec <irq_set_exclusive_handler>:
200005ec:	b570      	push	{r4, r5, r6, lr}
200005ee:	000d      	movs	r5, r1
200005f0:	f3ef 8610 	mrs	r6, PRIMASK
200005f4:	b672      	cpsid	i
200005f6:	4a0f      	ldr	r2, [pc, #60]	; (20000634 <irq_set_exclusive_handler+0x48>)
200005f8:	6813      	ldr	r3, [r2, #0]
200005fa:	2b00      	cmp	r3, #0
200005fc:	d0fc      	beq.n	200005f8 <irq_set_exclusive_handler+0xc>
200005fe:	f3bf 8f5f 	dmb	sy
20000602:	4b0d      	ldr	r3, [pc, #52]	; (20000638 <irq_set_exclusive_handler+0x4c>)
20000604:	3010      	adds	r0, #16
20000606:	689b      	ldr	r3, [r3, #8]
20000608:	0084      	lsls	r4, r0, #2
2000060a:	591b      	ldr	r3, [r3, r4]
2000060c:	4a0b      	ldr	r2, [pc, #44]	; (2000063c <irq_set_exclusive_handler+0x50>)
2000060e:	4293      	cmp	r3, r2
20000610:	d003      	beq.n	2000061a <irq_set_exclusive_handler+0x2e>
20000612:	429d      	cmp	r5, r3
20000614:	d001      	beq.n	2000061a <irq_set_exclusive_handler+0x2e>
20000616:	f002 f81d 	bl	20002654 <hard_assertion_failure>
2000061a:	4b07      	ldr	r3, [pc, #28]	; (20000638 <irq_set_exclusive_handler+0x4c>)
2000061c:	689b      	ldr	r3, [r3, #8]
2000061e:	511d      	str	r5, [r3, r4]
20000620:	f3bf 8f5f 	dmb	sy
20000624:	f3bf 8f5f 	dmb	sy
20000628:	2200      	movs	r2, #0
2000062a:	4b02      	ldr	r3, [pc, #8]	; (20000634 <irq_set_exclusive_handler+0x48>)
2000062c:	601a      	str	r2, [r3, #0]
2000062e:	f386 8810 	msr	PRIMASK, r6
20000632:	bd70      	pop	{r4, r5, r6, pc}
20000634:	d0000124 	.word	0xd0000124
20000638:	e000ed00 	.word	0xe000ed00
2000063c:	100001cd 	.word	0x100001cd

20000640 <irq_remove_handler>:
20000640:	b5f0      	push	{r4, r5, r6, r7, lr}
20000642:	46de      	mov	lr, fp
20000644:	4657      	mov	r7, sl
20000646:	464e      	mov	r6, r9
20000648:	4645      	mov	r5, r8
2000064a:	b5e0      	push	{r5, r6, r7, lr}
2000064c:	000c      	movs	r4, r1
2000064e:	b083      	sub	sp, #12
20000650:	f3ef 8b10 	mrs	fp, PRIMASK
20000654:	b672      	cpsid	i
20000656:	4a5b      	ldr	r2, [pc, #364]	; (200007c4 <irq_remove_handler+0x184>)
20000658:	6813      	ldr	r3, [r2, #0]
2000065a:	2b00      	cmp	r3, #0
2000065c:	d0fc      	beq.n	20000658 <irq_remove_handler+0x18>
2000065e:	f3bf 8f5f 	dmb	sy
20000662:	2210      	movs	r2, #16
20000664:	4690      	mov	r8, r2
20000666:	4480      	add	r8, r0
20000668:	4642      	mov	r2, r8
2000066a:	4b57      	ldr	r3, [pc, #348]	; (200007c8 <irq_remove_handler+0x188>)
2000066c:	0097      	lsls	r7, r2, #2
2000066e:	689b      	ldr	r3, [r3, #8]
20000670:	59dd      	ldr	r5, [r3, r7]
20000672:	4b56      	ldr	r3, [pc, #344]	; (200007cc <irq_remove_handler+0x18c>)
20000674:	4699      	mov	r9, r3
20000676:	429d      	cmp	r5, r3
20000678:	d006      	beq.n	20000688 <irq_remove_handler+0x48>
2000067a:	42a5      	cmp	r5, r4
2000067c:	d100      	bne.n	20000680 <irq_remove_handler+0x40>
2000067e:	e077      	b.n	20000770 <irq_remove_handler+0x130>
20000680:	4e53      	ldr	r6, [pc, #332]	; (200007d0 <irq_remove_handler+0x190>)
20000682:	1bab      	subs	r3, r5, r6
20000684:	2b2f      	cmp	r3, #47	; 0x2f
20000686:	d912      	bls.n	200006ae <irq_remove_handler+0x6e>
20000688:	4b4f      	ldr	r3, [pc, #316]	; (200007c8 <irq_remove_handler+0x188>)
2000068a:	689b      	ldr	r3, [r3, #8]
2000068c:	51dd      	str	r5, [r3, r7]
2000068e:	f3bf 8f5f 	dmb	sy
20000692:	f3bf 8f5f 	dmb	sy
20000696:	2200      	movs	r2, #0
20000698:	4b4a      	ldr	r3, [pc, #296]	; (200007c4 <irq_remove_handler+0x184>)
2000069a:	601a      	str	r2, [r3, #0]
2000069c:	f38b 8810 	msr	PRIMASK, fp
200006a0:	b003      	add	sp, #12
200006a2:	bc3c      	pop	{r2, r3, r4, r5}
200006a4:	4690      	mov	r8, r2
200006a6:	4699      	mov	r9, r3
200006a8:	46a2      	mov	sl, r4
200006aa:	46ab      	mov	fp, r5
200006ac:	bdf0      	pop	{r4, r5, r6, r7, pc}
200006ae:	2301      	movs	r3, #1
200006b0:	4083      	lsls	r3, r0
200006b2:	469a      	mov	sl, r3
200006b4:	4652      	mov	r2, sl
200006b6:	4b47      	ldr	r3, [pc, #284]	; (200007d4 <irq_remove_handler+0x194>)
200006b8:	681b      	ldr	r3, [r3, #0]
200006ba:	401a      	ands	r2, r3
200006bc:	9200      	str	r2, [sp, #0]
200006be:	4652      	mov	r2, sl
200006c0:	4b45      	ldr	r3, [pc, #276]	; (200007d8 <irq_remove_handler+0x198>)
200006c2:	601a      	str	r2, [r3, #0]
200006c4:	f3bf 8f5f 	dmb	sy
200006c8:	f004 ff7e 	bl	200055c8 <____get_current_exception_veneer>
200006cc:	9001      	str	r0, [sp, #4]
200006ce:	2800      	cmp	r0, #0
200006d0:	d143      	bne.n	2000075a <irq_remove_handler+0x11a>
200006d2:	2301      	movs	r3, #1
200006d4:	002a      	movs	r2, r5
200006d6:	439a      	bics	r2, r3
200006d8:	6893      	ldr	r3, [r2, #8]
200006da:	429c      	cmp	r4, r3
200006dc:	d04d      	beq.n	2000077a <irq_remove_handler+0x13a>
200006de:	2106      	movs	r1, #6
200006e0:	5651      	ldrsb	r1, [r2, r1]
200006e2:	2900      	cmp	r1, #0
200006e4:	da05      	bge.n	200006f2 <irq_remove_handler+0xb2>
200006e6:	e031      	b.n	2000074c <irq_remove_handler+0x10c>
200006e8:	2106      	movs	r1, #6
200006ea:	5659      	ldrsb	r1, [r3, r1]
200006ec:	001a      	movs	r2, r3
200006ee:	2900      	cmp	r1, #0
200006f0:	db2c      	blt.n	2000074c <irq_remove_handler+0x10c>
200006f2:	004b      	lsls	r3, r1, #1
200006f4:	185b      	adds	r3, r3, r1
200006f6:	009b      	lsls	r3, r3, #2
200006f8:	18f3      	adds	r3, r6, r3
200006fa:	6899      	ldr	r1, [r3, #8]
200006fc:	428c      	cmp	r4, r1
200006fe:	d1f3      	bne.n	200006e8 <irq_remove_handler+0xa8>
20000700:	2106      	movs	r1, #6
20000702:	5659      	ldrsb	r1, [r3, r1]
20000704:	2900      	cmp	r1, #0
20000706:	db3b      	blt.n	20000780 <irq_remove_handler+0x140>
20000708:	004a      	lsls	r2, r1, #1
2000070a:	1850      	adds	r0, r2, r1
2000070c:	0080      	lsls	r0, r0, #2
2000070e:	1834      	adds	r4, r6, r0
20000710:	4680      	mov	r8, r0
20000712:	68a0      	ldr	r0, [r4, #8]
20000714:	6098      	str	r0, [r3, #8]
20000716:	79e0      	ldrb	r0, [r4, #7]
20000718:	71d8      	strb	r0, [r3, #7]
2000071a:	2006      	movs	r0, #6
2000071c:	5620      	ldrsb	r0, [r4, r0]
2000071e:	7198      	strb	r0, [r3, #6]
20000720:	79a0      	ldrb	r0, [r4, #6]
20000722:	287f      	cmp	r0, #127	; 0x7f
20000724:	d826      	bhi.n	20000774 <irq_remove_handler+0x134>
20000726:	88a4      	ldrh	r4, [r4, #4]
20000728:	1af0      	subs	r0, r6, r3
2000072a:	0564      	lsls	r4, r4, #21
2000072c:	1524      	asrs	r4, r4, #20
2000072e:	4444      	add	r4, r8
20000730:	1900      	adds	r0, r0, r4
20000732:	24e0      	movs	r4, #224	; 0xe0
20000734:	0500      	lsls	r0, r0, #20
20000736:	0d40      	lsrs	r0, r0, #21
20000738:	0224      	lsls	r4, r4, #8
2000073a:	4320      	orrs	r0, r4
2000073c:	8098      	strh	r0, [r3, #4]
2000073e:	1852      	adds	r2, r2, r1
20000740:	4b26      	ldr	r3, [pc, #152]	; (200007dc <irq_remove_handler+0x19c>)
20000742:	0092      	lsls	r2, r2, #2
20000744:	18b6      	adds	r6, r6, r2
20000746:	781a      	ldrb	r2, [r3, #0]
20000748:	7019      	strb	r1, [r3, #0]
2000074a:	71b2      	strb	r2, [r6, #6]
2000074c:	9b00      	ldr	r3, [sp, #0]
2000074e:	2b00      	cmp	r3, #0
20000750:	d108      	bne.n	20000764 <irq_remove_handler+0x124>
20000752:	4652      	mov	r2, sl
20000754:	4b20      	ldr	r3, [pc, #128]	; (200007d8 <irq_remove_handler+0x198>)
20000756:	601a      	str	r2, [r3, #0]
20000758:	e796      	b.n	20000688 <irq_remove_handler+0x48>
2000075a:	4580      	cmp	r8, r0
2000075c:	d0b9      	beq.n	200006d2 <irq_remove_handler+0x92>
2000075e:	f001 ff79 	bl	20002654 <hard_assertion_failure>
20000762:	e7b6      	b.n	200006d2 <irq_remove_handler+0x92>
20000764:	4652      	mov	r2, sl
20000766:	4b1e      	ldr	r3, [pc, #120]	; (200007e0 <irq_remove_handler+0x1a0>)
20000768:	601a      	str	r2, [r3, #0]
2000076a:	4b1a      	ldr	r3, [pc, #104]	; (200007d4 <irq_remove_handler+0x194>)
2000076c:	601a      	str	r2, [r3, #0]
2000076e:	e78b      	b.n	20000688 <irq_remove_handler+0x48>
20000770:	001d      	movs	r5, r3
20000772:	e789      	b.n	20000688 <irq_remove_handler+0x48>
20000774:	20bd      	movs	r0, #189	; 0xbd
20000776:	0200      	lsls	r0, r0, #8
20000778:	e7e0      	b.n	2000073c <irq_remove_handler+0xfc>
2000077a:	0013      	movs	r3, r2
2000077c:	2200      	movs	r2, #0
2000077e:	e7bf      	b.n	20000700 <irq_remove_handler+0xc0>
20000780:	9901      	ldr	r1, [sp, #4]
20000782:	2900      	cmp	r1, #0
20000784:	d10f      	bne.n	200007a6 <irq_remove_handler+0x166>
20000786:	2a00      	cmp	r2, #0
20000788:	d01a      	beq.n	200007c0 <irq_remove_handler+0x180>
2000078a:	31ff      	adds	r1, #255	; 0xff
2000078c:	7191      	strb	r1, [r2, #6]
2000078e:	4915      	ldr	r1, [pc, #84]	; (200007e4 <irq_remove_handler+0x1a4>)
20000790:	8091      	strh	r1, [r2, #4]
20000792:	4912      	ldr	r1, [pc, #72]	; (200007dc <irq_remove_handler+0x19c>)
20000794:	780a      	ldrb	r2, [r1, #0]
20000796:	719a      	strb	r2, [r3, #6]
20000798:	4a13      	ldr	r2, [pc, #76]	; (200007e8 <irq_remove_handler+0x1a8>)
2000079a:	1b9b      	subs	r3, r3, r6
2000079c:	415b      	adcs	r3, r3
2000079e:	435a      	muls	r2, r3
200007a0:	0d12      	lsrs	r2, r2, #20
200007a2:	700a      	strb	r2, [r1, #0]
200007a4:	e7d2      	b.n	2000074c <irq_remove_handler+0x10c>
200007a6:	4a11      	ldr	r2, [pc, #68]	; (200007ec <irq_remove_handler+0x1ac>)
200007a8:	4911      	ldr	r1, [pc, #68]	; (200007f0 <irq_remove_handler+0x1b0>)
200007aa:	1ad2      	subs	r2, r2, r3
200007ac:	3a08      	subs	r2, #8
200007ae:	0250      	lsls	r0, r2, #9
200007b0:	0d40      	lsrs	r0, r0, #21
200007b2:	4301      	orrs	r1, r0
200007b4:	8099      	strh	r1, [r3, #4]
200007b6:	490f      	ldr	r1, [pc, #60]	; (200007f4 <irq_remove_handler+0x1b4>)
200007b8:	0852      	lsrs	r2, r2, #1
200007ba:	430a      	orrs	r2, r1
200007bc:	80da      	strh	r2, [r3, #6]
200007be:	e7c5      	b.n	2000074c <irq_remove_handler+0x10c>
200007c0:	464d      	mov	r5, r9
200007c2:	e7e6      	b.n	20000792 <irq_remove_handler+0x152>
200007c4:	d0000124 	.word	0xd0000124
200007c8:	e000ed00 	.word	0xe000ed00
200007cc:	100001cd 	.word	0x100001cd
200007d0:	20005be0 	.word	0x20005be0
200007d4:	e000e100 	.word	0xe000e100
200007d8:	e000e180 	.word	0xe000e180
200007dc:	2000681e 	.word	0x2000681e
200007e0:	e000e280 	.word	0xe000e280
200007e4:	ffffbd00 	.word	0xffffbd00
200007e8:	0000aaaa 	.word	0x0000aaaa
200007ec:	20005c1a 	.word	0x20005c1a
200007f0:	fffff000 	.word	0xfffff000
200007f4:	fffff800 	.word	0xfffff800

200007f8 <irq_add_tail_to_free_list>:
200007f8:	b5f8      	push	{r3, r4, r5, r6, r7, lr}
200007fa:	2501      	movs	r5, #1
200007fc:	0004      	movs	r4, r0
200007fe:	4305      	orrs	r5, r0
20000800:	f004 fee2 	bl	200055c8 <____get_current_exception_veneer>
20000804:	f3ef 8610 	mrs	r6, PRIMASK
20000808:	b672      	cpsid	i
2000080a:	4a21      	ldr	r2, [pc, #132]	; (20000890 <irq_add_tail_to_free_list+0x98>)
2000080c:	6813      	ldr	r3, [r2, #0]
2000080e:	2b00      	cmp	r3, #0
20000810:	d0fc      	beq.n	2000080c <irq_add_tail_to_free_list+0x14>
20000812:	f3bf 8f5f 	dmb	sy
20000816:	4a1f      	ldr	r2, [pc, #124]	; (20000894 <irq_add_tail_to_free_list+0x9c>)
20000818:	4b1f      	ldr	r3, [pc, #124]	; (20000898 <irq_add_tail_to_free_list+0xa0>)
2000081a:	0021      	movs	r1, r4
2000081c:	1a89      	subs	r1, r1, r2
2000081e:	4149      	adcs	r1, r1
20000820:	434b      	muls	r3, r1
20000822:	0d1b      	lsrs	r3, r3, #20
20000824:	491d      	ldr	r1, [pc, #116]	; (2000089c <irq_add_tail_to_free_list+0xa4>)
20000826:	0080      	lsls	r0, r0, #2
20000828:	688f      	ldr	r7, [r1, #8]
2000082a:	b25b      	sxtb	r3, r3
2000082c:	583f      	ldr	r7, [r7, r0]
2000082e:	42bd      	cmp	r5, r7
20000830:	d026      	beq.n	20000880 <irq_add_tail_to_free_list+0x88>
20000832:	2106      	movs	r1, #6
20000834:	5651      	ldrsb	r1, [r2, r1]
20000836:	4299      	cmp	r1, r3
20000838:	d026      	beq.n	20000888 <irq_add_tail_to_free_list+0x90>
2000083a:	2112      	movs	r1, #18
2000083c:	5651      	ldrsb	r1, [r2, r1]
2000083e:	4299      	cmp	r1, r3
20000840:	d024      	beq.n	2000088c <irq_add_tail_to_free_list+0x94>
20000842:	211e      	movs	r1, #30
20000844:	5651      	ldrsb	r1, [r2, r1]
20000846:	4299      	cmp	r1, r3
20000848:	d010      	beq.n	2000086c <irq_add_tail_to_free_list+0x74>
2000084a:	212a      	movs	r1, #42	; 0x2a
2000084c:	5651      	ldrsb	r1, [r2, r1]
2000084e:	2003      	movs	r0, #3
20000850:	4299      	cmp	r1, r3
20000852:	d00c      	beq.n	2000086e <irq_add_tail_to_free_list+0x76>
20000854:	4a12      	ldr	r2, [pc, #72]	; (200008a0 <irq_add_tail_to_free_list+0xa8>)
20000856:	7811      	ldrb	r1, [r2, #0]
20000858:	7013      	strb	r3, [r2, #0]
2000085a:	71a1      	strb	r1, [r4, #6]
2000085c:	f3bf 8f5f 	dmb	sy
20000860:	2200      	movs	r2, #0
20000862:	4b0b      	ldr	r3, [pc, #44]	; (20000890 <irq_add_tail_to_free_list+0x98>)
20000864:	601a      	str	r2, [r3, #0]
20000866:	f386 8810 	msr	PRIMASK, r6
2000086a:	bdf8      	pop	{r3, r4, r5, r6, r7, pc}
2000086c:	2002      	movs	r0, #2
2000086e:	0041      	lsls	r1, r0, #1
20000870:	1809      	adds	r1, r1, r0
20000872:	0089      	lsls	r1, r1, #2
20000874:	1852      	adds	r2, r2, r1
20000876:	21ff      	movs	r1, #255	; 0xff
20000878:	7191      	strb	r1, [r2, #6]
2000087a:	490a      	ldr	r1, [pc, #40]	; (200008a4 <irq_add_tail_to_free_list+0xac>)
2000087c:	8091      	strh	r1, [r2, #4]
2000087e:	e7e9      	b.n	20000854 <irq_add_tail_to_free_list+0x5c>
20000880:	688a      	ldr	r2, [r1, #8]
20000882:	4909      	ldr	r1, [pc, #36]	; (200008a8 <irq_add_tail_to_free_list+0xb0>)
20000884:	5011      	str	r1, [r2, r0]
20000886:	e7e5      	b.n	20000854 <irq_add_tail_to_free_list+0x5c>
20000888:	2000      	movs	r0, #0
2000088a:	e7f0      	b.n	2000086e <irq_add_tail_to_free_list+0x76>
2000088c:	2001      	movs	r0, #1
2000088e:	e7ee      	b.n	2000086e <irq_add_tail_to_free_list+0x76>
20000890:	d0000124 	.word	0xd0000124
20000894:	20005be0 	.word	0x20005be0
20000898:	0000aaaa 	.word	0x0000aaaa
2000089c:	e000ed00 	.word	0xe000ed00
200008a0:	2000681e 	.word	0x2000681e
200008a4:	ffffbd00 	.word	0xffffbd00
200008a8:	100001cd 	.word	0x100001cd

200008ac <irq_init_priorities>:
200008ac:	4b08      	ldr	r3, [pc, #32]	; (200008d0 <irq_init_priorities+0x24>)
200008ae:	4a09      	ldr	r2, [pc, #36]	; (200008d4 <irq_init_priorities+0x28>)
200008b0:	6013      	str	r3, [r2, #0]
200008b2:	4a09      	ldr	r2, [pc, #36]	; (200008d8 <irq_init_priorities+0x2c>)
200008b4:	6013      	str	r3, [r2, #0]
200008b6:	4a09      	ldr	r2, [pc, #36]	; (200008dc <irq_init_priorities+0x30>)
200008b8:	6013      	str	r3, [r2, #0]
200008ba:	4a09      	ldr	r2, [pc, #36]	; (200008e0 <irq_init_priorities+0x34>)
200008bc:	6013      	str	r3, [r2, #0]
200008be:	4a09      	ldr	r2, [pc, #36]	; (200008e4 <irq_init_priorities+0x38>)
200008c0:	6013      	str	r3, [r2, #0]
200008c2:	4a09      	ldr	r2, [pc, #36]	; (200008e8 <irq_init_priorities+0x3c>)
200008c4:	6013      	str	r3, [r2, #0]
200008c6:	4a09      	ldr	r2, [pc, #36]	; (200008ec <irq_init_priorities+0x40>)
200008c8:	6013      	str	r3, [r2, #0]
200008ca:	4a09      	ldr	r2, [pc, #36]	; (200008f0 <irq_init_priorities+0x44>)
200008cc:	6013      	str	r3, [r2, #0]
200008ce:	4770      	bx	lr
200008d0:	80808080 	.word	0x80808080
200008d4:	e000e400 	.word	0xe000e400
200008d8:	e000e404 	.word	0xe000e404
200008dc:	e000e408 	.word	0xe000e408
200008e0:	e000e40c 	.word	0xe000e40c
200008e4:	e000e410 	.word	0xe000e410
200008e8:	e000e414 	.word	0xe000e414
200008ec:	e000e418 	.word	0xe000e418
200008f0:	e000e41c 	.word	0xe000e41c

200008f4 <lock_init>:
200008f4:	4b02      	ldr	r3, [pc, #8]	; (20000900 <lock_init+0xc>)
200008f6:	469c      	mov	ip, r3
200008f8:	4461      	add	r1, ip
200008fa:	0089      	lsls	r1, r1, #2
200008fc:	6001      	str	r1, [r0, #0]
200008fe:	4770      	bx	lr
20000900:	34000040 	.word	0x34000040

20000904 <timer_pool_entry_comparator>:
20000904:	6883      	ldr	r3, [r0, #8]
20000906:	480b      	ldr	r0, [pc, #44]	; (20000934 <timer_pool_entry_comparator+0x30>)
20000908:	b510      	push	{r4, lr}
2000090a:	4684      	mov	ip, r0
2000090c:	4461      	add	r1, ip
2000090e:	4462      	add	r2, ip
20000910:	0109      	lsls	r1, r1, #4
20000912:	0112      	lsls	r2, r2, #4
20000914:	189a      	adds	r2, r3, r2
20000916:	1859      	adds	r1, r3, r1
20000918:	6854      	ldr	r4, [r2, #4]
2000091a:	684b      	ldr	r3, [r1, #4]
2000091c:	2001      	movs	r0, #1
2000091e:	429c      	cmp	r4, r3
20000920:	d801      	bhi.n	20000926 <timer_pool_entry_comparator+0x22>
20000922:	d002      	beq.n	2000092a <timer_pool_entry_comparator+0x26>
20000924:	2000      	movs	r0, #0
20000926:	b2c0      	uxtb	r0, r0
20000928:	bd10      	pop	{r4, pc}
2000092a:	6812      	ldr	r2, [r2, #0]
2000092c:	680b      	ldr	r3, [r1, #0]
2000092e:	429a      	cmp	r2, r3
20000930:	d8f9      	bhi.n	20000926 <timer_pool_entry_comparator+0x22>
20000932:	e7f7      	b.n	20000924 <timer_pool_entry_comparator+0x20>
20000934:	0fffffff 	.word	0x0fffffff

20000938 <add_alarm_under_lock>:
20000938:	b5f8      	push	{r3, r4, r5, r6, r7, lr}
2000093a:	464e      	mov	r6, r9
2000093c:	4645      	mov	r5, r8
2000093e:	46de      	mov	lr, fp
20000940:	4657      	mov	r7, sl
20000942:	b5e0      	push	{r5, r6, r7, lr}
20000944:	001f      	movs	r7, r3
20000946:	ab0c      	add	r3, sp, #48	; 0x30
20000948:	781d      	ldrb	r5, [r3, #0]
2000094a:	ab0d      	add	r3, sp, #52	; 0x34
2000094c:	781b      	ldrb	r3, [r3, #0]
2000094e:	4681      	mov	r9, r0
20000950:	469b      	mov	fp, r3
20000952:	6803      	ldr	r3, [r0, #0]
20000954:	0016      	movs	r6, r2
20000956:	4698      	mov	r8, r3
20000958:	2d00      	cmp	r5, #0
2000095a:	d108      	bne.n	2000096e <add_alarm_under_lock+0x36>
2000095c:	7b98      	ldrb	r0, [r3, #14]
2000095e:	2800      	cmp	r0, #0
20000960:	d141      	bne.n	200009e6 <add_alarm_under_lock+0xae>
20000962:	bc3c      	pop	{r2, r3, r4, r5}
20000964:	4690      	mov	r8, r2
20000966:	4699      	mov	r9, r3
20000968:	46a2      	mov	sl, r4
2000096a:	46ab      	mov	fp, r5
2000096c:	bdf8      	pop	{r3, r4, r5, r6, r7, pc}
2000096e:	0028      	movs	r0, r5
20000970:	006c      	lsls	r4, r5, #1
20000972:	1964      	adds	r4, r4, r5
20000974:	3c03      	subs	r4, #3
20000976:	4b38      	ldr	r3, [pc, #224]	; (20000a58 <add_alarm_under_lock+0x120>)
20000978:	2200      	movs	r2, #0
2000097a:	469c      	mov	ip, r3
2000097c:	464b      	mov	r3, r9
2000097e:	689b      	ldr	r3, [r3, #8]
20000980:	4460      	add	r0, ip
20000982:	469c      	mov	ip, r3
20000984:	0100      	lsls	r0, r0, #4
20000986:	9b0a      	ldr	r3, [sp, #40]	; 0x28
20000988:	4460      	add	r0, ip
2000098a:	6083      	str	r3, [r0, #8]
2000098c:	9b0b      	ldr	r3, [sp, #44]	; 0x2c
2000098e:	6006      	str	r6, [r0, #0]
20000990:	6047      	str	r7, [r0, #4]
20000992:	60c3      	str	r3, [r0, #12]
20000994:	4643      	mov	r3, r8
20000996:	681b      	ldr	r3, [r3, #0]
20000998:	191b      	adds	r3, r3, r4
2000099a:	709a      	strb	r2, [r3, #2]
2000099c:	705a      	strb	r2, [r3, #1]
2000099e:	701a      	strb	r2, [r3, #0]
200009a0:	4643      	mov	r3, r8
200009a2:	7b5b      	ldrb	r3, [r3, #13]
200009a4:	469a      	mov	sl, r3
200009a6:	2b00      	cmp	r3, #0
200009a8:	d03b      	beq.n	20000a22 <add_alarm_under_lock+0xea>
200009aa:	4643      	mov	r3, r8
200009ac:	002a      	movs	r2, r5
200009ae:	6898      	ldr	r0, [r3, #8]
200009b0:	4651      	mov	r1, sl
200009b2:	685b      	ldr	r3, [r3, #4]
200009b4:	4798      	blx	r3
200009b6:	4643      	mov	r3, r8
200009b8:	681a      	ldr	r2, [r3, #0]
200009ba:	2800      	cmp	r0, #0
200009bc:	d024      	beq.n	20000a08 <add_alarm_under_lock+0xd0>
200009be:	4653      	mov	r3, sl
200009c0:	005b      	lsls	r3, r3, #1
200009c2:	4453      	add	r3, sl
200009c4:	3b03      	subs	r3, #3
200009c6:	18d3      	adds	r3, r2, r3
200009c8:	1914      	adds	r4, r2, r4
200009ca:	4652      	mov	r2, sl
200009cc:	70a2      	strb	r2, [r4, #2]
200009ce:	781a      	ldrb	r2, [r3, #0]
200009d0:	2a00      	cmp	r2, #0
200009d2:	d000      	beq.n	200009d6 <add_alarm_under_lock+0x9e>
200009d4:	7062      	strb	r2, [r4, #1]
200009d6:	701d      	strb	r5, [r3, #0]
200009d8:	4652      	mov	r2, sl
200009da:	4643      	mov	r3, r8
200009dc:	0028      	movs	r0, r5
200009de:	735a      	strb	r2, [r3, #13]
200009e0:	45aa      	cmp	sl, r5
200009e2:	d1be      	bne.n	20000962 <add_alarm_under_lock+0x2a>
200009e4:	e01f      	b.n	20000a26 <add_alarm_under_lock+0xee>
200009e6:	4641      	mov	r1, r8
200009e8:	0044      	lsls	r4, r0, #1
200009ea:	681b      	ldr	r3, [r3, #0]
200009ec:	1824      	adds	r4, r4, r0
200009ee:	3c03      	subs	r4, #3
200009f0:	191b      	adds	r3, r3, r4
200009f2:	785a      	ldrb	r2, [r3, #1]
200009f4:	738a      	strb	r2, [r1, #14]
200009f6:	2a00      	cmp	r2, #0
200009f8:	d100      	bne.n	200009fc <add_alarm_under_lock+0xc4>
200009fa:	73ca      	strb	r2, [r1, #15]
200009fc:	2200      	movs	r2, #0
200009fe:	0005      	movs	r5, r0
20000a00:	709a      	strb	r2, [r3, #2]
20000a02:	705a      	strb	r2, [r3, #1]
20000a04:	701a      	strb	r2, [r3, #0]
20000a06:	e7b6      	b.n	20000976 <add_alarm_under_lock+0x3e>
20000a08:	4653      	mov	r3, sl
20000a0a:	005b      	lsls	r3, r3, #1
20000a0c:	4453      	add	r3, sl
20000a0e:	3b03      	subs	r3, #3
20000a10:	18d3      	adds	r3, r2, r3
20000a12:	1914      	adds	r4, r2, r4
20000a14:	709d      	strb	r5, [r3, #2]
20000a16:	7822      	ldrb	r2, [r4, #0]
20000a18:	2a00      	cmp	r2, #0
20000a1a:	d000      	beq.n	20000a1e <add_alarm_under_lock+0xe6>
20000a1c:	705a      	strb	r2, [r3, #1]
20000a1e:	4653      	mov	r3, sl
20000a20:	7023      	strb	r3, [r4, #0]
20000a22:	4643      	mov	r3, r8
20000a24:	735d      	strb	r5, [r3, #13]
20000a26:	464b      	mov	r3, r9
20000a28:	0032      	movs	r2, r6
20000a2a:	7d18      	ldrb	r0, [r3, #20]
20000a2c:	003b      	movs	r3, r7
20000a2e:	f000 fa0d 	bl	20000e4c <hardware_alarm_set_target>
20000a32:	1e04      	subs	r4, r0, #0
20000a34:	d007      	beq.n	20000a46 <add_alarm_under_lock+0x10e>
20000a36:	465b      	mov	r3, fp
20000a38:	2b00      	cmp	r3, #0
20000a3a:	d104      	bne.n	20000a46 <add_alarm_under_lock+0x10e>
20000a3c:	464b      	mov	r3, r9
20000a3e:	0029      	movs	r1, r5
20000a40:	6818      	ldr	r0, [r3, #0]
20000a42:	f000 fc21 	bl	20001288 <ph_remove_and_free_node>
20000a46:	9b0e      	ldr	r3, [sp, #56]	; 0x38
20000a48:	2b00      	cmp	r3, #0
20000a4a:	d002      	beq.n	20000a52 <add_alarm_under_lock+0x11a>
20000a4c:	701c      	strb	r4, [r3, #0]
20000a4e:	0028      	movs	r0, r5
20000a50:	e787      	b.n	20000962 <add_alarm_under_lock+0x2a>
20000a52:	0028      	movs	r0, r5
20000a54:	e785      	b.n	20000962 <add_alarm_under_lock+0x2a>
20000a56:	46c0      	nop			; (mov r8, r8)
20000a58:	0fffffff 	.word	0x0fffffff

20000a5c <alarm_pool_alarm_callback>:
20000a5c:	4b74      	ldr	r3, [pc, #464]	; (20000c30 <alarm_pool_alarm_callback+0x1d4>)
20000a5e:	0082      	lsls	r2, r0, #2
20000a60:	b5f0      	push	{r4, r5, r6, r7, lr}
20000a62:	58d4      	ldr	r4, [r2, r3]
20000a64:	2300      	movs	r3, #0
20000a66:	46de      	mov	lr, fp
20000a68:	4657      	mov	r7, sl
20000a6a:	464e      	mov	r6, r9
20000a6c:	4645      	mov	r5, r8
20000a6e:	469b      	mov	fp, r3
20000a70:	b5e0      	push	{r5, r6, r7, lr}
20000a72:	b08d      	sub	sp, #52	; 0x34
20000a74:	900b      	str	r0, [sp, #44]	; 0x2c
20000a76:	f000 f96d 	bl	20000d54 <time_us_64>
20000a7a:	6862      	ldr	r2, [r4, #4]
20000a7c:	f3ef 8510 	mrs	r5, PRIMASK
20000a80:	b672      	cpsid	i
20000a82:	6813      	ldr	r3, [r2, #0]
20000a84:	2b00      	cmp	r3, #0
20000a86:	d0fc      	beq.n	20000a82 <alarm_pool_alarm_callback+0x26>
20000a88:	f3bf 8f5f 	dmb	sy
20000a8c:	6823      	ldr	r3, [r4, #0]
20000a8e:	469c      	mov	ip, r3
20000a90:	7b5b      	ldrb	r3, [r3, #13]
20000a92:	4699      	mov	r9, r3
20000a94:	2b00      	cmp	r3, #0
20000a96:	d100      	bne.n	20000a9a <alarm_pool_alarm_callback+0x3e>
20000a98:	e081      	b.n	20000b9e <alarm_pool_alarm_callback+0x142>
20000a9a:	68a2      	ldr	r2, [r4, #8]
20000a9c:	4b65      	ldr	r3, [pc, #404]	; (20000c34 <alarm_pool_alarm_callback+0x1d8>)
20000a9e:	4690      	mov	r8, r2
20000aa0:	444b      	add	r3, r9
20000aa2:	011b      	lsls	r3, r3, #4
20000aa4:	4498      	add	r8, r3
20000aa6:	4643      	mov	r3, r8
20000aa8:	681e      	ldr	r6, [r3, #0]
20000aaa:	685f      	ldr	r7, [r3, #4]
20000aac:	0032      	movs	r2, r6
20000aae:	003b      	movs	r3, r7
20000ab0:	1a12      	subs	r2, r2, r0
20000ab2:	418b      	sbcs	r3, r1
20000ab4:	2b00      	cmp	r3, #0
20000ab6:	dc00      	bgt.n	20000aba <alarm_pool_alarm_callback+0x5e>
20000ab8:	e084      	b.n	20000bc4 <alarm_pool_alarm_callback+0x168>
20000aba:	003b      	movs	r3, r7
20000abc:	0032      	movs	r2, r6
20000abe:	980b      	ldr	r0, [sp, #44]	; 0x2c
20000ac0:	f000 f9c4 	bl	20000e4c <hardware_alarm_set_target>
20000ac4:	2300      	movs	r3, #0
20000ac6:	2200      	movs	r2, #0
20000ac8:	9208      	str	r2, [sp, #32]
20000aca:	9309      	str	r3, [sp, #36]	; 0x24
20000acc:	2300      	movs	r3, #0
20000ace:	2700      	movs	r7, #0
20000ad0:	469a      	mov	sl, r3
20000ad2:	6863      	ldr	r3, [r4, #4]
20000ad4:	f3bf 8f5f 	dmb	sy
20000ad8:	465a      	mov	r2, fp
20000ada:	601a      	str	r2, [r3, #0]
20000adc:	f385 8810 	msr	PRIMASK, r5
20000ae0:	4653      	mov	r3, sl
20000ae2:	2b00      	cmp	r3, #0
20000ae4:	d064      	beq.n	20000bb0 <alarm_pool_alarm_callback+0x154>
20000ae6:	9b0a      	ldr	r3, [sp, #40]	; 0x28
20000ae8:	0039      	movs	r1, r7
20000aea:	0218      	lsls	r0, r3, #8
20000aec:	464b      	mov	r3, r9
20000aee:	4318      	orrs	r0, r3
20000af0:	47d0      	blx	sl
20000af2:	6862      	ldr	r2, [r4, #4]
20000af4:	9006      	str	r0, [sp, #24]
20000af6:	9107      	str	r1, [sp, #28]
20000af8:	f3ef 8810 	mrs	r8, PRIMASK
20000afc:	b672      	cpsid	i
20000afe:	4656      	mov	r6, sl
20000b00:	4645      	mov	r5, r8
20000b02:	6813      	ldr	r3, [r2, #0]
20000b04:	2b00      	cmp	r3, #0
20000b06:	d0fc      	beq.n	20000b02 <alarm_pool_alarm_callback+0xa6>
20000b08:	46b2      	mov	sl, r6
20000b0a:	46a8      	mov	r8, r5
20000b0c:	f3bf 8f5f 	dmb	sy
20000b10:	9906      	ldr	r1, [sp, #24]
20000b12:	9a07      	ldr	r2, [sp, #28]
20000b14:	2a00      	cmp	r2, #0
20000b16:	da25      	bge.n	20000b64 <alarm_pool_alarm_callback+0x108>
20000b18:	6923      	ldr	r3, [r4, #16]
20000b1a:	2b00      	cmp	r3, #0
20000b1c:	d028      	beq.n	20000b70 <alarm_pool_alarm_callback+0x114>
20000b1e:	9d08      	ldr	r5, [sp, #32]
20000b20:	9e09      	ldr	r6, [sp, #36]	; 0x24
20000b22:	1a6d      	subs	r5, r5, r1
20000b24:	4196      	sbcs	r6, r2
20000b26:	002a      	movs	r2, r5
20000b28:	0033      	movs	r3, r6
20000b2a:	9d08      	ldr	r5, [sp, #32]
20000b2c:	9e09      	ldr	r6, [sp, #36]	; 0x24
20000b2e:	429e      	cmp	r6, r3
20000b30:	d900      	bls.n	20000b34 <alarm_pool_alarm_callback+0xd8>
20000b32:	e071      	b.n	20000c18 <alarm_pool_alarm_callback+0x1bc>
20000b34:	d100      	bne.n	20000b38 <alarm_pool_alarm_callback+0xdc>
20000b36:	e073      	b.n	20000c20 <alarm_pool_alarm_callback+0x1c4>
20000b38:	4659      	mov	r1, fp
20000b3a:	9104      	str	r1, [sp, #16]
20000b3c:	2101      	movs	r1, #1
20000b3e:	9103      	str	r1, [sp, #12]
20000b40:	4649      	mov	r1, r9
20000b42:	9102      	str	r1, [sp, #8]
20000b44:	4651      	mov	r1, sl
20000b46:	9701      	str	r7, [sp, #4]
20000b48:	9100      	str	r1, [sp, #0]
20000b4a:	0020      	movs	r0, r4
20000b4c:	f7ff fef4 	bl	20000938 <add_alarm_under_lock>
20000b50:	465b      	mov	r3, fp
20000b52:	6123      	str	r3, [r4, #16]
20000b54:	6863      	ldr	r3, [r4, #4]
20000b56:	f3bf 8f5f 	dmb	sy
20000b5a:	465a      	mov	r2, fp
20000b5c:	601a      	str	r2, [r3, #0]
20000b5e:	f388 8810 	msr	PRIMASK, r8
20000b62:	e788      	b.n	20000a76 <alarm_pool_alarm_callback+0x1a>
20000b64:	0013      	movs	r3, r2
20000b66:	4319      	orrs	r1, r3
20000b68:	d002      	beq.n	20000b70 <alarm_pool_alarm_callback+0x114>
20000b6a:	6923      	ldr	r3, [r4, #16]
20000b6c:	2b00      	cmp	r3, #0
20000b6e:	d146      	bne.n	20000bfe <alarm_pool_alarm_callback+0x1a2>
20000b70:	6823      	ldr	r3, [r4, #0]
20000b72:	7bda      	ldrb	r2, [r3, #15]
20000b74:	2a00      	cmp	r2, #0
20000b76:	d007      	beq.n	20000b88 <alarm_pool_alarm_callback+0x12c>
20000b78:	0051      	lsls	r1, r2, #1
20000b7a:	188a      	adds	r2, r1, r2
20000b7c:	6819      	ldr	r1, [r3, #0]
20000b7e:	468c      	mov	ip, r1
20000b80:	4649      	mov	r1, r9
20000b82:	4462      	add	r2, ip
20000b84:	3a03      	subs	r2, #3
20000b86:	7051      	strb	r1, [r2, #1]
20000b88:	464a      	mov	r2, r9
20000b8a:	73da      	strb	r2, [r3, #15]
20000b8c:	68e2      	ldr	r2, [r4, #12]
20000b8e:	464b      	mov	r3, r9
20000b90:	4694      	mov	ip, r2
20000b92:	3b01      	subs	r3, #1
20000b94:	4463      	add	r3, ip
20000b96:	781a      	ldrb	r2, [r3, #0]
20000b98:	3201      	adds	r2, #1
20000b9a:	701a      	strb	r2, [r3, #0]
20000b9c:	e7d8      	b.n	20000b50 <alarm_pool_alarm_callback+0xf4>
20000b9e:	2300      	movs	r3, #0
20000ba0:	2200      	movs	r2, #0
20000ba2:	9208      	str	r2, [sp, #32]
20000ba4:	9309      	str	r3, [sp, #36]	; 0x24
20000ba6:	2300      	movs	r3, #0
20000ba8:	2700      	movs	r7, #0
20000baa:	469a      	mov	sl, r3
20000bac:	2000      	movs	r0, #0
20000bae:	e790      	b.n	20000ad2 <alarm_pool_alarm_callback+0x76>
20000bb0:	2800      	cmp	r0, #0
20000bb2:	d000      	beq.n	20000bb6 <alarm_pool_alarm_callback+0x15a>
20000bb4:	e75f      	b.n	20000a76 <alarm_pool_alarm_callback+0x1a>
20000bb6:	b00d      	add	sp, #52	; 0x34
20000bb8:	bc3c      	pop	{r2, r3, r4, r5}
20000bba:	4690      	mov	r8, r2
20000bbc:	4699      	mov	r9, r3
20000bbe:	46a2      	mov	sl, r4
20000bc0:	46ab      	mov	fp, r5
20000bc2:	bdf0      	pop	{r4, r5, r6, r7, pc}
20000bc4:	2b00      	cmp	r3, #0
20000bc6:	d102      	bne.n	20000bce <alarm_pool_alarm_callback+0x172>
20000bc8:	2a00      	cmp	r2, #0
20000bca:	d000      	beq.n	20000bce <alarm_pool_alarm_callback+0x172>
20000bcc:	e775      	b.n	20000aba <alarm_pool_alarm_callback+0x5e>
20000bce:	2100      	movs	r1, #0
20000bd0:	4660      	mov	r0, ip
20000bd2:	f000 faad 	bl	20001130 <ph_remove_head>
20000bd6:	4643      	mov	r3, r8
20000bd8:	681a      	ldr	r2, [r3, #0]
20000bda:	685b      	ldr	r3, [r3, #4]
20000bdc:	9208      	str	r2, [sp, #32]
20000bde:	9309      	str	r3, [sp, #36]	; 0x24
20000be0:	4643      	mov	r3, r8
20000be2:	689b      	ldr	r3, [r3, #8]
20000be4:	469a      	mov	sl, r3
20000be6:	4643      	mov	r3, r8
20000be8:	68df      	ldr	r7, [r3, #12]
20000bea:	68e3      	ldr	r3, [r4, #12]
20000bec:	444b      	add	r3, r9
20000bee:	3b01      	subs	r3, #1
20000bf0:	781b      	ldrb	r3, [r3, #0]
20000bf2:	930a      	str	r3, [sp, #40]	; 0x28
20000bf4:	021b      	lsls	r3, r3, #8
20000bf6:	4318      	orrs	r0, r3
20000bf8:	6120      	str	r0, [r4, #16]
20000bfa:	2000      	movs	r0, #0
20000bfc:	e769      	b.n	20000ad2 <alarm_pool_alarm_callback+0x76>
20000bfe:	f000 f8a9 	bl	20000d54 <time_us_64>
20000c02:	9a06      	ldr	r2, [sp, #24]
20000c04:	9b07      	ldr	r3, [sp, #28]
20000c06:	1812      	adds	r2, r2, r0
20000c08:	414b      	adcs	r3, r1
20000c0a:	4299      	cmp	r1, r3
20000c0c:	d804      	bhi.n	20000c18 <alarm_pool_alarm_callback+0x1bc>
20000c0e:	d000      	beq.n	20000c12 <alarm_pool_alarm_callback+0x1b6>
20000c10:	e792      	b.n	20000b38 <alarm_pool_alarm_callback+0xdc>
20000c12:	4290      	cmp	r0, r2
20000c14:	d800      	bhi.n	20000c18 <alarm_pool_alarm_callback+0x1bc>
20000c16:	e78f      	b.n	20000b38 <alarm_pool_alarm_callback+0xdc>
20000c18:	2201      	movs	r2, #1
20000c1a:	4252      	negs	r2, r2
20000c1c:	17d3      	asrs	r3, r2, #31
20000c1e:	e78b      	b.n	20000b38 <alarm_pool_alarm_callback+0xdc>
20000c20:	4295      	cmp	r5, r2
20000c22:	d800      	bhi.n	20000c26 <alarm_pool_alarm_callback+0x1ca>
20000c24:	e788      	b.n	20000b38 <alarm_pool_alarm_callback+0xdc>
20000c26:	2201      	movs	r2, #1
20000c28:	4252      	negs	r2, r2
20000c2a:	17d3      	asrs	r3, r2, #31
20000c2c:	e784      	b.n	20000b38 <alarm_pool_alarm_callback+0xdc>
20000c2e:	46c0      	nop			; (mov r8, r8)
20000c30:	200067e8 	.word	0x200067e8
20000c34:	0fffffff 	.word	0x0fffffff

20000c38 <alarm_pool_init_default>:
20000c38:	b510      	push	{r4, lr}
20000c3a:	4c12      	ldr	r4, [pc, #72]	; (20000c84 <alarm_pool_init_default+0x4c>)
20000c3c:	6863      	ldr	r3, [r4, #4]
20000c3e:	2b00      	cmp	r3, #0
20000c40:	d004      	beq.n	20000c4c <alarm_pool_init_default+0x14>
20000c42:	210a      	movs	r1, #10
20000c44:	4810      	ldr	r0, [pc, #64]	; (20000c88 <alarm_pool_init_default+0x50>)
20000c46:	f7ff fe55 	bl	200008f4 <lock_init>
20000c4a:	bd10      	pop	{r4, pc}
20000c4c:	0023      	movs	r3, r4
20000c4e:	4a0f      	ldr	r2, [pc, #60]	; (20000c8c <alarm_pool_init_default+0x54>)
20000c50:	2110      	movs	r1, #16
20000c52:	6820      	ldr	r0, [r4, #0]
20000c54:	f000 fa4e 	bl	200010f4 <ph_post_alloc_init>
20000c58:	2003      	movs	r0, #3
20000c5a:	f000 f86f 	bl	20000d3c <hardware_alarm_claim>
20000c5e:	2003      	movs	r0, #3
20000c60:	f000 f962 	bl	20000f28 <hardware_alarm_cancel>
20000c64:	490a      	ldr	r1, [pc, #40]	; (20000c90 <alarm_pool_init_default+0x58>)
20000c66:	2003      	movs	r0, #3
20000c68:	f000 f8aa 	bl	20000dc0 <hardware_alarm_set_callback>
20000c6c:	f7ff fb16 	bl	2000029c <next_striped_spin_lock_num>
20000c70:	4b08      	ldr	r3, [pc, #32]	; (20000c94 <alarm_pool_init_default+0x5c>)
20000c72:	469c      	mov	ip, r3
20000c74:	2303      	movs	r3, #3
20000c76:	4460      	add	r0, ip
20000c78:	7523      	strb	r3, [r4, #20]
20000c7a:	4b07      	ldr	r3, [pc, #28]	; (20000c98 <alarm_pool_init_default+0x60>)
20000c7c:	0080      	lsls	r0, r0, #2
20000c7e:	6060      	str	r0, [r4, #4]
20000c80:	60dc      	str	r4, [r3, #12]
20000c82:	e7de      	b.n	20000c42 <alarm_pool_init_default+0xa>
20000c84:	20005c28 	.word	0x20005c28
20000c88:	20006804 	.word	0x20006804
20000c8c:	20000905 	.word	0x20000905
20000c90:	20000a5d 	.word	0x20000a5d
20000c94:	34000040 	.word	0x34000040
20000c98:	200067e8 	.word	0x200067e8

20000c9c <hardware_alarm_irq_handler>:
20000c9c:	b5f8      	push	{r3, r4, r5, r6, r7, lr}
20000c9e:	46ce      	mov	lr, r9
20000ca0:	4647      	mov	r7, r8
20000ca2:	b580      	push	{r7, lr}
20000ca4:	f3ef 8305 	mrs	r3, IPSR
20000ca8:	223f      	movs	r2, #63	; 0x3f
20000caa:	4013      	ands	r3, r2
20000cac:	0018      	movs	r0, r3
20000cae:	3810      	subs	r0, #16
20000cb0:	f3ef 8c10 	mrs	ip, PRIMASK
20000cb4:	b672      	cpsid	i
20000cb6:	491b      	ldr	r1, [pc, #108]	; (20000d24 <hardware_alarm_irq_handler+0x88>)
20000cb8:	680a      	ldr	r2, [r1, #0]
20000cba:	2a00      	cmp	r2, #0
20000cbc:	d0fc      	beq.n	20000cb8 <hardware_alarm_irq_handler+0x1c>
20000cbe:	f3bf 8f5f 	dmb	sy
20000cc2:	2101      	movs	r1, #1
20000cc4:	000f      	movs	r7, r1
20000cc6:	4087      	lsls	r7, r0
20000cc8:	4d17      	ldr	r5, [pc, #92]	; (20000d28 <hardware_alarm_irq_handler+0x8c>)
20000cca:	4a18      	ldr	r2, [pc, #96]	; (20000d2c <hardware_alarm_irq_handler+0x90>)
20000ccc:	636f      	str	r7, [r5, #52]	; 0x34
20000cce:	7814      	ldrb	r4, [r2, #0]
20000cd0:	4691      	mov	r9, r2
20000cd2:	0022      	movs	r2, r4
20000cd4:	40c2      	lsrs	r2, r0
20000cd6:	4690      	mov	r8, r2
20000cd8:	4646      	mov	r6, r8
20000cda:	2200      	movs	r2, #0
20000cdc:	4231      	tst	r1, r6
20000cde:	d00b      	beq.n	20000cf8 <hardware_alarm_irq_handler+0x5c>
20000ce0:	6a69      	ldr	r1, [r5, #36]	; 0x24
20000ce2:	4d13      	ldr	r5, [pc, #76]	; (20000d30 <hardware_alarm_irq_handler+0x94>)
20000ce4:	4688      	mov	r8, r1
20000ce6:	0081      	lsls	r1, r0, #2
20000ce8:	594d      	ldr	r5, [r1, r5]
20000cea:	45a8      	cmp	r8, r5
20000cec:	d312      	bcc.n	20000d14 <hardware_alarm_irq_handler+0x78>
20000cee:	4b11      	ldr	r3, [pc, #68]	; (20000d34 <hardware_alarm_irq_handler+0x98>)
20000cf0:	43bc      	bics	r4, r7
20000cf2:	58ca      	ldr	r2, [r1, r3]
20000cf4:	464b      	mov	r3, r9
20000cf6:	701c      	strb	r4, [r3, #0]
20000cf8:	f3bf 8f5f 	dmb	sy
20000cfc:	2100      	movs	r1, #0
20000cfe:	4b09      	ldr	r3, [pc, #36]	; (20000d24 <hardware_alarm_irq_handler+0x88>)
20000d00:	6019      	str	r1, [r3, #0]
20000d02:	f38c 8810 	msr	PRIMASK, ip
20000d06:	2a00      	cmp	r2, #0
20000d08:	d000      	beq.n	20000d0c <hardware_alarm_irq_handler+0x70>
20000d0a:	4790      	blx	r2
20000d0c:	bc0c      	pop	{r2, r3}
20000d0e:	4690      	mov	r8, r2
20000d10:	4699      	mov	r9, r3
20000d12:	bdf8      	pop	{r3, r4, r5, r6, r7, pc}
20000d14:	4908      	ldr	r1, [pc, #32]	; (20000d38 <hardware_alarm_irq_handler+0x9c>)
20000d16:	009b      	lsls	r3, r3, #2
20000d18:	4688      	mov	r8, r1
20000d1a:	4443      	add	r3, r8
20000d1c:	6819      	ldr	r1, [r3, #0]
20000d1e:	6019      	str	r1, [r3, #0]
20000d20:	e7ea      	b.n	20000cf8 <hardware_alarm_irq_handler+0x5c>
20000d22:	46c0      	nop			; (mov r8, r8)
20000d24:	d0000128 	.word	0xd0000128
20000d28:	40054000 	.word	0x40054000
20000d2c:	2000681f 	.word	0x2000681f
20000d30:	20006808 	.word	0x20006808
20000d34:	20006660 	.word	0x20006660
20000d38:	40053fd0 	.word	0x40053fd0

20000d3c <hardware_alarm_claim>:
20000d3c:	b510      	push	{r4, lr}
20000d3e:	0001      	movs	r1, r0
20000d40:	4a02      	ldr	r2, [pc, #8]	; (20000d4c <hardware_alarm_claim+0x10>)
20000d42:	4803      	ldr	r0, [pc, #12]	; (20000d50 <hardware_alarm_claim+0x14>)
20000d44:	f7ff fa72 	bl	2000022c <hw_claim_or_assert>
20000d48:	bd10      	pop	{r4, pc}
20000d4a:	46c0      	nop			; (mov r8, r8)
20000d4c:	20005868 	.word	0x20005868
20000d50:	2000681d 	.word	0x2000681d

20000d54 <time_us_64>:
20000d54:	4a04      	ldr	r2, [pc, #16]	; (20000d68 <time_us_64+0x14>)
20000d56:	6a51      	ldr	r1, [r2, #36]	; 0x24
20000d58:	e000      	b.n	20000d5c <time_us_64+0x8>
20000d5a:	0019      	movs	r1, r3
20000d5c:	6a90      	ldr	r0, [r2, #40]	; 0x28
20000d5e:	6a53      	ldr	r3, [r2, #36]	; 0x24
20000d60:	4299      	cmp	r1, r3
20000d62:	d1fa      	bne.n	20000d5a <time_us_64+0x6>
20000d64:	4770      	bx	lr
20000d66:	46c0      	nop			; (mov r8, r8)
20000d68:	40054000 	.word	0x40054000

20000d6c <busy_wait_us>:
20000d6c:	4a13      	ldr	r2, [pc, #76]	; (20000dbc <busy_wait_us+0x50>)
20000d6e:	b530      	push	{r4, r5, lr}
20000d70:	6a54      	ldr	r4, [r2, #36]	; 0x24
20000d72:	e000      	b.n	20000d76 <busy_wait_us+0xa>
20000d74:	001c      	movs	r4, r3
20000d76:	6a95      	ldr	r5, [r2, #40]	; 0x28
20000d78:	6a53      	ldr	r3, [r2, #36]	; 0x24
20000d7a:	42a3      	cmp	r3, r4
20000d7c:	d1fa      	bne.n	20000d74 <busy_wait_us+0x8>
20000d7e:	002a      	movs	r2, r5
20000d80:	0023      	movs	r3, r4
20000d82:	1880      	adds	r0, r0, r2
20000d84:	4159      	adcs	r1, r3
20000d86:	428c      	cmp	r4, r1
20000d88:	d811      	bhi.n	20000dae <busy_wait_us+0x42>
20000d8a:	d00e      	beq.n	20000daa <busy_wait_us+0x3e>
20000d8c:	000c      	movs	r4, r1
20000d8e:	4a0b      	ldr	r2, [pc, #44]	; (20000dbc <busy_wait_us+0x50>)
20000d90:	6a53      	ldr	r3, [r2, #36]	; 0x24
20000d92:	42a3      	cmp	r3, r4
20000d94:	d3fc      	bcc.n	20000d90 <busy_wait_us+0x24>
20000d96:	d107      	bne.n	20000da8 <busy_wait_us+0x3c>
20000d98:	4a08      	ldr	r2, [pc, #32]	; (20000dbc <busy_wait_us+0x50>)
20000d9a:	e002      	b.n	20000da2 <busy_wait_us+0x36>
20000d9c:	6a51      	ldr	r1, [r2, #36]	; 0x24
20000d9e:	4299      	cmp	r1, r3
20000da0:	d102      	bne.n	20000da8 <busy_wait_us+0x3c>
20000da2:	6a91      	ldr	r1, [r2, #40]	; 0x28
20000da4:	4281      	cmp	r1, r0
20000da6:	d3f9      	bcc.n	20000d9c <busy_wait_us+0x30>
20000da8:	bd30      	pop	{r4, r5, pc}
20000daa:	4285      	cmp	r5, r0
20000dac:	d9ee      	bls.n	20000d8c <busy_wait_us+0x20>
20000dae:	2401      	movs	r4, #1
20000db0:	2001      	movs	r0, #1
20000db2:	4240      	negs	r0, r0
20000db4:	17c1      	asrs	r1, r0, #31
20000db6:	4264      	negs	r4, r4
20000db8:	e7e9      	b.n	20000d8e <busy_wait_us+0x22>
20000dba:	46c0      	nop			; (mov r8, r8)
20000dbc:	40054000 	.word	0x40054000

20000dc0 <hardware_alarm_set_callback>:
20000dc0:	b570      	push	{r4, r5, r6, lr}
20000dc2:	0004      	movs	r4, r0
20000dc4:	000d      	movs	r5, r1
20000dc6:	f3ef 8610 	mrs	r6, PRIMASK
20000dca:	b672      	cpsid	i
20000dcc:	4a1a      	ldr	r2, [pc, #104]	; (20000e38 <hardware_alarm_set_callback+0x78>)
20000dce:	6813      	ldr	r3, [r2, #0]
20000dd0:	2b00      	cmp	r3, #0
20000dd2:	d0fc      	beq.n	20000dce <hardware_alarm_set_callback+0xe>
20000dd4:	f3bf 8f5f 	dmb	sy
20000dd8:	2d00      	cmp	r5, #0
20000dda:	d01b      	beq.n	20000e14 <hardware_alarm_set_callback+0x54>
20000ddc:	0020      	movs	r0, r4
20000dde:	f7ff fbfd 	bl	200005dc <irq_get_vtable_handler>
20000de2:	4916      	ldr	r1, [pc, #88]	; (20000e3c <hardware_alarm_set_callback+0x7c>)
20000de4:	4288      	cmp	r0, r1
20000de6:	d00a      	beq.n	20000dfe <hardware_alarm_set_callback+0x3e>
20000de8:	0020      	movs	r0, r4
20000dea:	f7ff fbff 	bl	200005ec <irq_set_exclusive_handler>
20000dee:	2101      	movs	r1, #1
20000df0:	0020      	movs	r0, r4
20000df2:	f7ff fbe1 	bl	200005b8 <irq_set_enabled>
20000df6:	2301      	movs	r3, #1
20000df8:	40a3      	lsls	r3, r4
20000dfa:	4a11      	ldr	r2, [pc, #68]	; (20000e40 <hardware_alarm_set_callback+0x80>)
20000dfc:	6013      	str	r3, [r2, #0]
20000dfe:	4b11      	ldr	r3, [pc, #68]	; (20000e44 <hardware_alarm_set_callback+0x84>)
20000e00:	00a4      	lsls	r4, r4, #2
20000e02:	50e5      	str	r5, [r4, r3]
20000e04:	f3bf 8f5f 	dmb	sy
20000e08:	2200      	movs	r2, #0
20000e0a:	4b0b      	ldr	r3, [pc, #44]	; (20000e38 <hardware_alarm_set_callback+0x78>)
20000e0c:	601a      	str	r2, [r3, #0]
20000e0e:	f386 8810 	msr	PRIMASK, r6
20000e12:	bd70      	pop	{r4, r5, r6, pc}
20000e14:	4b0b      	ldr	r3, [pc, #44]	; (20000e44 <hardware_alarm_set_callback+0x84>)
20000e16:	00a2      	lsls	r2, r4, #2
20000e18:	50d5      	str	r5, [r2, r3]
20000e1a:	2201      	movs	r2, #1
20000e1c:	40a2      	lsls	r2, r4
20000e1e:	490a      	ldr	r1, [pc, #40]	; (20000e48 <hardware_alarm_set_callback+0x88>)
20000e20:	0020      	movs	r0, r4
20000e22:	780b      	ldrb	r3, [r1, #0]
20000e24:	4393      	bics	r3, r2
20000e26:	700b      	strb	r3, [r1, #0]
20000e28:	4904      	ldr	r1, [pc, #16]	; (20000e3c <hardware_alarm_set_callback+0x7c>)
20000e2a:	f7ff fc09 	bl	20000640 <irq_remove_handler>
20000e2e:	2100      	movs	r1, #0
20000e30:	0020      	movs	r0, r4
20000e32:	f7ff fbc1 	bl	200005b8 <irq_set_enabled>
20000e36:	e7e5      	b.n	20000e04 <hardware_alarm_set_callback+0x44>
20000e38:	d0000128 	.word	0xd0000128
20000e3c:	20000c9d 	.word	0x20000c9d
20000e40:	40056038 	.word	0x40056038
20000e44:	20006660 	.word	0x20006660
20000e48:	2000681f 	.word	0x2000681f

20000e4c <hardware_alarm_set_target>:
20000e4c:	b5f0      	push	{r4, r5, r6, r7, lr}
20000e4e:	46d6      	mov	lr, sl
20000e50:	464f      	mov	r7, r9
20000e52:	4646      	mov	r6, r8
20000e54:	4c2f      	ldr	r4, [pc, #188]	; (20000f14 <hardware_alarm_set_target+0xc8>)
20000e56:	b5c0      	push	{r6, r7, lr}
20000e58:	6a65      	ldr	r5, [r4, #36]	; 0x24
20000e5a:	e000      	b.n	20000e5e <hardware_alarm_set_target+0x12>
20000e5c:	000d      	movs	r5, r1
20000e5e:	6aa6      	ldr	r6, [r4, #40]	; 0x28
20000e60:	6a61      	ldr	r1, [r4, #36]	; 0x24
20000e62:	42a9      	cmp	r1, r5
20000e64:	d1fa      	bne.n	20000e5c <hardware_alarm_set_target+0x10>
20000e66:	42ab      	cmp	r3, r5
20000e68:	d949      	bls.n	20000efe <hardware_alarm_set_target+0xb2>
20000e6a:	f3ef 8910 	mrs	r9, PRIMASK
20000e6e:	b672      	cpsid	i
20000e70:	4c29      	ldr	r4, [pc, #164]	; (20000f18 <hardware_alarm_set_target+0xcc>)
20000e72:	6821      	ldr	r1, [r4, #0]
20000e74:	2900      	cmp	r1, #0
20000e76:	d0fc      	beq.n	20000e72 <hardware_alarm_set_target+0x26>
20000e78:	f3bf 8f5f 	dmb	sy
20000e7c:	2601      	movs	r6, #1
20000e7e:	4927      	ldr	r1, [pc, #156]	; (20000f1c <hardware_alarm_set_target+0xd0>)
20000e80:	4086      	lsls	r6, r0
20000e82:	468c      	mov	ip, r1
20000e84:	7809      	ldrb	r1, [r1, #0]
20000e86:	4d26      	ldr	r5, [pc, #152]	; (20000f20 <hardware_alarm_set_target+0xd4>)
20000e88:	000f      	movs	r7, r1
20000e8a:	4337      	orrs	r7, r6
20000e8c:	4688      	mov	r8, r1
20000e8e:	b2f9      	uxtb	r1, r7
20000e90:	468a      	mov	sl, r1
20000e92:	4661      	mov	r1, ip
20000e94:	4654      	mov	r4, sl
20000e96:	700c      	strb	r4, [r1, #0]
20000e98:	491e      	ldr	r1, [pc, #120]	; (20000f14 <hardware_alarm_set_target+0xc8>)
20000e9a:	1d04      	adds	r4, r0, #4
20000e9c:	00a4      	lsls	r4, r4, #2
20000e9e:	634e      	str	r6, [r1, #52]	; 0x34
20000ea0:	5062      	str	r2, [r4, r1]
20000ea2:	0084      	lsls	r4, r0, #2
20000ea4:	5163      	str	r3, [r4, r5]
20000ea6:	6a0d      	ldr	r5, [r1, #32]
20000ea8:	2400      	movs	r4, #0
20000eaa:	4235      	tst	r5, r6
20000eac:	d01a      	beq.n	20000ee4 <hardware_alarm_set_target+0x98>
20000eae:	6a4d      	ldr	r5, [r1, #36]	; 0x24
20000eb0:	e000      	b.n	20000eb4 <hardware_alarm_set_target+0x68>
20000eb2:	0025      	movs	r5, r4
20000eb4:	6a8f      	ldr	r7, [r1, #40]	; 0x28
20000eb6:	6a4c      	ldr	r4, [r1, #36]	; 0x24
20000eb8:	42ac      	cmp	r4, r5
20000eba:	d1fa      	bne.n	20000eb2 <hardware_alarm_set_target+0x66>
20000ebc:	42ab      	cmp	r3, r5
20000ebe:	d824      	bhi.n	20000f0a <hardware_alarm_set_target+0xbe>
20000ec0:	d101      	bne.n	20000ec6 <hardware_alarm_set_target+0x7a>
20000ec2:	42ba      	cmp	r2, r7
20000ec4:	d821      	bhi.n	20000f0a <hardware_alarm_set_target+0xbe>
20000ec6:	45d0      	cmp	r8, sl
20000ec8:	d021      	beq.n	20000f0e <hardware_alarm_set_target+0xc2>
20000eca:	4b12      	ldr	r3, [pc, #72]	; (20000f14 <hardware_alarm_set_target+0xc8>)
20000ecc:	4a15      	ldr	r2, [pc, #84]	; (20000f24 <hardware_alarm_set_target+0xd8>)
20000ece:	621e      	str	r6, [r3, #32]
20000ed0:	635e      	str	r6, [r3, #52]	; 0x34
20000ed2:	231f      	movs	r3, #31
20000ed4:	4018      	ands	r0, r3
20000ed6:	3b1e      	subs	r3, #30
20000ed8:	4083      	lsls	r3, r0
20000eda:	6013      	str	r3, [r2, #0]
20000edc:	4663      	mov	r3, ip
20000ede:	4642      	mov	r2, r8
20000ee0:	2401      	movs	r4, #1
20000ee2:	701a      	strb	r2, [r3, #0]
20000ee4:	f3bf 8f5f 	dmb	sy
20000ee8:	2200      	movs	r2, #0
20000eea:	4b0b      	ldr	r3, [pc, #44]	; (20000f18 <hardware_alarm_set_target+0xcc>)
20000eec:	601a      	str	r2, [r3, #0]
20000eee:	f389 8810 	msr	PRIMASK, r9
20000ef2:	0020      	movs	r0, r4
20000ef4:	bc1c      	pop	{r2, r3, r4}
20000ef6:	4690      	mov	r8, r2
20000ef8:	4699      	mov	r9, r3
20000efa:	46a2      	mov	sl, r4
20000efc:	bdf0      	pop	{r4, r5, r6, r7, pc}
20000efe:	42ab      	cmp	r3, r5
20000f00:	d101      	bne.n	20000f06 <hardware_alarm_set_target+0xba>
20000f02:	42b2      	cmp	r2, r6
20000f04:	d8b1      	bhi.n	20000e6a <hardware_alarm_set_target+0x1e>
20000f06:	2401      	movs	r4, #1
20000f08:	e7f3      	b.n	20000ef2 <hardware_alarm_set_target+0xa6>
20000f0a:	2400      	movs	r4, #0
20000f0c:	e7ea      	b.n	20000ee4 <hardware_alarm_set_target+0x98>
20000f0e:	2401      	movs	r4, #1
20000f10:	e7e8      	b.n	20000ee4 <hardware_alarm_set_target+0x98>
20000f12:	46c0      	nop			; (mov r8, r8)
20000f14:	40054000 	.word	0x40054000
20000f18:	d0000128 	.word	0xd0000128
20000f1c:	2000681f 	.word	0x2000681f
20000f20:	20006808 	.word	0x20006808
20000f24:	e000e280 	.word	0xe000e280

20000f28 <hardware_alarm_cancel>:
20000f28:	b510      	push	{r4, lr}
20000f2a:	f3ef 8410 	mrs	r4, PRIMASK
20000f2e:	b672      	cpsid	i
20000f30:	490a      	ldr	r1, [pc, #40]	; (20000f5c <hardware_alarm_cancel+0x34>)
20000f32:	680b      	ldr	r3, [r1, #0]
20000f34:	2b00      	cmp	r3, #0
20000f36:	d0fc      	beq.n	20000f32 <hardware_alarm_cancel+0xa>
20000f38:	f3bf 8f5f 	dmb	sy
20000f3c:	2301      	movs	r3, #1
20000f3e:	4083      	lsls	r3, r0
20000f40:	4a07      	ldr	r2, [pc, #28]	; (20000f60 <hardware_alarm_cancel+0x38>)
20000f42:	4808      	ldr	r0, [pc, #32]	; (20000f64 <hardware_alarm_cancel+0x3c>)
20000f44:	6213      	str	r3, [r2, #32]
20000f46:	7802      	ldrb	r2, [r0, #0]
20000f48:	439a      	bics	r2, r3
20000f4a:	7002      	strb	r2, [r0, #0]
20000f4c:	f3bf 8f5f 	dmb	sy
20000f50:	2300      	movs	r3, #0
20000f52:	600b      	str	r3, [r1, #0]
20000f54:	f384 8810 	msr	PRIMASK, r4
20000f58:	bd10      	pop	{r4, pc}
20000f5a:	46c0      	nop			; (mov r8, r8)
20000f5c:	d0000128 	.word	0xd0000128
20000f60:	40054000 	.word	0x40054000
20000f64:	2000681f 	.word	0x2000681f

20000f68 <ph_merge_two_pass.part.3>:
20000f68:	b5f8      	push	{r3, r4, r5, r6, r7, lr}
20000f6a:	464e      	mov	r6, r9
20000f6c:	4645      	mov	r5, r8
20000f6e:	46de      	mov	lr, fp
20000f70:	4657      	mov	r7, sl
20000f72:	b5e0      	push	{r5, r6, r7, lr}
20000f74:	004c      	lsls	r4, r1, #1
20000f76:	1864      	adds	r4, r4, r1
20000f78:	6803      	ldr	r3, [r0, #0]
20000f7a:	3c03      	subs	r4, #3
20000f7c:	191a      	adds	r2, r3, r4
20000f7e:	000d      	movs	r5, r1
20000f80:	7851      	ldrb	r1, [r2, #1]
20000f82:	0006      	movs	r6, r0
20000f84:	4689      	mov	r9, r1
20000f86:	2900      	cmp	r1, #0
20000f88:	d106      	bne.n	20000f98 <ph_merge_two_pass.part.3+0x30>
20000f8a:	0028      	movs	r0, r5
20000f8c:	bc3c      	pop	{r2, r3, r4, r5}
20000f8e:	4690      	mov	r8, r2
20000f90:	4699      	mov	r9, r3
20000f92:	46a2      	mov	sl, r4
20000f94:	46ab      	mov	fp, r5
20000f96:	bdf8      	pop	{r3, r4, r5, r6, r7, pc}
20000f98:	004f      	lsls	r7, r1, #1
20000f9a:	444f      	add	r7, r9
20000f9c:	3f03      	subs	r7, #3
20000f9e:	19d8      	adds	r0, r3, r7
20000fa0:	7841      	ldrb	r1, [r0, #1]
20000fa2:	4688      	mov	r8, r1
20000fa4:	2100      	movs	r1, #0
20000fa6:	7041      	strb	r1, [r0, #1]
20000fa8:	7051      	strb	r1, [r2, #1]
20000faa:	2d00      	cmp	r5, #0
20000fac:	d012      	beq.n	20000fd4 <ph_merge_two_pass.part.3+0x6c>
20000fae:	6873      	ldr	r3, [r6, #4]
20000fb0:	464a      	mov	r2, r9
20000fb2:	0029      	movs	r1, r5
20000fb4:	68b0      	ldr	r0, [r6, #8]
20000fb6:	4798      	blx	r3
20000fb8:	6833      	ldr	r3, [r6, #0]
20000fba:	2800      	cmp	r0, #0
20000fbc:	d073      	beq.n	200010a6 <ph_merge_two_pass.part.3+0x13e>
20000fbe:	19df      	adds	r7, r3, r7
20000fc0:	191a      	adds	r2, r3, r4
20000fc2:	70bd      	strb	r5, [r7, #2]
20000fc4:	7811      	ldrb	r1, [r2, #0]
20000fc6:	2900      	cmp	r1, #0
20000fc8:	d000      	beq.n	20000fcc <ph_merge_two_pass.part.3+0x64>
20000fca:	7079      	strb	r1, [r7, #1]
20000fcc:	4649      	mov	r1, r9
20000fce:	0027      	movs	r7, r4
20000fd0:	7011      	strb	r1, [r2, #0]
20000fd2:	e000      	b.n	20000fd6 <ph_merge_two_pass.part.3+0x6e>
20000fd4:	464d      	mov	r5, r9
20000fd6:	4642      	mov	r2, r8
20000fd8:	2a00      	cmp	r2, #0
20000fda:	d0d6      	beq.n	20000f8a <ph_merge_two_pass.part.3+0x22>
20000fdc:	0054      	lsls	r4, r2, #1
20000fde:	4444      	add	r4, r8
20000fe0:	3c03      	subs	r4, #3
20000fe2:	191a      	adds	r2, r3, r4
20000fe4:	7851      	ldrb	r1, [r2, #1]
20000fe6:	4689      	mov	r9, r1
20000fe8:	2900      	cmp	r1, #0
20000fea:	d111      	bne.n	20001010 <ph_merge_two_pass.part.3+0xa8>
20000fec:	6873      	ldr	r3, [r6, #4]
20000fee:	4642      	mov	r2, r8
20000ff0:	0029      	movs	r1, r5
20000ff2:	68b0      	ldr	r0, [r6, #8]
20000ff4:	4798      	blx	r3
20000ff6:	6833      	ldr	r3, [r6, #0]
20000ff8:	2800      	cmp	r0, #0
20000ffa:	d049      	beq.n	20001090 <ph_merge_two_pass.part.3+0x128>
20000ffc:	191c      	adds	r4, r3, r4
20000ffe:	19df      	adds	r7, r3, r7
20001000:	70a5      	strb	r5, [r4, #2]
20001002:	783b      	ldrb	r3, [r7, #0]
20001004:	2b00      	cmp	r3, #0
20001006:	d000      	beq.n	2000100a <ph_merge_two_pass.part.3+0xa2>
20001008:	7063      	strb	r3, [r4, #1]
2000100a:	4643      	mov	r3, r8
2000100c:	703b      	strb	r3, [r7, #0]
2000100e:	e7bc      	b.n	20000f8a <ph_merge_two_pass.part.3+0x22>
20001010:	0049      	lsls	r1, r1, #1
20001012:	4449      	add	r1, r9
20001014:	3903      	subs	r1, #3
20001016:	468a      	mov	sl, r1
20001018:	4453      	add	r3, sl
2000101a:	7859      	ldrb	r1, [r3, #1]
2000101c:	468b      	mov	fp, r1
2000101e:	2100      	movs	r1, #0
20001020:	7059      	strb	r1, [r3, #1]
20001022:	7051      	strb	r1, [r2, #1]
20001024:	6873      	ldr	r3, [r6, #4]
20001026:	464a      	mov	r2, r9
20001028:	4641      	mov	r1, r8
2000102a:	68b0      	ldr	r0, [r6, #8]
2000102c:	4798      	blx	r3
2000102e:	6833      	ldr	r3, [r6, #0]
20001030:	2800      	cmp	r0, #0
20001032:	d143      	bne.n	200010bc <ph_merge_two_pass.part.3+0x154>
20001034:	4652      	mov	r2, sl
20001036:	191c      	adds	r4, r3, r4
20001038:	189a      	adds	r2, r3, r2
2000103a:	464b      	mov	r3, r9
2000103c:	70a3      	strb	r3, [r4, #2]
2000103e:	7813      	ldrb	r3, [r2, #0]
20001040:	2b00      	cmp	r3, #0
20001042:	d000      	beq.n	20001046 <ph_merge_two_pass.part.3+0xde>
20001044:	7063      	strb	r3, [r4, #1]
20001046:	4643      	mov	r3, r8
20001048:	4654      	mov	r4, sl
2000104a:	46c8      	mov	r8, r9
2000104c:	7013      	strb	r3, [r2, #0]
2000104e:	465b      	mov	r3, fp
20001050:	2b00      	cmp	r3, #0
20001052:	d0cb      	beq.n	20000fec <ph_merge_two_pass.part.3+0x84>
20001054:	4659      	mov	r1, fp
20001056:	0030      	movs	r0, r6
20001058:	f7ff ff86 	bl	20000f68 <ph_merge_two_pass.part.3>
2000105c:	4681      	mov	r9, r0
2000105e:	2800      	cmp	r0, #0
20001060:	d0c4      	beq.n	20000fec <ph_merge_two_pass.part.3+0x84>
20001062:	0002      	movs	r2, r0
20001064:	4641      	mov	r1, r8
20001066:	68b0      	ldr	r0, [r6, #8]
20001068:	6873      	ldr	r3, [r6, #4]
2000106a:	4798      	blx	r3
2000106c:	6832      	ldr	r2, [r6, #0]
2000106e:	2800      	cmp	r0, #0
20001070:	d02f      	beq.n	200010d2 <ph_merge_two_pass.part.3+0x16a>
20001072:	464b      	mov	r3, r9
20001074:	005b      	lsls	r3, r3, #1
20001076:	444b      	add	r3, r9
20001078:	3b03      	subs	r3, #3
2000107a:	1911      	adds	r1, r2, r4
2000107c:	18d3      	adds	r3, r2, r3
2000107e:	4642      	mov	r2, r8
20001080:	709a      	strb	r2, [r3, #2]
20001082:	780a      	ldrb	r2, [r1, #0]
20001084:	2a00      	cmp	r2, #0
20001086:	d000      	beq.n	2000108a <ph_merge_two_pass.part.3+0x122>
20001088:	705a      	strb	r2, [r3, #1]
2000108a:	464b      	mov	r3, r9
2000108c:	700b      	strb	r3, [r1, #0]
2000108e:	e7ad      	b.n	20000fec <ph_merge_two_pass.part.3+0x84>
20001090:	191c      	adds	r4, r3, r4
20001092:	19df      	adds	r7, r3, r7
20001094:	4643      	mov	r3, r8
20001096:	70bb      	strb	r3, [r7, #2]
20001098:	7823      	ldrb	r3, [r4, #0]
2000109a:	2b00      	cmp	r3, #0
2000109c:	d000      	beq.n	200010a0 <ph_merge_two_pass.part.3+0x138>
2000109e:	707b      	strb	r3, [r7, #1]
200010a0:	7025      	strb	r5, [r4, #0]
200010a2:	4645      	mov	r5, r8
200010a4:	e771      	b.n	20000f8a <ph_merge_two_pass.part.3+0x22>
200010a6:	4649      	mov	r1, r9
200010a8:	191c      	adds	r4, r3, r4
200010aa:	19da      	adds	r2, r3, r7
200010ac:	70a1      	strb	r1, [r4, #2]
200010ae:	7811      	ldrb	r1, [r2, #0]
200010b0:	2900      	cmp	r1, #0
200010b2:	d000      	beq.n	200010b6 <ph_merge_two_pass.part.3+0x14e>
200010b4:	7061      	strb	r1, [r4, #1]
200010b6:	7015      	strb	r5, [r2, #0]
200010b8:	464d      	mov	r5, r9
200010ba:	e78c      	b.n	20000fd6 <ph_merge_two_pass.part.3+0x6e>
200010bc:	4641      	mov	r1, r8
200010be:	191a      	adds	r2, r3, r4
200010c0:	4453      	add	r3, sl
200010c2:	7099      	strb	r1, [r3, #2]
200010c4:	7811      	ldrb	r1, [r2, #0]
200010c6:	2900      	cmp	r1, #0
200010c8:	d000      	beq.n	200010cc <ph_merge_two_pass.part.3+0x164>
200010ca:	7059      	strb	r1, [r3, #1]
200010cc:	464b      	mov	r3, r9
200010ce:	7013      	strb	r3, [r2, #0]
200010d0:	e7bd      	b.n	2000104e <ph_merge_two_pass.part.3+0xe6>
200010d2:	464b      	mov	r3, r9
200010d4:	005b      	lsls	r3, r3, #1
200010d6:	444b      	add	r3, r9
200010d8:	3b03      	subs	r3, #3
200010da:	18d1      	adds	r1, r2, r3
200010dc:	1914      	adds	r4, r2, r4
200010de:	464a      	mov	r2, r9
200010e0:	70a2      	strb	r2, [r4, #2]
200010e2:	780a      	ldrb	r2, [r1, #0]
200010e4:	2a00      	cmp	r2, #0
200010e6:	d000      	beq.n	200010ea <ph_merge_two_pass.part.3+0x182>
200010e8:	7062      	strb	r2, [r4, #1]
200010ea:	4642      	mov	r2, r8
200010ec:	001c      	movs	r4, r3
200010ee:	700a      	strb	r2, [r1, #0]
200010f0:	46c8      	mov	r8, r9
200010f2:	e77b      	b.n	20000fec <ph_merge_two_pass.part.3+0x84>

200010f4 <ph_post_alloc_init>:
200010f4:	b510      	push	{r4, lr}
200010f6:	6083      	str	r3, [r0, #8]
200010f8:	2300      	movs	r3, #0
200010fa:	b2cc      	uxtb	r4, r1
200010fc:	7343      	strb	r3, [r0, #13]
200010fe:	3301      	adds	r3, #1
20001100:	7304      	strb	r4, [r0, #12]
20001102:	6042      	str	r2, [r0, #4]
20001104:	7383      	strb	r3, [r0, #14]
20001106:	73c4      	strb	r4, [r0, #15]
20001108:	6800      	ldr	r0, [r0, #0]
2000110a:	2c01      	cmp	r4, #1
2000110c:	d907      	bls.n	2000111e <ph_post_alloc_init+0x2a>
2000110e:	2301      	movs	r3, #1
20001110:	1c42      	adds	r2, r0, #1
20001112:	3301      	adds	r3, #1
20001114:	b2db      	uxtb	r3, r3
20001116:	7013      	strb	r3, [r2, #0]
20001118:	3203      	adds	r2, #3
2000111a:	429c      	cmp	r4, r3
2000111c:	d8f9      	bhi.n	20001112 <ph_post_alloc_init+0x1e>
2000111e:	23ff      	movs	r3, #255	; 0xff
20001120:	4019      	ands	r1, r3
20001122:	004b      	lsls	r3, r1, #1
20001124:	1859      	adds	r1, r3, r1
20001126:	2300      	movs	r3, #0
20001128:	1840      	adds	r0, r0, r1
2000112a:	3803      	subs	r0, #3
2000112c:	7043      	strb	r3, [r0, #1]
2000112e:	bd10      	pop	{r4, pc}

20001130 <ph_remove_head>:
20001130:	b5f0      	push	{r4, r5, r6, r7, lr}
20001132:	464e      	mov	r6, r9
20001134:	4657      	mov	r7, sl
20001136:	4645      	mov	r5, r8
20001138:	46de      	mov	lr, fp
2000113a:	b5e0      	push	{r5, r6, r7, lr}
2000113c:	7b47      	ldrb	r7, [r0, #13]
2000113e:	6803      	ldr	r3, [r0, #0]
20001140:	007c      	lsls	r4, r7, #1
20001142:	19e4      	adds	r4, r4, r7
20001144:	3c03      	subs	r4, #3
20001146:	191a      	adds	r2, r3, r4
20001148:	7816      	ldrb	r6, [r2, #0]
2000114a:	b083      	sub	sp, #12
2000114c:	0005      	movs	r5, r0
2000114e:	4689      	mov	r9, r1
20001150:	2e00      	cmp	r6, #0
20001152:	d11e      	bne.n	20001192 <ph_remove_head+0x62>
20001154:	2900      	cmp	r1, #0
20001156:	d011      	beq.n	2000117c <ph_remove_head+0x4c>
20001158:	7bc0      	ldrb	r0, [r0, #15]
2000115a:	2800      	cmp	r0, #0
2000115c:	d069      	beq.n	20001232 <ph_remove_head+0x102>
2000115e:	0041      	lsls	r1, r0, #1
20001160:	1809      	adds	r1, r1, r0
20001162:	1859      	adds	r1, r3, r1
20001164:	3903      	subs	r1, #3
20001166:	704f      	strb	r7, [r1, #1]
20001168:	73ef      	strb	r7, [r5, #15]
2000116a:	2e00      	cmp	r6, #0
2000116c:	d006      	beq.n	2000117c <ph_remove_head+0x4c>
2000116e:	0071      	lsls	r1, r6, #1
20001170:	1989      	adds	r1, r1, r6
20001172:	3903      	subs	r1, #3
20001174:	4688      	mov	r8, r1
20001176:	2100      	movs	r1, #0
20001178:	4443      	add	r3, r8
2000117a:	7099      	strb	r1, [r3, #2]
2000117c:	2300      	movs	r3, #0
2000117e:	0038      	movs	r0, r7
20001180:	7053      	strb	r3, [r2, #1]
20001182:	736e      	strb	r6, [r5, #13]
20001184:	b003      	add	sp, #12
20001186:	bc3c      	pop	{r2, r3, r4, r5}
20001188:	4690      	mov	r8, r2
2000118a:	4699      	mov	r9, r3
2000118c:	46a2      	mov	sl, r4
2000118e:	46ab      	mov	fp, r5
20001190:	bdf0      	pop	{r4, r5, r6, r7, pc}
20001192:	0071      	lsls	r1, r6, #1
20001194:	1989      	adds	r1, r1, r6
20001196:	3903      	subs	r1, #3
20001198:	4688      	mov	r8, r1
2000119a:	1859      	adds	r1, r3, r1
2000119c:	7848      	ldrb	r0, [r1, #1]
2000119e:	4682      	mov	sl, r0
200011a0:	2800      	cmp	r0, #0
200011a2:	d107      	bne.n	200011b4 <ph_remove_head+0x84>
200011a4:	4649      	mov	r1, r9
200011a6:	2900      	cmp	r1, #0
200011a8:	d0e5      	beq.n	20001176 <ph_remove_head+0x46>
200011aa:	7be8      	ldrb	r0, [r5, #15]
200011ac:	2800      	cmp	r0, #0
200011ae:	d1d6      	bne.n	2000115e <ph_remove_head+0x2e>
200011b0:	73ef      	strb	r7, [r5, #15]
200011b2:	e7dc      	b.n	2000116e <ph_remove_head+0x3e>
200011b4:	0042      	lsls	r2, r0, #1
200011b6:	4452      	add	r2, sl
200011b8:	3a03      	subs	r2, #3
200011ba:	4694      	mov	ip, r2
200011bc:	9201      	str	r2, [sp, #4]
200011be:	4463      	add	r3, ip
200011c0:	785a      	ldrb	r2, [r3, #1]
200011c2:	4693      	mov	fp, r2
200011c4:	2200      	movs	r2, #0
200011c6:	705a      	strb	r2, [r3, #1]
200011c8:	704a      	strb	r2, [r1, #1]
200011ca:	686b      	ldr	r3, [r5, #4]
200011cc:	4652      	mov	r2, sl
200011ce:	0031      	movs	r1, r6
200011d0:	68a8      	ldr	r0, [r5, #8]
200011d2:	4798      	blx	r3
200011d4:	682b      	ldr	r3, [r5, #0]
200011d6:	2800      	cmp	r0, #0
200011d8:	d032      	beq.n	20001240 <ph_remove_head+0x110>
200011da:	4641      	mov	r1, r8
200011dc:	9801      	ldr	r0, [sp, #4]
200011de:	185a      	adds	r2, r3, r1
200011e0:	1819      	adds	r1, r3, r0
200011e2:	708e      	strb	r6, [r1, #2]
200011e4:	7810      	ldrb	r0, [r2, #0]
200011e6:	2800      	cmp	r0, #0
200011e8:	d125      	bne.n	20001236 <ph_remove_head+0x106>
200011ea:	4651      	mov	r1, sl
200011ec:	7011      	strb	r1, [r2, #0]
200011ee:	465a      	mov	r2, fp
200011f0:	2a00      	cmp	r2, #0
200011f2:	d023      	beq.n	2000123c <ph_remove_head+0x10c>
200011f4:	4659      	mov	r1, fp
200011f6:	0028      	movs	r0, r5
200011f8:	f7ff feb6 	bl	20000f68 <ph_merge_two_pass.part.3>
200011fc:	4682      	mov	sl, r0
200011fe:	2800      	cmp	r0, #0
20001200:	d01b      	beq.n	2000123a <ph_remove_head+0x10a>
20001202:	0002      	movs	r2, r0
20001204:	686b      	ldr	r3, [r5, #4]
20001206:	0031      	movs	r1, r6
20001208:	68a8      	ldr	r0, [r5, #8]
2000120a:	4798      	blx	r3
2000120c:	682b      	ldr	r3, [r5, #0]
2000120e:	2800      	cmp	r0, #0
20001210:	d025      	beq.n	2000125e <ph_remove_head+0x12e>
20001212:	4642      	mov	r2, r8
20001214:	1899      	adds	r1, r3, r2
20001216:	4652      	mov	r2, sl
20001218:	0052      	lsls	r2, r2, #1
2000121a:	4452      	add	r2, sl
2000121c:	3a03      	subs	r2, #3
2000121e:	189a      	adds	r2, r3, r2
20001220:	7096      	strb	r6, [r2, #2]
20001222:	7808      	ldrb	r0, [r1, #0]
20001224:	2800      	cmp	r0, #0
20001226:	d000      	beq.n	2000122a <ph_remove_head+0xfa>
20001228:	7050      	strb	r0, [r2, #1]
2000122a:	4652      	mov	r2, sl
2000122c:	700a      	strb	r2, [r1, #0]
2000122e:	191a      	adds	r2, r3, r4
20001230:	e7b8      	b.n	200011a4 <ph_remove_head+0x74>
20001232:	73ef      	strb	r7, [r5, #15]
20001234:	e7a2      	b.n	2000117c <ph_remove_head+0x4c>
20001236:	7048      	strb	r0, [r1, #1]
20001238:	e7d7      	b.n	200011ea <ph_remove_head+0xba>
2000123a:	682b      	ldr	r3, [r5, #0]
2000123c:	191a      	adds	r2, r3, r4
2000123e:	e7b1      	b.n	200011a4 <ph_remove_head+0x74>
20001240:	4641      	mov	r1, r8
20001242:	4650      	mov	r0, sl
20001244:	9a01      	ldr	r2, [sp, #4]
20001246:	1859      	adds	r1, r3, r1
20001248:	189a      	adds	r2, r3, r2
2000124a:	7088      	strb	r0, [r1, #2]
2000124c:	7810      	ldrb	r0, [r2, #0]
2000124e:	2800      	cmp	r0, #0
20001250:	d000      	beq.n	20001254 <ph_remove_head+0x124>
20001252:	7048      	strb	r0, [r1, #1]
20001254:	7016      	strb	r6, [r2, #0]
20001256:	9a01      	ldr	r2, [sp, #4]
20001258:	4656      	mov	r6, sl
2000125a:	4690      	mov	r8, r2
2000125c:	e7c7      	b.n	200011ee <ph_remove_head+0xbe>
2000125e:	4652      	mov	r2, sl
20001260:	0051      	lsls	r1, r2, #1
20001262:	4451      	add	r1, sl
20001264:	3903      	subs	r1, #3
20001266:	185a      	adds	r2, r3, r1
20001268:	4640      	mov	r0, r8
2000126a:	4693      	mov	fp, r2
2000126c:	4652      	mov	r2, sl
2000126e:	1818      	adds	r0, r3, r0
20001270:	7082      	strb	r2, [r0, #2]
20001272:	465a      	mov	r2, fp
20001274:	7812      	ldrb	r2, [r2, #0]
20001276:	2a00      	cmp	r2, #0
20001278:	d000      	beq.n	2000127c <ph_remove_head+0x14c>
2000127a:	7042      	strb	r2, [r0, #1]
2000127c:	465a      	mov	r2, fp
2000127e:	4688      	mov	r8, r1
20001280:	7016      	strb	r6, [r2, #0]
20001282:	191a      	adds	r2, r3, r4
20001284:	4656      	mov	r6, sl
20001286:	e78d      	b.n	200011a4 <ph_remove_head+0x74>

20001288 <ph_remove_and_free_node>:
20001288:	b5f0      	push	{r4, r5, r6, r7, lr}
2000128a:	4645      	mov	r5, r8
2000128c:	46de      	mov	lr, fp
2000128e:	4657      	mov	r7, sl
20001290:	464e      	mov	r6, r9
20001292:	b5e0      	push	{r5, r6, r7, lr}
20001294:	000c      	movs	r4, r1
20001296:	b083      	sub	sp, #12
20001298:	0005      	movs	r5, r0
2000129a:	2200      	movs	r2, #0
2000129c:	2900      	cmp	r1, #0
2000129e:	d03d      	beq.n	2000131c <ph_remove_and_free_node+0x94>
200012a0:	7b47      	ldrb	r7, [r0, #13]
200012a2:	6801      	ldr	r1, [r0, #0]
200012a4:	42bc      	cmp	r4, r7
200012a6:	d06b      	beq.n	20001380 <ph_remove_and_free_node+0xf8>
200012a8:	0066      	lsls	r6, r4, #1
200012aa:	1936      	adds	r6, r6, r4
200012ac:	3e03      	subs	r6, #3
200012ae:	1988      	adds	r0, r1, r6
200012b0:	7883      	ldrb	r3, [r0, #2]
200012b2:	2b00      	cmp	r3, #0
200012b4:	d032      	beq.n	2000131c <ph_remove_and_free_node+0x94>
200012b6:	005a      	lsls	r2, r3, #1
200012b8:	18d3      	adds	r3, r2, r3
200012ba:	3b03      	subs	r3, #3
200012bc:	18cb      	adds	r3, r1, r3
200012be:	781a      	ldrb	r2, [r3, #0]
200012c0:	4294      	cmp	r4, r2
200012c2:	d102      	bne.n	200012ca <ph_remove_and_free_node+0x42>
200012c4:	e043      	b.n	2000134e <ph_remove_and_free_node+0xc6>
200012c6:	2a00      	cmp	r2, #0
200012c8:	d008      	beq.n	200012dc <ph_remove_and_free_node+0x54>
200012ca:	0053      	lsls	r3, r2, #1
200012cc:	189b      	adds	r3, r3, r2
200012ce:	3b03      	subs	r3, #3
200012d0:	18cb      	adds	r3, r1, r3
200012d2:	785a      	ldrb	r2, [r3, #1]
200012d4:	4294      	cmp	r4, r2
200012d6:	d1f6      	bne.n	200012c6 <ph_remove_and_free_node+0x3e>
200012d8:	7842      	ldrb	r2, [r0, #1]
200012da:	705a      	strb	r2, [r3, #1]
200012dc:	2300      	movs	r3, #0
200012de:	7083      	strb	r3, [r0, #2]
200012e0:	7043      	strb	r3, [r0, #1]
200012e2:	7803      	ldrb	r3, [r0, #0]
200012e4:	4698      	mov	r8, r3
200012e6:	2b00      	cmp	r3, #0
200012e8:	d125      	bne.n	20001336 <ph_remove_and_free_node+0xae>
200012ea:	7bea      	ldrb	r2, [r5, #15]
200012ec:	2a00      	cmp	r2, #0
200012ee:	d01d      	beq.n	2000132c <ph_remove_and_free_node+0xa4>
200012f0:	0053      	lsls	r3, r2, #1
200012f2:	189b      	adds	r3, r3, r2
200012f4:	18cb      	adds	r3, r1, r3
200012f6:	3b03      	subs	r3, #3
200012f8:	705c      	strb	r4, [r3, #1]
200012fa:	4643      	mov	r3, r8
200012fc:	73ec      	strb	r4, [r5, #15]
200012fe:	2b00      	cmp	r3, #0
20001300:	d100      	bne.n	20001304 <ph_remove_and_free_node+0x7c>
20001302:	e071      	b.n	200013e8 <ph_remove_and_free_node+0x160>
20001304:	005c      	lsls	r4, r3, #1
20001306:	2300      	movs	r3, #0
20001308:	4444      	add	r4, r8
2000130a:	3c03      	subs	r4, #3
2000130c:	1909      	adds	r1, r1, r4
2000130e:	708b      	strb	r3, [r1, #2]
20001310:	7043      	strb	r3, [r0, #1]
20001312:	2f00      	cmp	r7, #0
20001314:	d11e      	bne.n	20001354 <ph_remove_and_free_node+0xcc>
20001316:	4643      	mov	r3, r8
20001318:	2201      	movs	r2, #1
2000131a:	736b      	strb	r3, [r5, #13]
2000131c:	0010      	movs	r0, r2
2000131e:	b003      	add	sp, #12
20001320:	bc3c      	pop	{r2, r3, r4, r5}
20001322:	4690      	mov	r8, r2
20001324:	4699      	mov	r9, r3
20001326:	46a2      	mov	sl, r4
20001328:	46ab      	mov	fp, r5
2000132a:	bdf0      	pop	{r4, r5, r6, r7, pc}
2000132c:	46b8      	mov	r8, r7
2000132e:	73ec      	strb	r4, [r5, #15]
20001330:	2300      	movs	r3, #0
20001332:	7043      	strb	r3, [r0, #1]
20001334:	e7ef      	b.n	20001316 <ph_remove_and_free_node+0x8e>
20001336:	0019      	movs	r1, r3
20001338:	0028      	movs	r0, r5
2000133a:	f7ff fe15 	bl	20000f68 <ph_merge_two_pass.part.3>
2000133e:	6829      	ldr	r1, [r5, #0]
20001340:	7bea      	ldrb	r2, [r5, #15]
20001342:	4680      	mov	r8, r0
20001344:	7b6f      	ldrb	r7, [r5, #13]
20001346:	1988      	adds	r0, r1, r6
20001348:	2a00      	cmp	r2, #0
2000134a:	d0d6      	beq.n	200012fa <ph_remove_and_free_node+0x72>
2000134c:	e7d0      	b.n	200012f0 <ph_remove_and_free_node+0x68>
2000134e:	7842      	ldrb	r2, [r0, #1]
20001350:	701a      	strb	r2, [r3, #0]
20001352:	e7c3      	b.n	200012dc <ph_remove_and_free_node+0x54>
20001354:	4642      	mov	r2, r8
20001356:	0039      	movs	r1, r7
20001358:	68a8      	ldr	r0, [r5, #8]
2000135a:	686b      	ldr	r3, [r5, #4]
2000135c:	4798      	blx	r3
2000135e:	682a      	ldr	r2, [r5, #0]
20001360:	2800      	cmp	r0, #0
20001362:	d024      	beq.n	200013ae <ph_remove_and_free_node+0x126>
20001364:	007b      	lsls	r3, r7, #1
20001366:	19db      	adds	r3, r3, r7
20001368:	1914      	adds	r4, r2, r4
2000136a:	3b03      	subs	r3, #3
2000136c:	18d3      	adds	r3, r2, r3
2000136e:	70a7      	strb	r7, [r4, #2]
20001370:	781a      	ldrb	r2, [r3, #0]
20001372:	2a00      	cmp	r2, #0
20001374:	d000      	beq.n	20001378 <ph_remove_and_free_node+0xf0>
20001376:	7062      	strb	r2, [r4, #1]
20001378:	4642      	mov	r2, r8
2000137a:	46b8      	mov	r8, r7
2000137c:	701a      	strb	r2, [r3, #0]
2000137e:	e7ca      	b.n	20001316 <ph_remove_and_free_node+0x8e>
20001380:	007e      	lsls	r6, r7, #1
20001382:	19f6      	adds	r6, r6, r7
20001384:	3e03      	subs	r6, #3
20001386:	198b      	adds	r3, r1, r6
20001388:	7818      	ldrb	r0, [r3, #0]
2000138a:	4680      	mov	r8, r0
2000138c:	2800      	cmp	r0, #0
2000138e:	d11b      	bne.n	200013c8 <ph_remove_and_free_node+0x140>
20001390:	7be8      	ldrb	r0, [r5, #15]
20001392:	2800      	cmp	r0, #0
20001394:	d004      	beq.n	200013a0 <ph_remove_and_free_node+0x118>
20001396:	0042      	lsls	r2, r0, #1
20001398:	1812      	adds	r2, r2, r0
2000139a:	188a      	adds	r2, r1, r2
2000139c:	3a03      	subs	r2, #3
2000139e:	7054      	strb	r4, [r2, #1]
200013a0:	73ec      	strb	r4, [r5, #15]
200013a2:	2200      	movs	r2, #0
200013a4:	705a      	strb	r2, [r3, #1]
200013a6:	4643      	mov	r3, r8
200013a8:	3201      	adds	r2, #1
200013aa:	736b      	strb	r3, [r5, #13]
200013ac:	e7b6      	b.n	2000131c <ph_remove_and_free_node+0x94>
200013ae:	007b      	lsls	r3, r7, #1
200013b0:	19db      	adds	r3, r3, r7
200013b2:	3b03      	subs	r3, #3
200013b4:	1914      	adds	r4, r2, r4
200013b6:	18d3      	adds	r3, r2, r3
200013b8:	4642      	mov	r2, r8
200013ba:	709a      	strb	r2, [r3, #2]
200013bc:	7822      	ldrb	r2, [r4, #0]
200013be:	2a00      	cmp	r2, #0
200013c0:	d000      	beq.n	200013c4 <ph_remove_and_free_node+0x13c>
200013c2:	705a      	strb	r2, [r3, #1]
200013c4:	7027      	strb	r7, [r4, #0]
200013c6:	e7a6      	b.n	20001316 <ph_remove_and_free_node+0x8e>
200013c8:	0044      	lsls	r4, r0, #1
200013ca:	4444      	add	r4, r8
200013cc:	1ee0      	subs	r0, r4, #3
200013ce:	9001      	str	r0, [sp, #4]
200013d0:	1808      	adds	r0, r1, r0
200013d2:	7844      	ldrb	r4, [r0, #1]
200013d4:	46a2      	mov	sl, r4
200013d6:	2c00      	cmp	r4, #0
200013d8:	d108      	bne.n	200013ec <ph_remove_and_free_node+0x164>
200013da:	7bec      	ldrb	r4, [r5, #15]
200013dc:	2c00      	cmp	r4, #0
200013de:	d176      	bne.n	200014ce <ph_remove_and_free_node+0x246>
200013e0:	73ef      	strb	r7, [r5, #15]
200013e2:	2200      	movs	r2, #0
200013e4:	7082      	strb	r2, [r0, #2]
200013e6:	e7dc      	b.n	200013a2 <ph_remove_and_free_node+0x11a>
200013e8:	46b8      	mov	r8, r7
200013ea:	e7a1      	b.n	20001330 <ph_remove_and_free_node+0xa8>
200013ec:	0063      	lsls	r3, r4, #1
200013ee:	4453      	add	r3, sl
200013f0:	3b03      	subs	r3, #3
200013f2:	4699      	mov	r9, r3
200013f4:	4449      	add	r1, r9
200013f6:	784b      	ldrb	r3, [r1, #1]
200013f8:	704a      	strb	r2, [r1, #1]
200013fa:	7042      	strb	r2, [r0, #1]
200013fc:	469b      	mov	fp, r3
200013fe:	0022      	movs	r2, r4
20001400:	686b      	ldr	r3, [r5, #4]
20001402:	4641      	mov	r1, r8
20001404:	68a8      	ldr	r0, [r5, #8]
20001406:	4798      	blx	r3
20001408:	682b      	ldr	r3, [r5, #0]
2000140a:	2800      	cmp	r0, #0
2000140c:	d04b      	beq.n	200014a6 <ph_remove_and_free_node+0x21e>
2000140e:	4649      	mov	r1, r9
20001410:	4640      	mov	r0, r8
20001412:	9c01      	ldr	r4, [sp, #4]
20001414:	1859      	adds	r1, r3, r1
20001416:	191a      	adds	r2, r3, r4
20001418:	7088      	strb	r0, [r1, #2]
2000141a:	7810      	ldrb	r0, [r2, #0]
2000141c:	2800      	cmp	r0, #0
2000141e:	d150      	bne.n	200014c2 <ph_remove_and_free_node+0x23a>
20001420:	4651      	mov	r1, sl
20001422:	46a1      	mov	r9, r4
20001424:	7011      	strb	r1, [r2, #0]
20001426:	465a      	mov	r2, fp
20001428:	2a00      	cmp	r2, #0
2000142a:	d020      	beq.n	2000146e <ph_remove_and_free_node+0x1e6>
2000142c:	4659      	mov	r1, fp
2000142e:	0028      	movs	r0, r5
20001430:	f7ff fd9a 	bl	20000f68 <ph_merge_two_pass.part.3>
20001434:	1e04      	subs	r4, r0, #0
20001436:	d019      	beq.n	2000146c <ph_remove_and_free_node+0x1e4>
20001438:	0002      	movs	r2, r0
2000143a:	4641      	mov	r1, r8
2000143c:	68a8      	ldr	r0, [r5, #8]
2000143e:	686b      	ldr	r3, [r5, #4]
20001440:	4798      	blx	r3
20001442:	2800      	cmp	r0, #0
20001444:	d01e      	beq.n	20001484 <ph_remove_and_free_node+0x1fc>
20001446:	464a      	mov	r2, r9
20001448:	4641      	mov	r1, r8
2000144a:	682b      	ldr	r3, [r5, #0]
2000144c:	1898      	adds	r0, r3, r2
2000144e:	0062      	lsls	r2, r4, #1
20001450:	1912      	adds	r2, r2, r4
20001452:	3a03      	subs	r2, #3
20001454:	189a      	adds	r2, r3, r2
20001456:	7091      	strb	r1, [r2, #2]
20001458:	7801      	ldrb	r1, [r0, #0]
2000145a:	2900      	cmp	r1, #0
2000145c:	d000      	beq.n	20001460 <ph_remove_and_free_node+0x1d8>
2000145e:	7051      	strb	r1, [r2, #1]
20001460:	7004      	strb	r4, [r0, #0]
20001462:	7be9      	ldrb	r1, [r5, #15]
20001464:	2900      	cmp	r1, #0
20001466:	d105      	bne.n	20001474 <ph_remove_and_free_node+0x1ec>
20001468:	199b      	adds	r3, r3, r6
2000146a:	e7b9      	b.n	200013e0 <ph_remove_and_free_node+0x158>
2000146c:	682b      	ldr	r3, [r5, #0]
2000146e:	464a      	mov	r2, r9
20001470:	1898      	adds	r0, r3, r2
20001472:	e7f6      	b.n	20001462 <ph_remove_and_free_node+0x1da>
20001474:	004a      	lsls	r2, r1, #1
20001476:	1852      	adds	r2, r2, r1
20001478:	189a      	adds	r2, r3, r2
2000147a:	3a03      	subs	r2, #3
2000147c:	7057      	strb	r7, [r2, #1]
2000147e:	199b      	adds	r3, r3, r6
20001480:	73ef      	strb	r7, [r5, #15]
20001482:	e7ae      	b.n	200013e2 <ph_remove_and_free_node+0x15a>
20001484:	464b      	mov	r3, r9
20001486:	6829      	ldr	r1, [r5, #0]
20001488:	0060      	lsls	r0, r4, #1
2000148a:	1900      	adds	r0, r0, r4
2000148c:	3803      	subs	r0, #3
2000148e:	18cb      	adds	r3, r1, r3
20001490:	1808      	adds	r0, r1, r0
20001492:	709c      	strb	r4, [r3, #2]
20001494:	7802      	ldrb	r2, [r0, #0]
20001496:	2a00      	cmp	r2, #0
20001498:	d000      	beq.n	2000149c <ph_remove_and_free_node+0x214>
2000149a:	705a      	strb	r2, [r3, #1]
2000149c:	4643      	mov	r3, r8
2000149e:	46a0      	mov	r8, r4
200014a0:	7003      	strb	r3, [r0, #0]
200014a2:	198b      	adds	r3, r1, r6
200014a4:	e799      	b.n	200013da <ph_remove_and_free_node+0x152>
200014a6:	464a      	mov	r2, r9
200014a8:	1898      	adds	r0, r3, r2
200014aa:	9a01      	ldr	r2, [sp, #4]
200014ac:	189c      	adds	r4, r3, r2
200014ae:	4652      	mov	r2, sl
200014b0:	70a2      	strb	r2, [r4, #2]
200014b2:	7802      	ldrb	r2, [r0, #0]
200014b4:	2a00      	cmp	r2, #0
200014b6:	d000      	beq.n	200014ba <ph_remove_and_free_node+0x232>
200014b8:	7062      	strb	r2, [r4, #1]
200014ba:	4642      	mov	r2, r8
200014bc:	46d0      	mov	r8, sl
200014be:	7002      	strb	r2, [r0, #0]
200014c0:	e7b1      	b.n	20001426 <ph_remove_and_free_node+0x19e>
200014c2:	7048      	strb	r0, [r1, #1]
200014c4:	4651      	mov	r1, sl
200014c6:	7011      	strb	r1, [r2, #0]
200014c8:	9a01      	ldr	r2, [sp, #4]
200014ca:	4691      	mov	r9, r2
200014cc:	e7ab      	b.n	20001426 <ph_remove_and_free_node+0x19e>
200014ce:	2203      	movs	r2, #3
200014d0:	4362      	muls	r2, r4
200014d2:	188a      	adds	r2, r1, r2
200014d4:	3a03      	subs	r2, #3
200014d6:	7057      	strb	r7, [r2, #1]
200014d8:	e782      	b.n	200013e0 <ph_remove_and_free_node+0x158>
200014da:	46c0      	nop			; (mov r8, r8)

200014dc <mutex_init>:
200014dc:	b510      	push	{r4, lr}
200014de:	0004      	movs	r4, r0
200014e0:	f7fe fedc 	bl	2000029c <next_striped_spin_lock_num>
200014e4:	0001      	movs	r1, r0
200014e6:	0020      	movs	r0, r4
200014e8:	f7ff fa04 	bl	200008f4 <lock_init>
200014ec:	23ff      	movs	r3, #255	; 0xff
200014ee:	7123      	strb	r3, [r4, #4]
200014f0:	f3bf 8f5f 	dmb	sy
200014f4:	bd10      	pop	{r4, pc}
200014f6:	46c0      	nop			; (mov r8, r8)

200014f8 <recursive_mutex_init>:
200014f8:	b510      	push	{r4, lr}
200014fa:	0004      	movs	r4, r0
200014fc:	f7fe fece 	bl	2000029c <next_striped_spin_lock_num>
20001500:	0001      	movs	r1, r0
20001502:	0020      	movs	r0, r4
20001504:	f7ff f9f6 	bl	200008f4 <lock_init>
20001508:	23ff      	movs	r3, #255	; 0xff
2000150a:	7123      	strb	r3, [r4, #4]
2000150c:	2300      	movs	r3, #0
2000150e:	7163      	strb	r3, [r4, #5]
20001510:	f3bf 8f5f 	dmb	sy
20001514:	bd10      	pop	{r4, pc}
20001516:	46c0      	nop			; (mov r8, r8)

20001518 <pll_init>:
20001518:	b5f8      	push	{r3, r4, r5, r6, r7, lr}
2000151a:	0004      	movs	r4, r0
2000151c:	200c      	movs	r0, #12
2000151e:	0017      	movs	r7, r2
20001520:	001d      	movs	r5, r3
20001522:	000e      	movs	r6, r1
20001524:	f000 f986 	bl	20001834 <__wrap___aeabi_uidiv>
20001528:	491d      	ldr	r1, [pc, #116]	; (200015a0 <pll_init+0x88>)
2000152a:	4341      	muls	r1, r0
2000152c:	0038      	movs	r0, r7
2000152e:	f000 f981 	bl	20001834 <__wrap___aeabi_uidiv>
20001532:	9a06      	ldr	r2, [sp, #24]
20001534:	042b      	lsls	r3, r5, #16
20001536:	0312      	lsls	r2, r2, #12
20001538:	4313      	orrs	r3, r2
2000153a:	6822      	ldr	r2, [r4, #0]
2000153c:	2a00      	cmp	r2, #0
2000153e:	db1c      	blt.n	2000157a <pll_init+0x62>
20001540:	4a18      	ldr	r2, [pc, #96]	; (200015a4 <pll_init+0x8c>)
20001542:	2180      	movs	r1, #128	; 0x80
20001544:	4294      	cmp	r4, r2
20001546:	d029      	beq.n	2000159c <pll_init+0x84>
20001548:	0149      	lsls	r1, r1, #5
2000154a:	4a17      	ldr	r2, [pc, #92]	; (200015a8 <pll_init+0x90>)
2000154c:	4d17      	ldr	r5, [pc, #92]	; (200015ac <pll_init+0x94>)
2000154e:	6011      	str	r1, [r2, #0]
20001550:	4a17      	ldr	r2, [pc, #92]	; (200015b0 <pll_init+0x98>)
20001552:	6011      	str	r1, [r2, #0]
20001554:	000f      	movs	r7, r1
20001556:	68aa      	ldr	r2, [r5, #8]
20001558:	4397      	bics	r7, r2
2000155a:	d1fb      	bne.n	20001554 <pll_init+0x3c>
2000155c:	21c0      	movs	r1, #192	; 0xc0
2000155e:	1d22      	adds	r2, r4, #4
20001560:	0189      	lsls	r1, r1, #6
20001562:	4311      	orrs	r1, r2
20001564:	2221      	movs	r2, #33	; 0x21
20001566:	6026      	str	r6, [r4, #0]
20001568:	60a0      	str	r0, [r4, #8]
2000156a:	600a      	str	r2, [r1, #0]
2000156c:	6822      	ldr	r2, [r4, #0]
2000156e:	2a00      	cmp	r2, #0
20001570:	dafc      	bge.n	2000156c <pll_init+0x54>
20001572:	60e3      	str	r3, [r4, #12]
20001574:	2308      	movs	r3, #8
20001576:	600b      	str	r3, [r1, #0]
20001578:	bdf8      	pop	{r3, r4, r5, r6, r7, pc}
2000157a:	223f      	movs	r2, #63	; 0x3f
2000157c:	6821      	ldr	r1, [r4, #0]
2000157e:	400a      	ands	r2, r1
20001580:	4296      	cmp	r6, r2
20001582:	d1dd      	bne.n	20001540 <pll_init+0x28>
20001584:	68a2      	ldr	r2, [r4, #8]
20001586:	0512      	lsls	r2, r2, #20
20001588:	0d12      	lsrs	r2, r2, #20
2000158a:	4290      	cmp	r0, r2
2000158c:	d1d8      	bne.n	20001540 <pll_init+0x28>
2000158e:	21ee      	movs	r1, #238	; 0xee
20001590:	68e2      	ldr	r2, [r4, #12]
20001592:	02c9      	lsls	r1, r1, #11
20001594:	400a      	ands	r2, r1
20001596:	4293      	cmp	r3, r2
20001598:	d1d2      	bne.n	20001540 <pll_init+0x28>
2000159a:	e7ed      	b.n	20001578 <pll_init+0x60>
2000159c:	0189      	lsls	r1, r1, #6
2000159e:	e7d4      	b.n	2000154a <pll_init+0x32>
200015a0:	000f4240 	.word	0x000f4240
200015a4:	4002c000 	.word	0x4002c000
200015a8:	4000e000 	.word	0x4000e000
200015ac:	4000c000 	.word	0x4000c000
200015b0:	4000f000 	.word	0x4000f000

200015b4 <watchdog_start_tick>:
200015b4:	2380      	movs	r3, #128	; 0x80
200015b6:	009b      	lsls	r3, r3, #2
200015b8:	4318      	orrs	r0, r3
200015ba:	4b01      	ldr	r3, [pc, #4]	; (200015c0 <watchdog_start_tick+0xc>)
200015bc:	62d8      	str	r0, [r3, #44]	; 0x2c
200015be:	4770      	bx	lr
200015c0:	40058000 	.word	0x40058000

200015c4 <xosc_init>:
200015c4:	23aa      	movs	r3, #170	; 0xaa
200015c6:	4a06      	ldr	r2, [pc, #24]	; (200015e0 <xosc_init+0x1c>)
200015c8:	011b      	lsls	r3, r3, #4
200015ca:	6013      	str	r3, [r2, #0]
200015cc:	232f      	movs	r3, #47	; 0x2f
200015ce:	4905      	ldr	r1, [pc, #20]	; (200015e4 <xosc_init+0x20>)
200015d0:	60d3      	str	r3, [r2, #12]
200015d2:	4b05      	ldr	r3, [pc, #20]	; (200015e8 <xosc_init+0x24>)
200015d4:	6019      	str	r1, [r3, #0]
200015d6:	6853      	ldr	r3, [r2, #4]
200015d8:	2b00      	cmp	r3, #0
200015da:	dafc      	bge.n	200015d6 <xosc_init+0x12>
200015dc:	4770      	bx	lr
200015de:	46c0      	nop			; (mov r8, r8)
200015e0:	40024000 	.word	0x40024000
200015e4:	00fab000 	.word	0x00fab000
200015e8:	40026000 	.word	0x40026000

200015ec <check_dma_channel_param_impl>:
200015ec:	4770      	bx	lr
200015ee:	46c0      	nop			; (mov r8, r8)

200015f0 <flash_get_unique_id>:
200015f0:	b510      	push	{r4, lr}
200015f2:	b088      	sub	sp, #32
200015f4:	0004      	movs	r4, r0
200015f6:	220d      	movs	r2, #13
200015f8:	2100      	movs	r1, #0
200015fa:	4668      	mov	r0, sp
200015fc:	f000 ff70 	bl	200024e0 <__wrap_memset>
20001600:	220d      	movs	r2, #13
20001602:	2100      	movs	r1, #0
20001604:	a804      	add	r0, sp, #16
20001606:	f000 ff6b 	bl	200024e0 <__wrap_memset>
2000160a:	234b      	movs	r3, #75	; 0x4b
2000160c:	466a      	mov	r2, sp
2000160e:	a904      	add	r1, sp, #16
20001610:	7013      	strb	r3, [r2, #0]
20001612:	4668      	mov	r0, sp
20001614:	220d      	movs	r2, #13
20001616:	f004 f8a7 	bl	20005768 <flash_do_cmd>
2000161a:	2115      	movs	r1, #21
2000161c:	2208      	movs	r2, #8
2000161e:	4469      	add	r1, sp
20001620:	0020      	movs	r0, r4
20001622:	f000 ff63 	bl	200024ec <__wrap___aeabi_memcpy>
20001626:	b008      	add	sp, #32
20001628:	bd10      	pop	{r4, pc}
2000162a:	46c0      	nop			; (mov r8, r8)

2000162c <rom_func_lookup>:
2000162c:	2314      	movs	r3, #20
2000162e:	b510      	push	{r4, lr}
20001630:	0001      	movs	r1, r0
20001632:	8818      	ldrh	r0, [r3, #0]
20001634:	3304      	adds	r3, #4
20001636:	881b      	ldrh	r3, [r3, #0]
20001638:	4798      	blx	r3
2000163a:	bd10      	pop	{r4, pc}

2000163c <rom_data_lookup>:
2000163c:	2316      	movs	r3, #22
2000163e:	b510      	push	{r4, lr}
20001640:	0001      	movs	r1, r0
20001642:	8818      	ldrh	r0, [r3, #0]
20001644:	3302      	adds	r3, #2
20001646:	881b      	ldrh	r3, [r3, #0]
20001648:	4798      	blx	r3
2000164a:	bd10      	pop	{r4, pc}

2000164c <rom_funcs_lookup>:
2000164c:	b5f8      	push	{r3, r4, r5, r6, r7, lr}
2000164e:	4647      	mov	r7, r8
20001650:	46ce      	mov	lr, r9
20001652:	b580      	push	{r7, lr}
20001654:	1e0f      	subs	r7, r1, #0
20001656:	d019      	beq.n	2000168c <rom_funcs_lookup+0x40>
20001658:	2314      	movs	r3, #20
2000165a:	4699      	mov	r9, r3
2000165c:	3304      	adds	r3, #4
2000165e:	0004      	movs	r4, r0
20001660:	2500      	movs	r5, #0
20001662:	2601      	movs	r6, #1
20001664:	4698      	mov	r8, r3
20001666:	464b      	mov	r3, r9
20001668:	8818      	ldrh	r0, [r3, #0]
2000166a:	4643      	mov	r3, r8
2000166c:	6821      	ldr	r1, [r4, #0]
2000166e:	881b      	ldrh	r3, [r3, #0]
20001670:	4798      	blx	r3
20001672:	c401      	stmia	r4!, {r0}
20001674:	1e43      	subs	r3, r0, #1
20001676:	4198      	sbcs	r0, r3
20001678:	3501      	adds	r5, #1
2000167a:	4240      	negs	r0, r0
2000167c:	4006      	ands	r6, r0
2000167e:	42af      	cmp	r7, r5
20001680:	d1f1      	bne.n	20001666 <rom_funcs_lookup+0x1a>
20001682:	0030      	movs	r0, r6
20001684:	bc0c      	pop	{r2, r3}
20001686:	4690      	mov	r8, r2
20001688:	4699      	mov	r9, r3
2000168a:	bdf8      	pop	{r3, r4, r5, r6, r7, pc}
2000168c:	2601      	movs	r6, #1
2000168e:	e7f8      	b.n	20001682 <rom_funcs_lookup+0x36>

20001690 <uart_init>:
20001690:	b5f8      	push	{r3, r4, r5, r6, r7, lr}
20001692:	0004      	movs	r4, r0
20001694:	2006      	movs	r0, #6
20001696:	000d      	movs	r5, r1
20001698:	f7fe ff70 	bl	2000057c <clock_get_hz>
2000169c:	0003      	movs	r3, r0
2000169e:	2000      	movs	r0, #0
200016a0:	2b00      	cmp	r3, #0
200016a2:	d049      	beq.n	20001738 <uart_init+0xa8>
200016a4:	4b29      	ldr	r3, [pc, #164]	; (2000174c <uart_init+0xbc>)
200016a6:	2280      	movs	r2, #128	; 0x80
200016a8:	429c      	cmp	r4, r3
200016aa:	d04d      	beq.n	20001748 <uart_init+0xb8>
200016ac:	03d2      	lsls	r2, r2, #15
200016ae:	4b28      	ldr	r3, [pc, #160]	; (20001750 <uart_init+0xc0>)
200016b0:	4928      	ldr	r1, [pc, #160]	; (20001754 <uart_init+0xc4>)
200016b2:	601a      	str	r2, [r3, #0]
200016b4:	4b28      	ldr	r3, [pc, #160]	; (20001758 <uart_init+0xc8>)
200016b6:	601a      	str	r2, [r3, #0]
200016b8:	0010      	movs	r0, r2
200016ba:	688b      	ldr	r3, [r1, #8]
200016bc:	4398      	bics	r0, r3
200016be:	d1fb      	bne.n	200016b8 <uart_init+0x28>
200016c0:	4b26      	ldr	r3, [pc, #152]	; (2000175c <uart_init+0xcc>)
200016c2:	2180      	movs	r1, #128	; 0x80
200016c4:	18e3      	adds	r3, r4, r3
200016c6:	425a      	negs	r2, r3
200016c8:	4153      	adcs	r3, r2
200016ca:	4a25      	ldr	r2, [pc, #148]	; (20001760 <uart_init+0xd0>)
200016cc:	005b      	lsls	r3, r3, #1
200016ce:	0049      	lsls	r1, r1, #1
200016d0:	2006      	movs	r0, #6
200016d2:	5299      	strh	r1, [r3, r2]
200016d4:	f7fe ff52 	bl	2000057c <clock_get_hz>
200016d8:	0029      	movs	r1, r5
200016da:	00c0      	lsls	r0, r0, #3
200016dc:	f000 f8aa 	bl	20001834 <__wrap___aeabi_uidiv>
200016e0:	09c3      	lsrs	r3, r0, #7
200016e2:	d02a      	beq.n	2000173a <uart_init+0xaa>
200016e4:	4a1f      	ldr	r2, [pc, #124]	; (20001764 <uart_init+0xd4>)
200016e6:	4293      	cmp	r3, r2
200016e8:	d82a      	bhi.n	20001740 <uart_init+0xb0>
200016ea:	227f      	movs	r2, #127	; 0x7f
200016ec:	4010      	ands	r0, r2
200016ee:	3001      	adds	r0, #1
200016f0:	0840      	lsrs	r0, r0, #1
200016f2:	019f      	lsls	r7, r3, #6
200016f4:	001a      	movs	r2, r3
200016f6:	0003      	movs	r3, r0
200016f8:	183f      	adds	r7, r7, r0
200016fa:	0026      	movs	r6, r4
200016fc:	2580      	movs	r5, #128	; 0x80
200016fe:	6262      	str	r2, [r4, #36]	; 0x24
20001700:	62a3      	str	r3, [r4, #40]	; 0x28
20001702:	2300      	movs	r3, #0
20001704:	362c      	adds	r6, #44	; 0x2c
20001706:	01ad      	lsls	r5, r5, #6
20001708:	4335      	orrs	r5, r6
2000170a:	602b      	str	r3, [r5, #0]
2000170c:	2006      	movs	r0, #6
2000170e:	f7fe ff35 	bl	2000057c <clock_get_hz>
20001712:	0039      	movs	r1, r7
20001714:	0080      	lsls	r0, r0, #2
20001716:	f000 f88d 	bl	20001834 <__wrap___aeabi_uidiv>
2000171a:	2360      	movs	r3, #96	; 0x60
2000171c:	6ae2      	ldr	r2, [r4, #44]	; 0x2c
2000171e:	4053      	eors	r3, r2
20001720:	226e      	movs	r2, #110	; 0x6e
20001722:	401a      	ands	r2, r3
20001724:	2380      	movs	r3, #128	; 0x80
20001726:	015b      	lsls	r3, r3, #5
20001728:	4333      	orrs	r3, r6
2000172a:	601a      	str	r2, [r3, #0]
2000172c:	4b0e      	ldr	r3, [pc, #56]	; (20001768 <uart_init+0xd8>)
2000172e:	6323      	str	r3, [r4, #48]	; 0x30
20001730:	2310      	movs	r3, #16
20001732:	602b      	str	r3, [r5, #0]
20001734:	3b0d      	subs	r3, #13
20001736:	64a3      	str	r3, [r4, #72]	; 0x48
20001738:	bdf8      	pop	{r3, r4, r5, r6, r7, pc}
2000173a:	2740      	movs	r7, #64	; 0x40
2000173c:	2201      	movs	r2, #1
2000173e:	e7dc      	b.n	200016fa <uart_init+0x6a>
20001740:	4f0a      	ldr	r7, [pc, #40]	; (2000176c <uart_init+0xdc>)
20001742:	2300      	movs	r3, #0
20001744:	4a0a      	ldr	r2, [pc, #40]	; (20001770 <uart_init+0xe0>)
20001746:	e7d8      	b.n	200016fa <uart_init+0x6a>
20001748:	0412      	lsls	r2, r2, #16
2000174a:	e7b0      	b.n	200016ae <uart_init+0x1e>
2000174c:	40038000 	.word	0x40038000
20001750:	4000e000 	.word	0x4000e000
20001754:	4000c000 	.word	0x4000c000
20001758:	4000f000 	.word	0x4000f000
2000175c:	bffc8000 	.word	0xbffc8000
20001760:	20006820 	.word	0x20006820
20001764:	0000fffe 	.word	0x0000fffe
20001768:	00000301 	.word	0x00000301
2000176c:	003fffc0 	.word	0x003fffc0
20001770:	0000ffff 	.word	0x0000ffff

20001774 <__aeabi_bits_init>:
20001774:	4801      	ldr	r0, [pc, #4]	; (2000177c <__aeabi_bits_init+0x8>)
20001776:	2104      	movs	r1, #4
20001778:	4b01      	ldr	r3, [pc, #4]	; (20001780 <__aeabi_bits_init+0xc>)
2000177a:	4718      	bx	r3
2000177c:	20005c50 	.word	0x20005c50
20001780:	2000164d 	.word	0x2000164d

20001784 <boot_double_tap_check>:
20001784:	b510      	push	{r4, lr}
20001786:	4c11      	ldr	r4, [pc, #68]	; (200017cc <boot_double_tap_check+0x48>)
20001788:	4b11      	ldr	r3, [pc, #68]	; (200017d0 <boot_double_tap_check+0x4c>)
2000178a:	6822      	ldr	r2, [r4, #0]
2000178c:	429a      	cmp	r2, r3
2000178e:	d110      	bne.n	200017b2 <boot_double_tap_check+0x2e>
20001790:	4b10      	ldr	r3, [pc, #64]	; (200017d4 <boot_double_tap_check+0x50>)
20001792:	6862      	ldr	r2, [r4, #4]
20001794:	429a      	cmp	r2, r3
20001796:	d10c      	bne.n	200017b2 <boot_double_tap_check+0x2e>
20001798:	4b0f      	ldr	r3, [pc, #60]	; (200017d8 <boot_double_tap_check+0x54>)
2000179a:	68a2      	ldr	r2, [r4, #8]
2000179c:	429a      	cmp	r2, r3
2000179e:	d108      	bne.n	200017b2 <boot_double_tap_check+0x2e>
200017a0:	2300      	movs	r3, #0
200017a2:	480e      	ldr	r0, [pc, #56]	; (200017dc <boot_double_tap_check+0x58>)
200017a4:	6023      	str	r3, [r4, #0]
200017a6:	f7ff ff41 	bl	2000162c <rom_func_lookup>
200017aa:	2100      	movs	r1, #0
200017ac:	0003      	movs	r3, r0
200017ae:	2000      	movs	r0, #0
200017b0:	4798      	blx	r3
200017b2:	4b07      	ldr	r3, [pc, #28]	; (200017d0 <boot_double_tap_check+0x4c>)
200017b4:	480a      	ldr	r0, [pc, #40]	; (200017e0 <boot_double_tap_check+0x5c>)
200017b6:	6023      	str	r3, [r4, #0]
200017b8:	4b06      	ldr	r3, [pc, #24]	; (200017d4 <boot_double_tap_check+0x50>)
200017ba:	2100      	movs	r1, #0
200017bc:	6063      	str	r3, [r4, #4]
200017be:	4b06      	ldr	r3, [pc, #24]	; (200017d8 <boot_double_tap_check+0x54>)
200017c0:	60a3      	str	r3, [r4, #8]
200017c2:	f7ff fad3 	bl	20000d6c <busy_wait_us>
200017c6:	2300      	movs	r3, #0
200017c8:	6023      	str	r3, [r4, #0]
200017ca:	bd10      	pop	{r4, pc}
200017cc:	20006504 	.word	0x20006504
200017d0:	f01681de 	.word	0xf01681de
200017d4:	bd729b29 	.word	0xbd729b29
200017d8:	d359be7a 	.word	0xd359be7a
200017dc:	00004255 	.word	0x00004255
200017e0:	00030d40 	.word	0x00030d40

200017e4 <__wrap___aeabi_idiv>:
200017e4:	4a12      	ldr	r2, [pc, #72]	; (20001830 <divmod_s32s32_savestate+0x18>)
200017e6:	6f93      	ldr	r3, [r2, #120]	; 0x78
200017e8:	089b      	lsrs	r3, r3, #2
200017ea:	d215      	bcs.n	20001818 <divmod_s32s32_savestate>

200017ec <divmod_s32s32_unsafe>:
200017ec:	6690      	str	r0, [r2, #104]	; 0x68
200017ee:	66d1      	str	r1, [r2, #108]	; 0x6c
200017f0:	2900      	cmp	r1, #0
200017f2:	d005      	beq.n	20001800 <divmod_s32s32_unsafe+0x14>
200017f4:	e7ff      	b.n	200017f6 <divmod_s32s32_unsafe+0xa>
200017f6:	e7ff      	b.n	200017f8 <divmod_s32s32_unsafe+0xc>
200017f8:	e7ff      	b.n	200017fa <divmod_s32s32_unsafe+0xe>
200017fa:	6f51      	ldr	r1, [r2, #116]	; 0x74
200017fc:	6f10      	ldr	r0, [r2, #112]	; 0x70
200017fe:	4770      	bx	lr
20001800:	b504      	push	{r2, lr}
20001802:	2180      	movs	r1, #128	; 0x80
20001804:	0609      	lsls	r1, r1, #24
20001806:	17c2      	asrs	r2, r0, #31
20001808:	4051      	eors	r1, r2
2000180a:	2800      	cmp	r0, #0
2000180c:	d000      	beq.n	20001810 <divmod_s32s32_unsafe+0x24>
2000180e:	43c8      	mvns	r0, r1
20001810:	f002 fe06 	bl	20004420 <__aeabi_idiv0>
20001814:	2100      	movs	r1, #0
20001816:	bd04      	pop	{r2, pc}

20001818 <divmod_s32s32_savestate>:
20001818:	b5f0      	push	{r4, r5, r6, r7, lr}
2000181a:	6e14      	ldr	r4, [r2, #96]	; 0x60
2000181c:	6e55      	ldr	r5, [r2, #100]	; 0x64
2000181e:	6f57      	ldr	r7, [r2, #116]	; 0x74
20001820:	6f16      	ldr	r6, [r2, #112]	; 0x70
20001822:	f7ff ffe3 	bl	200017ec <divmod_s32s32_unsafe>
20001826:	6614      	str	r4, [r2, #96]	; 0x60
20001828:	6655      	str	r5, [r2, #100]	; 0x64
2000182a:	6757      	str	r7, [r2, #116]	; 0x74
2000182c:	6716      	str	r6, [r2, #112]	; 0x70
2000182e:	bdf0      	pop	{r4, r5, r6, r7, pc}
20001830:	d0000000 	.word	0xd0000000

20001834 <__wrap___aeabi_uidiv>:
20001834:	4a11      	ldr	r2, [pc, #68]	; (2000187c <divmod_u32u32_savestate+0x18>)
20001836:	6f93      	ldr	r3, [r2, #120]	; 0x78
20001838:	089b      	lsrs	r3, r3, #2
2000183a:	d213      	bcs.n	20001864 <divmod_u32u32_savestate>

2000183c <divmod_u32u32_unsafe>:
2000183c:	6610      	str	r0, [r2, #96]	; 0x60
2000183e:	6651      	str	r1, [r2, #100]	; 0x64
20001840:	2900      	cmp	r1, #0
20001842:	d005      	beq.n	20001850 <divmod_u32u32_unsafe+0x14>
20001844:	e7ff      	b.n	20001846 <divmod_u32u32_unsafe+0xa>
20001846:	e7ff      	b.n	20001848 <divmod_u32u32_unsafe+0xc>
20001848:	e7ff      	b.n	2000184a <divmod_u32u32_unsafe+0xe>
2000184a:	6f51      	ldr	r1, [r2, #116]	; 0x74
2000184c:	6f10      	ldr	r0, [r2, #112]	; 0x70
2000184e:	4770      	bx	lr
20001850:	b504      	push	{r2, lr}
20001852:	2800      	cmp	r0, #0
20001854:	d001      	beq.n	2000185a <divmod_u32u32_unsafe+0x1e>
20001856:	2000      	movs	r0, #0
20001858:	43c0      	mvns	r0, r0
2000185a:	f002 fde1 	bl	20004420 <__aeabi_idiv0>
2000185e:	2100      	movs	r1, #0
20001860:	bd04      	pop	{r2, pc}
20001862:	46c0      	nop			; (mov r8, r8)

20001864 <divmod_u32u32_savestate>:
20001864:	b5f0      	push	{r4, r5, r6, r7, lr}
20001866:	6e14      	ldr	r4, [r2, #96]	; 0x60
20001868:	6e55      	ldr	r5, [r2, #100]	; 0x64
2000186a:	6f57      	ldr	r7, [r2, #116]	; 0x74
2000186c:	6f16      	ldr	r6, [r2, #112]	; 0x70
2000186e:	f7ff ffe5 	bl	2000183c <divmod_u32u32_unsafe>
20001872:	6614      	str	r4, [r2, #96]	; 0x60
20001874:	6655      	str	r5, [r2, #100]	; 0x64
20001876:	6757      	str	r7, [r2, #116]	; 0x74
20001878:	6716      	str	r6, [r2, #112]	; 0x70
2000187a:	bdf0      	pop	{r4, r5, r6, r7, pc}
2000187c:	d0000000 	.word	0xd0000000

20001880 <__wrap___aeabi_ldivmod>:
20001880:	4694      	mov	ip, r2
20001882:	4a4e      	ldr	r2, [pc, #312]	; (200019bc <udiv0+0x1a>)
20001884:	6f92      	ldr	r2, [r2, #120]	; 0x78
20001886:	0892      	lsrs	r2, r2, #2
20001888:	4662      	mov	r2, ip
2000188a:	d201      	bcs.n	20001890 <divmod_s64s64_savestate>
2000188c:	e030      	b.n	200018f0 <divmod_s64s64_unsafe>
2000188e:	46c0      	nop			; (mov r8, r8)

20001890 <divmod_s64s64_savestate>:
20001890:	b5f0      	push	{r4, r5, r6, r7, lr}
20001892:	4e4a      	ldr	r6, [pc, #296]	; (200019bc <udiv0+0x1a>)
20001894:	6fb5      	ldr	r5, [r6, #120]	; 0x78
20001896:	086d      	lsrs	r5, r5, #1
20001898:	d3fc      	bcc.n	20001894 <divmod_s64s64_savestate+0x4>
2000189a:	6e34      	ldr	r4, [r6, #96]	; 0x60
2000189c:	6e75      	ldr	r5, [r6, #100]	; 0x64
2000189e:	6f77      	ldr	r7, [r6, #116]	; 0x74
200018a0:	6f36      	ldr	r6, [r6, #112]	; 0x70
200018a2:	f000 f825 	bl	200018f0 <divmod_s64s64_unsafe>
200018a6:	4694      	mov	ip, r2
200018a8:	4a44      	ldr	r2, [pc, #272]	; (200019bc <udiv0+0x1a>)
200018aa:	6614      	str	r4, [r2, #96]	; 0x60
200018ac:	6655      	str	r5, [r2, #100]	; 0x64
200018ae:	6757      	str	r7, [r2, #116]	; 0x74
200018b0:	6716      	str	r6, [r2, #112]	; 0x70
200018b2:	4662      	mov	r2, ip
200018b4:	bdf0      	pop	{r4, r5, r6, r7, pc}
200018b6:	46c0      	nop			; (mov r8, r8)

200018b8 <__wrap___aeabi_uldivmod>:
200018b8:	4694      	mov	ip, r2
200018ba:	4a40      	ldr	r2, [pc, #256]	; (200019bc <udiv0+0x1a>)
200018bc:	6f92      	ldr	r2, [r2, #120]	; 0x78
200018be:	0892      	lsrs	r2, r2, #2
200018c0:	4662      	mov	r2, ip
200018c2:	d201      	bcs.n	200018c8 <divmod_u64u64_savestate>
200018c4:	e058      	b.n	20001978 <divmod_u64u64_unsafe>
200018c6:	46c0      	nop			; (mov r8, r8)

200018c8 <divmod_u64u64_savestate>:
200018c8:	b5f0      	push	{r4, r5, r6, r7, lr}
200018ca:	4e3c      	ldr	r6, [pc, #240]	; (200019bc <udiv0+0x1a>)
200018cc:	6fb5      	ldr	r5, [r6, #120]	; 0x78
200018ce:	086d      	lsrs	r5, r5, #1
200018d0:	d3fc      	bcc.n	200018cc <divmod_u64u64_savestate+0x4>
200018d2:	6e34      	ldr	r4, [r6, #96]	; 0x60
200018d4:	6e75      	ldr	r5, [r6, #100]	; 0x64
200018d6:	6f77      	ldr	r7, [r6, #116]	; 0x74
200018d8:	6f36      	ldr	r6, [r6, #112]	; 0x70
200018da:	f000 f84d 	bl	20001978 <divmod_u64u64_unsafe>
200018de:	4694      	mov	ip, r2
200018e0:	4a36      	ldr	r2, [pc, #216]	; (200019bc <udiv0+0x1a>)
200018e2:	6614      	str	r4, [r2, #96]	; 0x60
200018e4:	6655      	str	r5, [r2, #100]	; 0x64
200018e6:	6757      	str	r7, [r2, #116]	; 0x74
200018e8:	6716      	str	r6, [r2, #112]	; 0x70
200018ea:	4662      	mov	r2, ip
200018ec:	bdf0      	pop	{r4, r5, r6, r7, pc}
200018ee:	46c0      	nop			; (mov r8, r8)

200018f0 <divmod_s64s64_unsafe>:
200018f0:	2b00      	cmp	r3, #0
200018f2:	db24      	blt.n	2000193e <l41_1+0x26>
200018f4:	d011      	beq.n	2000191a <l41_1+0x2>
200018f6:	2900      	cmp	r1, #0
200018f8:	da3e      	bge.n	20001978 <divmod_u64u64_unsafe>
200018fa:	b500      	push	{lr}
200018fc:	43c9      	mvns	r1, r1
200018fe:	4240      	negs	r0, r0
20001900:	d100      	bne.n	20001904 <l39_1>
20001902:	3101      	adds	r1, #1

20001904 <l39_1>:
20001904:	f000 f838 	bl	20001978 <divmod_u64u64_unsafe>
20001908:	43c9      	mvns	r1, r1
2000190a:	4240      	negs	r0, r0
2000190c:	d100      	bne.n	20001910 <l40_1>
2000190e:	3101      	adds	r1, #1

20001910 <l40_1>:
20001910:	43db      	mvns	r3, r3
20001912:	4252      	negs	r2, r2
20001914:	d100      	bne.n	20001918 <l41_1>
20001916:	3301      	adds	r3, #1

20001918 <l41_1>:
20001918:	bd00      	pop	{pc}
2000191a:	2a00      	cmp	r2, #0
2000191c:	d1eb      	bne.n	200018f6 <divmod_s64s64_unsafe+0x6>
2000191e:	2800      	cmp	r0, #0
20001920:	d101      	bne.n	20001926 <l41_1+0xe>
20001922:	2900      	cmp	r1, #0
20001924:	d005      	beq.n	20001932 <l41_1+0x1a>
20001926:	2000      	movs	r0, #0
20001928:	0fc9      	lsrs	r1, r1, #31
2000192a:	07c9      	lsls	r1, r1, #31
2000192c:	d101      	bne.n	20001932 <l41_1+0x1a>
2000192e:	43c0      	mvns	r0, r0
20001930:	0841      	lsrs	r1, r0, #1
20001932:	b500      	push	{lr}
20001934:	f002 fd74 	bl	20004420 <__aeabi_idiv0>
20001938:	2200      	movs	r2, #0
2000193a:	2300      	movs	r3, #0
2000193c:	bd00      	pop	{pc}
2000193e:	b500      	push	{lr}
20001940:	2900      	cmp	r1, #0
20001942:	db0a      	blt.n	2000195a <l43_1+0x2>
20001944:	43db      	mvns	r3, r3
20001946:	4252      	negs	r2, r2
20001948:	d100      	bne.n	2000194c <l42_1>
2000194a:	3301      	adds	r3, #1

2000194c <l42_1>:
2000194c:	f000 f814 	bl	20001978 <divmod_u64u64_unsafe>
20001950:	43c9      	mvns	r1, r1
20001952:	4240      	negs	r0, r0
20001954:	d100      	bne.n	20001958 <l43_1>
20001956:	3101      	adds	r1, #1

20001958 <l43_1>:
20001958:	bd00      	pop	{pc}
2000195a:	43c9      	mvns	r1, r1
2000195c:	4240      	negs	r0, r0
2000195e:	d100      	bne.n	20001962 <l44_1>
20001960:	3101      	adds	r1, #1

20001962 <l44_1>:
20001962:	43db      	mvns	r3, r3
20001964:	4252      	negs	r2, r2
20001966:	d100      	bne.n	2000196a <l45_1>
20001968:	3301      	adds	r3, #1

2000196a <l45_1>:
2000196a:	f000 f805 	bl	20001978 <divmod_u64u64_unsafe>
2000196e:	43db      	mvns	r3, r3
20001970:	4252      	negs	r2, r2
20001972:	d100      	bne.n	20001976 <l46_1>
20001974:	3301      	adds	r3, #1

20001976 <l46_1>:
20001976:	bd00      	pop	{pc}

20001978 <divmod_u64u64_unsafe>:
20001978:	2900      	cmp	r1, #0
2000197a:	d123      	bne.n	200019c4 <y64>
2000197c:	2b00      	cmp	r3, #0
2000197e:	d118      	bne.n	200019b2 <udiv0+0x10>
20001980:	2a00      	cmp	r2, #0
20001982:	d00c      	beq.n	2000199e <divmod_u64u64_unsafe+0x26>
20001984:	46bc      	mov	ip, r7
20001986:	4f0d      	ldr	r7, [pc, #52]	; (200019bc <udiv0+0x1a>)
20001988:	6638      	str	r0, [r7, #96]	; 0x60
2000198a:	667a      	str	r2, [r7, #100]	; 0x64
2000198c:	2100      	movs	r1, #0
2000198e:	2300      	movs	r3, #0
20001990:	e7ff      	b.n	20001992 <divmod_u64u64_unsafe+0x1a>
20001992:	e7ff      	b.n	20001994 <divmod_u64u64_unsafe+0x1c>
20001994:	e7ff      	b.n	20001996 <divmod_u64u64_unsafe+0x1e>
20001996:	6f7a      	ldr	r2, [r7, #116]	; 0x74
20001998:	6f38      	ldr	r0, [r7, #112]	; 0x70
2000199a:	4667      	mov	r7, ip
2000199c:	4770      	bx	lr
2000199e:	2800      	cmp	r0, #0
200019a0:	d001      	beq.n	200019a6 <udiv0+0x4>

200019a2 <udiv0>:
200019a2:	4807      	ldr	r0, [pc, #28]	; (200019c0 <udiv0+0x1e>)
200019a4:	0001      	movs	r1, r0
200019a6:	b500      	push	{lr}
200019a8:	f002 fd3a 	bl	20004420 <__aeabi_idiv0>
200019ac:	2200      	movs	r2, #0
200019ae:	2300      	movs	r3, #0
200019b0:	bd00      	pop	{pc}
200019b2:	0002      	movs	r2, r0
200019b4:	000b      	movs	r3, r1
200019b6:	2000      	movs	r0, #0
200019b8:	2100      	movs	r1, #0
200019ba:	4770      	bx	lr
200019bc:	d0000000 	.word	0xd0000000
200019c0:	ffffffff 	.word	0xffffffff

200019c4 <y64>:
200019c4:	2b00      	cmp	r3, #0
200019c6:	d000      	beq.n	200019ca <y64+0x6>
200019c8:	e0bf      	b.n	20001b4a <y64_x48>
200019ca:	0c13      	lsrs	r3, r2, #16
200019cc:	d128      	bne.n	20001a20 <y64_x32>
200019ce:	2a00      	cmp	r2, #0
200019d0:	d0e7      	beq.n	200019a2 <udiv0>
200019d2:	b480      	push	{r7}
200019d4:	4f11      	ldr	r7, [pc, #68]	; (20001a1c <y64+0x58>)
200019d6:	6639      	str	r1, [r7, #96]	; 0x60
200019d8:	667a      	str	r2, [r7, #100]	; 0x64
200019da:	e7ff      	b.n	200019dc <y64+0x18>
200019dc:	e7ff      	b.n	200019de <y64+0x1a>
200019de:	b430      	push	{r4, r5}
200019e0:	0c04      	lsrs	r4, r0, #16
200019e2:	6f7b      	ldr	r3, [r7, #116]	; 0x74
200019e4:	6f39      	ldr	r1, [r7, #112]	; 0x70
200019e6:	041b      	lsls	r3, r3, #16
200019e8:	4323      	orrs	r3, r4
200019ea:	663b      	str	r3, [r7, #96]	; 0x60
200019ec:	667a      	str	r2, [r7, #100]	; 0x64
200019ee:	e7ff      	b.n	200019f0 <y64+0x2c>
200019f0:	e7ff      	b.n	200019f2 <y64+0x2e>
200019f2:	e7ff      	b.n	200019f4 <y64+0x30>
200019f4:	46c0      	nop			; (mov r8, r8)
200019f6:	b284      	uxth	r4, r0
200019f8:	6f7b      	ldr	r3, [r7, #116]	; 0x74
200019fa:	6f3d      	ldr	r5, [r7, #112]	; 0x70
200019fc:	041b      	lsls	r3, r3, #16
200019fe:	4323      	orrs	r3, r4
20001a00:	663b      	str	r3, [r7, #96]	; 0x60
20001a02:	667a      	str	r2, [r7, #100]	; 0x64
20001a04:	e7ff      	b.n	20001a06 <y64+0x42>
20001a06:	e7ff      	b.n	20001a08 <y64+0x44>
20001a08:	46c0      	nop			; (mov r8, r8)
20001a0a:	2300      	movs	r3, #0
20001a0c:	042c      	lsls	r4, r5, #16
20001a0e:	0c2d      	lsrs	r5, r5, #16
20001a10:	6f7a      	ldr	r2, [r7, #116]	; 0x74
20001a12:	6f38      	ldr	r0, [r7, #112]	; 0x70
20001a14:	1900      	adds	r0, r0, r4
20001a16:	4169      	adcs	r1, r5
20001a18:	bcb0      	pop	{r4, r5, r7}
20001a1a:	4770      	bx	lr
20001a1c:	d0000000 	.word	0xd0000000

20001a20 <y64_x32>:
20001a20:	b5f0      	push	{r4, r5, r6, r7, lr}
20001a22:	4694      	mov	ip, r2
20001a24:	2500      	movs	r5, #0
20001a26:	0e14      	lsrs	r4, r2, #24
20001a28:	d101      	bne.n	20001a2e <y64_x32+0xe>
20001a2a:	0212      	lsls	r2, r2, #8
20001a2c:	3508      	adds	r5, #8
20001a2e:	0f14      	lsrs	r4, r2, #28
20001a30:	d101      	bne.n	20001a36 <y64_x32+0x16>
20001a32:	0112      	lsls	r2, r2, #4
20001a34:	3504      	adds	r5, #4
20001a36:	0f94      	lsrs	r4, r2, #30
20001a38:	d101      	bne.n	20001a3e <y64_x32+0x1e>
20001a3a:	0092      	lsls	r2, r2, #2
20001a3c:	3502      	adds	r5, #2
20001a3e:	0fd4      	lsrs	r4, r2, #31
20001a40:	d101      	bne.n	20001a46 <y64_x32+0x26>
20001a42:	0052      	lsls	r2, r2, #1
20001a44:	3501      	adds	r5, #1
20001a46:	0bd4      	lsrs	r4, r2, #15
20001a48:	3401      	adds	r4, #1
20001a4a:	4f25      	ldr	r7, [pc, #148]	; (20001ae0 <y64_x32+0xc0>)
20001a4c:	667c      	str	r4, [r7, #100]	; 0x64
20001a4e:	4c25      	ldr	r4, [pc, #148]	; (20001ae4 <y64_x32+0xc4>)
20001a50:	663c      	str	r4, [r7, #96]	; 0x60
20001a52:	0c0e      	lsrs	r6, r1, #16
20001a54:	b293      	uxth	r3, r2
20001a56:	e7ff      	b.n	20001a58 <y64_x32+0x38>
20001a58:	e7ff      	b.n	20001a5a <y64_x32+0x3a>
20001a5a:	e7ff      	b.n	20001a5c <y64_x32+0x3c>
20001a5c:	6f3c      	ldr	r4, [r7, #112]	; 0x70
20001a5e:	4366      	muls	r6, r4
20001a60:	0c36      	lsrs	r6, r6, #16
20001a62:	0377      	lsls	r7, r6, #13
20001a64:	46be      	mov	lr, r7
20001a66:	4373      	muls	r3, r6
20001a68:	0bdf      	lsrs	r7, r3, #15
20001a6a:	045b      	lsls	r3, r3, #17
20001a6c:	1ac0      	subs	r0, r0, r3
20001a6e:	41b9      	sbcs	r1, r7
20001a70:	0c13      	lsrs	r3, r2, #16
20001a72:	4373      	muls	r3, r6
20001a74:	18db      	adds	r3, r3, r3
20001a76:	1ac9      	subs	r1, r1, r3
20001a78:	08ce      	lsrs	r6, r1, #3
20001a7a:	4366      	muls	r6, r4
20001a7c:	0c36      	lsrs	r6, r6, #16
20001a7e:	44b6      	add	lr, r6
20001a80:	b293      	uxth	r3, r2
20001a82:	4373      	muls	r3, r6
20001a84:	0f1f      	lsrs	r7, r3, #28
20001a86:	011b      	lsls	r3, r3, #4
20001a88:	1ac0      	subs	r0, r0, r3
20001a8a:	41b9      	sbcs	r1, r7
20001a8c:	0c13      	lsrs	r3, r2, #16
20001a8e:	4373      	muls	r3, r6
20001a90:	0b1f      	lsrs	r7, r3, #12
20001a92:	051b      	lsls	r3, r3, #20
20001a94:	1ac0      	subs	r0, r0, r3
20001a96:	41b9      	sbcs	r1, r7
20001a98:	0d86      	lsrs	r6, r0, #22
20001a9a:	028f      	lsls	r7, r1, #10
20001a9c:	433e      	orrs	r6, r7
20001a9e:	4366      	muls	r6, r4
20001aa0:	0c36      	lsrs	r6, r6, #16
20001aa2:	2d09      	cmp	r5, #9
20001aa4:	db24      	blt.n	20001af0 <last0>
20001aa6:	0a52      	lsrs	r2, r2, #9
20001aa8:	4372      	muls	r2, r6
20001aaa:	1a80      	subs	r0, r0, r2
20001aac:	0377      	lsls	r7, r6, #13
20001aae:	0a46      	lsrs	r6, r0, #9
20001ab0:	4366      	muls	r6, r4
20001ab2:	0c36      	lsrs	r6, r6, #16
20001ab4:	2316      	movs	r3, #22
20001ab6:	1b5b      	subs	r3, r3, r5
20001ab8:	40de      	lsrs	r6, r3
20001aba:	40df      	lsrs	r7, r3
20001abc:	19bf      	adds	r7, r7, r6
20001abe:	4664      	mov	r4, ip
20001ac0:	4366      	muls	r6, r4
20001ac2:	1b82      	subs	r2, r0, r6
20001ac4:	4670      	mov	r0, lr
20001ac6:	3504      	adds	r5, #4
20001ac8:	3306      	adds	r3, #6
20001aca:	0001      	movs	r1, r0
20001acc:	40d9      	lsrs	r1, r3
20001ace:	40a8      	lsls	r0, r5
20001ad0:	19c0      	adds	r0, r0, r7
20001ad2:	d300      	bcc.n	20001ad6 <y64_x32+0xb6>
20001ad4:	3101      	adds	r1, #1
20001ad6:	42a2      	cmp	r2, r4
20001ad8:	d206      	bcs.n	20001ae8 <y64_x32+0xc8>
20001ada:	2300      	movs	r3, #0
20001adc:	bdf0      	pop	{r4, r5, r6, r7, pc}
20001ade:	0000      	.short	0x0000
20001ae0:	d0000000 	.word	0xd0000000
20001ae4:	ffffffff 	.word	0xffffffff
20001ae8:	1b12      	subs	r2, r2, r4
20001aea:	3001      	adds	r0, #1
20001aec:	d3f3      	bcc.n	20001ad6 <y64_x32+0xb6>
20001aee:	e7f1      	b.n	20001ad4 <y64_x32+0xb4>

20001af0 <last0>:
20001af0:	2709      	movs	r7, #9
20001af2:	1b7f      	subs	r7, r7, r5
20001af4:	40fe      	lsrs	r6, r7
20001af6:	4664      	mov	r4, ip
20001af8:	b2a2      	uxth	r2, r4
20001afa:	4372      	muls	r2, r6
20001afc:	1a80      	subs	r0, r0, r2
20001afe:	d200      	bcs.n	20001b02 <last0+0x12>
20001b00:	3901      	subs	r1, #1
20001b02:	0c22      	lsrs	r2, r4, #16
20001b04:	4372      	muls	r2, r6
20001b06:	0c13      	lsrs	r3, r2, #16
20001b08:	0412      	lsls	r2, r2, #16
20001b0a:	1a82      	subs	r2, r0, r2
20001b0c:	4199      	sbcs	r1, r3
20001b0e:	000b      	movs	r3, r1
20001b10:	4670      	mov	r0, lr
20001b12:	3504      	adds	r5, #4
20001b14:	3713      	adds	r7, #19
20001b16:	0001      	movs	r1, r0
20001b18:	40f9      	lsrs	r1, r7
20001b1a:	40a8      	lsls	r0, r5
20001b1c:	1980      	adds	r0, r0, r6
20001b1e:	d300      	bcc.n	20001b22 <last0+0x32>
20001b20:	3101      	adds	r1, #1
20001b22:	2b00      	cmp	r3, #0
20001b24:	d102      	bne.n	20001b2c <last0+0x3c>
20001b26:	42a2      	cmp	r2, r4
20001b28:	d20a      	bcs.n	20001b40 <last0+0x50>
20001b2a:	bdf0      	pop	{r4, r5, r6, r7, pc}
20001b2c:	3001      	adds	r0, #1
20001b2e:	d300      	bcc.n	20001b32 <last0+0x42>
20001b30:	3101      	adds	r1, #1
20001b32:	1b12      	subs	r2, r2, r4
20001b34:	d2fa      	bcs.n	20001b2c <last0+0x3c>
20001b36:	3b01      	subs	r3, #1
20001b38:	d1f8      	bne.n	20001b2c <last0+0x3c>
20001b3a:	42a2      	cmp	r2, r4
20001b3c:	d200      	bcs.n	20001b40 <last0+0x50>
20001b3e:	bdf0      	pop	{r4, r5, r6, r7, pc}
20001b40:	3001      	adds	r0, #1
20001b42:	d300      	bcc.n	20001b46 <last0+0x56>
20001b44:	3101      	adds	r1, #1
20001b46:	1b12      	subs	r2, r2, r4
20001b48:	e7f7      	b.n	20001b3a <last0+0x4a>

20001b4a <y64_x48>:
20001b4a:	b5f0      	push	{r4, r5, r6, r7, lr}
20001b4c:	0c1c      	lsrs	r4, r3, #16
20001b4e:	d000      	beq.n	20001b52 <y64_x48+0x8>
20001b50:	e080      	b.n	20001c54 <y64_x64>
20001b52:	b40c      	push	{r2, r3}
20001b54:	2500      	movs	r5, #0
20001b56:	0a1c      	lsrs	r4, r3, #8
20001b58:	d104      	bne.n	20001b64 <y64_x48+0x1a>
20001b5a:	021b      	lsls	r3, r3, #8
20001b5c:	0e16      	lsrs	r6, r2, #24
20001b5e:	4333      	orrs	r3, r6
20001b60:	0212      	lsls	r2, r2, #8
20001b62:	3508      	adds	r5, #8
20001b64:	0b1c      	lsrs	r4, r3, #12
20001b66:	d104      	bne.n	20001b72 <y64_x48+0x28>
20001b68:	011b      	lsls	r3, r3, #4
20001b6a:	0f16      	lsrs	r6, r2, #28
20001b6c:	4333      	orrs	r3, r6
20001b6e:	0112      	lsls	r2, r2, #4
20001b70:	3504      	adds	r5, #4
20001b72:	0b9c      	lsrs	r4, r3, #14
20001b74:	d104      	bne.n	20001b80 <y64_x48+0x36>
20001b76:	009b      	lsls	r3, r3, #2
20001b78:	0f96      	lsrs	r6, r2, #30
20001b7a:	4333      	orrs	r3, r6
20001b7c:	0092      	lsls	r2, r2, #2
20001b7e:	3502      	adds	r5, #2
20001b80:	0bdc      	lsrs	r4, r3, #15
20001b82:	d102      	bne.n	20001b8a <y64_x48+0x40>
20001b84:	1892      	adds	r2, r2, r2
20001b86:	415b      	adcs	r3, r3
20001b88:	3501      	adds	r5, #1
20001b8a:	001c      	movs	r4, r3
20001b8c:	1897      	adds	r7, r2, r2
20001b8e:	4164      	adcs	r4, r4
20001b90:	3401      	adds	r4, #1
20001b92:	4f46      	ldr	r7, [pc, #280]	; (20001cac <y64_x64+0x58>)
20001b94:	667c      	str	r4, [r7, #100]	; 0x64
20001b96:	4c46      	ldr	r4, [pc, #280]	; (20001cb0 <y64_x64+0x5c>)
20001b98:	663c      	str	r4, [r7, #96]	; 0x60
20001b9a:	0c0e      	lsrs	r6, r1, #16
20001b9c:	e7ff      	b.n	20001b9e <y64_x48+0x54>
20001b9e:	e7ff      	b.n	20001ba0 <y64_x48+0x56>
20001ba0:	e7ff      	b.n	20001ba2 <y64_x48+0x58>
20001ba2:	46c0      	nop			; (mov r8, r8)
20001ba4:	6f3c      	ldr	r4, [r7, #112]	; 0x70
20001ba6:	4366      	muls	r6, r4
20001ba8:	0c36      	lsrs	r6, r6, #16
20001baa:	0377      	lsls	r7, r6, #13
20001bac:	46be      	mov	lr, r7
20001bae:	b297      	uxth	r7, r2
20001bb0:	4377      	muls	r7, r6
20001bb2:	1bc0      	subs	r0, r0, r7
20001bb4:	d200      	bcs.n	20001bb8 <y64_x48+0x6e>
20001bb6:	3901      	subs	r1, #1
20001bb8:	1bc0      	subs	r0, r0, r7
20001bba:	d200      	bcs.n	20001bbe <y64_x48+0x74>
20001bbc:	3901      	subs	r1, #1
20001bbe:	b29f      	uxth	r7, r3
20001bc0:	4377      	muls	r7, r6
20001bc2:	1bc9      	subs	r1, r1, r7
20001bc4:	1bc9      	subs	r1, r1, r7
20001bc6:	0c17      	lsrs	r7, r2, #16
20001bc8:	4377      	muls	r7, r6
20001bca:	047e      	lsls	r6, r7, #17
20001bcc:	0bff      	lsrs	r7, r7, #15
20001bce:	1b80      	subs	r0, r0, r6
20001bd0:	41b9      	sbcs	r1, r7
20001bd2:	08ce      	lsrs	r6, r1, #3
20001bd4:	4366      	muls	r6, r4
20001bd6:	0c36      	lsrs	r6, r6, #16
20001bd8:	2d0c      	cmp	r5, #12
20001bda:	db33      	blt.n	20001c44 <last1>
20001bdc:	44b6      	add	lr, r6
20001bde:	0b12      	lsrs	r2, r2, #12
20001be0:	051f      	lsls	r7, r3, #20
20001be2:	433a      	orrs	r2, r7
20001be4:	0b1b      	lsrs	r3, r3, #12
20001be6:	b297      	uxth	r7, r2
20001be8:	4377      	muls	r7, r6
20001bea:	1bc0      	subs	r0, r0, r7
20001bec:	d200      	bcs.n	20001bf0 <y64_x48+0xa6>
20001bee:	3901      	subs	r1, #1
20001bf0:	b29f      	uxth	r7, r3
20001bf2:	4377      	muls	r7, r6
20001bf4:	1bc9      	subs	r1, r1, r7
20001bf6:	0c17      	lsrs	r7, r2, #16
20001bf8:	4377      	muls	r7, r6
20001bfa:	043e      	lsls	r6, r7, #16
20001bfc:	0c3f      	lsrs	r7, r7, #16
20001bfe:	1b80      	subs	r0, r0, r6
20001c00:	41b9      	sbcs	r1, r7
20001c02:	0d86      	lsrs	r6, r0, #22
20001c04:	028f      	lsls	r7, r1, #10
20001c06:	433e      	orrs	r6, r7
20001c08:	4366      	muls	r6, r4
20001c0a:	2729      	movs	r7, #41	; 0x29
20001c0c:	1b7f      	subs	r7, r7, r5
20001c0e:	40fe      	lsrs	r6, r7
20001c10:	3d0c      	subs	r5, #12
20001c12:	4677      	mov	r7, lr
20001c14:	40af      	lsls	r7, r5
20001c16:	19bf      	adds	r7, r7, r6
20001c18:	bc30      	pop	{r4, r5}
20001c1a:	b2a2      	uxth	r2, r4
20001c1c:	b2ab      	uxth	r3, r5
20001c1e:	4372      	muls	r2, r6
20001c20:	4373      	muls	r3, r6
20001c22:	1a80      	subs	r0, r0, r2
20001c24:	4199      	sbcs	r1, r3
20001c26:	0c22      	lsrs	r2, r4, #16
20001c28:	4372      	muls	r2, r6
20001c2a:	0c13      	lsrs	r3, r2, #16
20001c2c:	0412      	lsls	r2, r2, #16
20001c2e:	1a80      	subs	r0, r0, r2
20001c30:	4199      	sbcs	r1, r3
20001c32:	0002      	movs	r2, r0
20001c34:	000b      	movs	r3, r1
20001c36:	3701      	adds	r7, #1
20001c38:	1b00      	subs	r0, r0, r4
20001c3a:	41a9      	sbcs	r1, r5
20001c3c:	d2f9      	bcs.n	20001c32 <y64_x48+0xe8>
20001c3e:	1e78      	subs	r0, r7, #1
20001c40:	2100      	movs	r1, #0
20001c42:	bdf0      	pop	{r4, r5, r6, r7, pc}

20001c44 <last1>:
20001c44:	270c      	movs	r7, #12
20001c46:	1b7f      	subs	r7, r7, r5
20001c48:	40fe      	lsrs	r6, r7
20001c4a:	4677      	mov	r7, lr
20001c4c:	0b7f      	lsrs	r7, r7, #13
20001c4e:	40af      	lsls	r7, r5
20001c50:	19ff      	adds	r7, r7, r7
20001c52:	e7e0      	b.n	20001c16 <y64_x48+0xcc>

20001c54 <y64_x64>:
20001c54:	2400      	movs	r4, #0
20001c56:	1c5d      	adds	r5, r3, #1
20001c58:	d007      	beq.n	20001c6a <y64_x64+0x16>
20001c5a:	4f14      	ldr	r7, [pc, #80]	; (20001cac <y64_x64+0x58>)
20001c5c:	667d      	str	r5, [r7, #100]	; 0x64
20001c5e:	6639      	str	r1, [r7, #96]	; 0x60
20001c60:	e7ff      	b.n	20001c62 <y64_x64+0xe>
20001c62:	e7ff      	b.n	20001c64 <y64_x64+0x10>
20001c64:	e7ff      	b.n	20001c66 <y64_x64+0x12>
20001c66:	e7ff      	b.n	20001c68 <y64_x64+0x14>
20001c68:	6f3c      	ldr	r4, [r7, #112]	; 0x70
20001c6a:	b295      	uxth	r5, r2
20001c6c:	b29e      	uxth	r6, r3
20001c6e:	4365      	muls	r5, r4
20001c70:	4366      	muls	r6, r4
20001c72:	1b40      	subs	r0, r0, r5
20001c74:	41b1      	sbcs	r1, r6
20001c76:	0c15      	lsrs	r5, r2, #16
20001c78:	0c1e      	lsrs	r6, r3, #16
20001c7a:	4365      	muls	r5, r4
20001c7c:	4366      	muls	r6, r4
20001c7e:	0436      	lsls	r6, r6, #16
20001c80:	0c2f      	lsrs	r7, r5, #16
20001c82:	433e      	orrs	r6, r7
20001c84:	042d      	lsls	r5, r5, #16
20001c86:	1b40      	subs	r0, r0, r5
20001c88:	41b1      	sbcs	r1, r6
20001c8a:	4299      	cmp	r1, r3
20001c8c:	d204      	bcs.n	20001c98 <y64_x64+0x44>
20001c8e:	0002      	movs	r2, r0
20001c90:	000b      	movs	r3, r1
20001c92:	0020      	movs	r0, r4
20001c94:	2100      	movs	r1, #0
20001c96:	bdf0      	pop	{r4, r5, r6, r7, pc}
20001c98:	d101      	bne.n	20001c9e <y64_x64+0x4a>
20001c9a:	4290      	cmp	r0, r2
20001c9c:	d3f7      	bcc.n	20001c8e <y64_x64+0x3a>
20001c9e:	1a80      	subs	r0, r0, r2
20001ca0:	4199      	sbcs	r1, r3
20001ca2:	3401      	adds	r4, #1
20001ca4:	4299      	cmp	r1, r3
20001ca6:	d3f2      	bcc.n	20001c8e <y64_x64+0x3a>
20001ca8:	e7f6      	b.n	20001c98 <y64_x64+0x44>
20001caa:	0000      	.short	0x0000
20001cac:	d0000000 	.word	0xd0000000
20001cb0:	ffffffff 	.word	0xffffffff

20001cb4 <__wrap___aeabi_drsub>:
20001cb4:	4048      	eors	r0, r1
20001cb6:	4041      	eors	r1, r0
20001cb8:	4048      	eors	r0, r1

20001cba <__wrap___aeabi_dsub>:
20001cba:	b418      	push	{r3, r4}
20001cbc:	4b1b      	ldr	r3, [pc, #108]	; (20001d2c <__wrap___aeabi_dmul+0x12>)
20001cbe:	685b      	ldr	r3, [r3, #4]
20001cc0:	46fc      	mov	ip, pc
20001cc2:	9301      	str	r3, [sp, #4]
20001cc4:	bd08      	pop	{r3, pc}
20001cc6:	df04      	.short	0xdf04
20001cc8:	20001f0f 	.word	0x20001f0f

20001ccc <__wrap___aeabi_dadd>:
20001ccc:	b418      	push	{r3, r4}
20001cce:	4b17      	ldr	r3, [pc, #92]	; (20001d2c <__wrap___aeabi_dmul+0x12>)
20001cd0:	681b      	ldr	r3, [r3, #0]
20001cd2:	46fc      	mov	ip, pc
20001cd4:	9301      	str	r3, [sp, #4]
20001cd6:	bd08      	pop	{r3, pc}
20001cd8:	1f19df00 	.word	0x1f19df00
20001cdc:	2000      	.short	0x2000

20001cde <__wrap___aeabi_ddiv>:
20001cde:	4694      	mov	ip, r2
20001ce0:	4a13      	ldr	r2, [pc, #76]	; (20001d30 <__wrap___aeabi_dmul+0x16>)
20001ce2:	6f92      	ldr	r2, [r2, #120]	; 0x78
20001ce4:	0892      	lsrs	r2, r2, #2
20001ce6:	d209      	bcs.n	20001cfc <ddiv_save_state>
20001ce8:	4662      	mov	r2, ip

20001cea <ddiv_shim_call>:
20001cea:	b418      	push	{r3, r4}
20001cec:	4b0f      	ldr	r3, [pc, #60]	; (20001d2c <__wrap___aeabi_dmul+0x12>)
20001cee:	68db      	ldr	r3, [r3, #12]
20001cf0:	46fc      	mov	ip, pc
20001cf2:	9301      	str	r3, [sp, #4]
20001cf4:	bd08      	pop	{r3, pc}
20001cf6:	df0c      	.short	0xdf0c
20001cf8:	200021d1 	.word	0x200021d1

20001cfc <ddiv_save_state>:
20001cfc:	4a0c      	ldr	r2, [pc, #48]	; (20001d30 <__wrap___aeabi_dmul+0x16>)
20001cfe:	b5f0      	push	{r4, r5, r6, r7, lr}
20001d00:	6e14      	ldr	r4, [r2, #96]	; 0x60
20001d02:	6e55      	ldr	r5, [r2, #100]	; 0x64
20001d04:	6f57      	ldr	r7, [r2, #116]	; 0x74
20001d06:	6f16      	ldr	r6, [r2, #112]	; 0x70
20001d08:	4662      	mov	r2, ip
20001d0a:	f7ff ffee 	bl	20001cea <ddiv_shim_call>
20001d0e:	4a08      	ldr	r2, [pc, #32]	; (20001d30 <__wrap___aeabi_dmul+0x16>)
20001d10:	6614      	str	r4, [r2, #96]	; 0x60
20001d12:	6655      	str	r5, [r2, #100]	; 0x64
20001d14:	6757      	str	r7, [r2, #116]	; 0x74
20001d16:	6716      	str	r6, [r2, #112]	; 0x70
20001d18:	bdf0      	pop	{r4, r5, r6, r7, pc}

20001d1a <__wrap___aeabi_dmul>:
20001d1a:	b418      	push	{r3, r4}
20001d1c:	4b03      	ldr	r3, [pc, #12]	; (20001d2c <__wrap___aeabi_dmul+0x12>)
20001d1e:	689b      	ldr	r3, [r3, #8]
20001d20:	46fc      	mov	ip, pc
20001d22:	9301      	str	r3, [sp, #4]
20001d24:	bd08      	pop	{r3, pc}
20001d26:	df08      	.short	0xdf08
20001d28:	20002075 	.word	0x20002075
20001d2c:	20006824 	.word	0x20006824
20001d30:	d0000000 	.word	0xd0000000

20001d34 <__wrap___aeabi_cdrcmple>:
20001d34:	b5ff      	push	{r0, r1, r2, r3, r4, r5, r6, r7, lr}
20001d36:	4050      	eors	r0, r2
20001d38:	4042      	eors	r2, r0
20001d3a:	4050      	eors	r0, r2
20001d3c:	4059      	eors	r1, r3
20001d3e:	404b      	eors	r3, r1
20001d40:	4059      	eors	r1, r3
20001d42:	e000      	b.n	20001d46 <__aeabi_dfcmple_guts>

20001d44 <__wrap___aeabi_cdcmpeq>:
20001d44:	b5ff      	push	{r0, r1, r2, r3, r4, r5, r6, r7, lr}

20001d46 <__aeabi_dfcmple_guts>:
20001d46:	4f15      	ldr	r7, [pc, #84]	; (20001d9c <__aeabi_dfcmple_guts+0x56>)
20001d48:	004c      	lsls	r4, r1, #1
20001d4a:	0d64      	lsrs	r4, r4, #21
20001d4c:	d003      	beq.n	20001d56 <__aeabi_dfcmple_guts+0x10>
20001d4e:	42bc      	cmp	r4, r7
20001d50:	d104      	bne.n	20001d5c <__aeabi_dfcmple_guts+0x16>
20001d52:	030c      	lsls	r4, r1, #12
20001d54:	d814      	bhi.n	20001d80 <__aeabi_dfcmple_guts+0x3a>
20001d56:	2000      	movs	r0, #0
20001d58:	0d09      	lsrs	r1, r1, #20
20001d5a:	0509      	lsls	r1, r1, #20
20001d5c:	005c      	lsls	r4, r3, #1
20001d5e:	0d64      	lsrs	r4, r4, #21
20001d60:	d003      	beq.n	20001d6a <__aeabi_dfcmple_guts+0x24>
20001d62:	42bc      	cmp	r4, r7
20001d64:	d104      	bne.n	20001d70 <__aeabi_dfcmple_guts+0x2a>
20001d66:	031c      	lsls	r4, r3, #12
20001d68:	d80a      	bhi.n	20001d80 <__aeabi_dfcmple_guts+0x3a>
20001d6a:	2200      	movs	r2, #0
20001d6c:	0d1b      	lsrs	r3, r3, #20
20001d6e:	051b      	lsls	r3, r3, #20
20001d70:	2601      	movs	r6, #1
20001d72:	404b      	eors	r3, r1
20001d74:	d409      	bmi.n	20001d8a <__aeabi_dfcmple_guts+0x44>
20001d76:	404b      	eors	r3, r1
20001d78:	d503      	bpl.n	20001d82 <__aeabi_dfcmple_guts+0x3c>
20001d7a:	428b      	cmp	r3, r1
20001d7c:	d100      	bne.n	20001d80 <__aeabi_dfcmple_guts+0x3a>
20001d7e:	4282      	cmp	r2, r0
20001d80:	bdff      	pop	{r0, r1, r2, r3, r4, r5, r6, r7, pc}
20001d82:	4299      	cmp	r1, r3
20001d84:	d1fc      	bne.n	20001d80 <__aeabi_dfcmple_guts+0x3a>
20001d86:	4290      	cmp	r0, r2
20001d88:	bdff      	pop	{r0, r1, r2, r3, r4, r5, r6, r7, pc}
20001d8a:	430b      	orrs	r3, r1
20001d8c:	18db      	adds	r3, r3, r3
20001d8e:	4303      	orrs	r3, r0
20001d90:	4313      	orrs	r3, r2
20001d92:	d0f5      	beq.n	20001d80 <__aeabi_dfcmple_guts+0x3a>
20001d94:	43c9      	mvns	r1, r1
20001d96:	1849      	adds	r1, r1, r1
20001d98:	bdff      	pop	{r0, r1, r2, r3, r4, r5, r6, r7, pc}
20001d9a:	0000      	.short	0x0000
20001d9c:	000007ff 	.word	0x000007ff

20001da0 <__wrap___aeabi_dcmplt>:
20001da0:	b500      	push	{lr}
20001da2:	f7ff ffcf 	bl	20001d44 <__wrap___aeabi_cdcmpeq>
20001da6:	4180      	sbcs	r0, r0
20001da8:	bd00      	pop	{pc}
20001daa:	46c0      	nop			; (mov r8, r8)

20001dac <__wrap___aeabi_dcmpge>:
20001dac:	b500      	push	{lr}
20001dae:	f7ff ffc1 	bl	20001d34 <__wrap___aeabi_cdrcmple>
20001db2:	d901      	bls.n	20001db8 <__wrap___aeabi_dcmpge+0xc>
20001db4:	2000      	movs	r0, #0
20001db6:	bd00      	pop	{pc}
20001db8:	2001      	movs	r0, #1
20001dba:	bd00      	pop	{pc}

20001dbc <__wrap___aeabi_dcmpgt>:
20001dbc:	b500      	push	{lr}
20001dbe:	f7ff ffb9 	bl	20001d34 <__wrap___aeabi_cdrcmple>
20001dc2:	4180      	sbcs	r0, r0
20001dc4:	bd00      	pop	{pc}

20001dc6 <__wrap___aeabi_dcmpun>:
20001dc6:	2001      	movs	r0, #1
20001dc8:	0540      	lsls	r0, r0, #21
20001dca:	004a      	lsls	r2, r1, #1
20001dcc:	1812      	adds	r2, r2, r0
20001dce:	d804      	bhi.n	20001dda <__wrap___aeabi_dcmpun+0x14>
20001dd0:	005a      	lsls	r2, r3, #1
20001dd2:	1812      	adds	r2, r2, r0
20001dd4:	d801      	bhi.n	20001dda <__wrap___aeabi_dcmpun+0x14>
20001dd6:	2000      	movs	r0, #0
20001dd8:	4770      	bx	lr
20001dda:	2001      	movs	r0, #1
20001ddc:	4770      	bx	lr
20001dde:	2000      	movs	r0, #0
20001de0:	4770      	bx	lr
	...

20001de4 <__wrap___aeabi_ui2d>:
20001de4:	2100      	movs	r1, #0
20001de6:	2800      	cmp	r0, #0
20001de8:	d105      	bne.n	20001df6 <__wrap___aeabi_i2d+0xa>
20001dea:	4770      	bx	lr

20001dec <__wrap___aeabi_i2d>:
20001dec:	17c1      	asrs	r1, r0, #31
20001dee:	4048      	eors	r0, r1
20001df0:	1a40      	subs	r0, r0, r1
20001df2:	d0fa      	beq.n	20001dea <__wrap___aeabi_ui2d+0x6>
20001df4:	07c9      	lsls	r1, r1, #31
20001df6:	b513      	push	{r0, r1, r4, lr}
20001df8:	4b06      	ldr	r3, [pc, #24]	; (20001e14 <__wrap___aeabi_i2d+0x28>)
20001dfa:	681b      	ldr	r3, [r3, #0]
20001dfc:	4798      	blx	r3
20001dfe:	bc0c      	pop	{r2, r3}
20001e00:	1c44      	adds	r4, r0, #1
20001e02:	40a2      	lsls	r2, r4
20001e04:	0510      	lsls	r0, r2, #20
20001e06:	0b12      	lsrs	r2, r2, #12
20001e08:	4903      	ldr	r1, [pc, #12]	; (20001e18 <__wrap___aeabi_i2d+0x2c>)
20001e0a:	1b09      	subs	r1, r1, r4
20001e0c:	0509      	lsls	r1, r1, #20
20001e0e:	4319      	orrs	r1, r3
20001e10:	4311      	orrs	r1, r2
20001e12:	bd10      	pop	{r4, pc}
20001e14:	20006800 	.word	0x20006800
20001e18:	0000041f 	.word	0x0000041f

20001e1c <__wrap___aeabi_d2iz>:
20001e1c:	b510      	push	{r4, lr}
20001e1e:	004c      	lsls	r4, r1, #1
20001e20:	0d62      	lsrs	r2, r4, #21
20001e22:	2380      	movs	r3, #128	; 0x80
20001e24:	18d2      	adds	r2, r2, r3
20001e26:	00db      	lsls	r3, r3, #3
20001e28:	1ad2      	subs	r2, r2, r3
20001e2a:	055b      	lsls	r3, r3, #21
20001e2c:	2a7e      	cmp	r2, #126	; 0x7e
20001e2e:	dd10      	ble.n	20001e52 <__wrap___aeabi_d2iz+0x36>
20001e30:	3a9e      	subs	r2, #158	; 0x9e
20001e32:	da13      	bge.n	20001e5c <__wrap___aeabi_d2iz+0x40>
20001e34:	17cc      	asrs	r4, r1, #31
20001e36:	0309      	lsls	r1, r1, #12
20001e38:	0849      	lsrs	r1, r1, #1
20001e3a:	4319      	orrs	r1, r3
20001e3c:	4252      	negs	r2, r2
20001e3e:	40d1      	lsrs	r1, r2
20001e40:	0064      	lsls	r4, r4, #1
20001e42:	3401      	adds	r4, #1
20001e44:	3215      	adds	r2, #21
20001e46:	2a20      	cmp	r2, #32
20001e48:	da05      	bge.n	20001e56 <__wrap___aeabi_d2iz+0x3a>
20001e4a:	40d0      	lsrs	r0, r2
20001e4c:	4308      	orrs	r0, r1
20001e4e:	4360      	muls	r0, r4
20001e50:	bd10      	pop	{r4, pc}
20001e52:	2000      	movs	r0, #0
20001e54:	bd10      	pop	{r4, pc}
20001e56:	4608      	mov	r0, r1
20001e58:	4360      	muls	r0, r4
20001e5a:	bd10      	pop	{r4, pc}
20001e5c:	0fc8      	lsrs	r0, r1, #31
20001e5e:	18c0      	adds	r0, r0, r3
20001e60:	3801      	subs	r0, #1
20001e62:	bd10      	pop	{r4, pc}

20001e64 <__wrap___aeabi_d2uiz>:
20001e64:	b418      	push	{r3, r4}
20001e66:	4b04      	ldr	r3, [pc, #16]	; (20001e78 <__wrap___aeabi_d2uiz+0x14>)
20001e68:	6a5b      	ldr	r3, [r3, #36]	; 0x24
20001e6a:	46fc      	mov	ip, pc
20001e6c:	9301      	str	r3, [sp, #4]
20001e6e:	bd08      	pop	{r3, pc}
20001e70:	2381df24 	.word	0x2381df24
20001e74:	00002000 	.word	0x00002000
20001e78:	20006824 	.word	0x20006824

20001e7c <__aeabi_double_init>:
20001e7c:	2313      	movs	r3, #19
20001e7e:	b570      	push	{r4, r5, r6, lr}
20001e80:	781c      	ldrb	r4, [r3, #0]
20001e82:	2c01      	cmp	r4, #1
20001e84:	d015      	beq.n	20001eb2 <__aeabi_double_init+0x36>
20001e86:	dd10      	ble.n	20001eaa <__aeabi_double_init+0x2e>
20001e88:	480f      	ldr	r0, [pc, #60]	; (20001ec8 <__aeabi_double_init+0x4c>)
20001e8a:	f7ff fbd7 	bl	2000163c <rom_data_lookup>
20001e8e:	4d0f      	ldr	r5, [pc, #60]	; (20001ecc <__aeabi_double_init+0x50>)
20001e90:	0001      	movs	r1, r0
20001e92:	2280      	movs	r2, #128	; 0x80
20001e94:	0028      	movs	r0, r5
20001e96:	f000 fb29 	bl	200024ec <__wrap___aeabi_memcpy>
20001e9a:	2c02      	cmp	r4, #2
20001e9c:	d006      	beq.n	20001eac <__aeabi_double_init+0x30>
20001e9e:	480c      	ldr	r0, [pc, #48]	; (20001ed0 <__aeabi_double_init+0x54>)
20001ea0:	f7ff fbc4 	bl	2000162c <rom_func_lookup>
20001ea4:	4b0b      	ldr	r3, [pc, #44]	; (20001ed4 <__aeabi_double_init+0x58>)
20001ea6:	6018      	str	r0, [r3, #0]
20001ea8:	bd70      	pop	{r4, r5, r6, pc}
20001eaa:	4d08      	ldr	r5, [pc, #32]	; (20001ecc <__aeabi_double_init+0x50>)
20001eac:	4a0a      	ldr	r2, [pc, #40]	; (20001ed8 <__aeabi_double_init+0x5c>)
20001eae:	64aa      	str	r2, [r5, #72]	; 0x48
20001eb0:	e7f5      	b.n	20001e9e <__aeabi_double_init+0x22>
20001eb2:	4d06      	ldr	r5, [pc, #24]	; (20001ecc <__aeabi_double_init+0x50>)
20001eb4:	4a08      	ldr	r2, [pc, #32]	; (20001ed8 <__aeabi_double_init+0x5c>)
20001eb6:	0029      	movs	r1, r5
20001eb8:	002b      	movs	r3, r5
20001eba:	3180      	adds	r1, #128	; 0x80
20001ebc:	c304      	stmia	r3!, {r2}
20001ebe:	428b      	cmp	r3, r1
20001ec0:	d1fc      	bne.n	20001ebc <__aeabi_double_init+0x40>
20001ec2:	64aa      	str	r2, [r5, #72]	; 0x48
20001ec4:	e7eb      	b.n	20001e9e <__aeabi_double_init+0x22>
20001ec6:	46c0      	nop			; (mov r8, r8)
20001ec8:	00004453 	.word	0x00004453
20001ecc:	20006824 	.word	0x20006824
20001ed0:	0000334c 	.word	0x0000334c
20001ed4:	20006800 	.word	0x20006800
20001ed8:	20001edd 	.word	0x20001edd

20001edc <double_table_shim_on_use_helper>:
20001edc:	b507      	push	{r0, r1, r2, lr}
20001ede:	4660      	mov	r0, ip
20001ee0:	8801      	ldrh	r1, [r0, #0]
20001ee2:	0a0a      	lsrs	r2, r1, #8
20001ee4:	3002      	adds	r0, #2
20001ee6:	2adf      	cmp	r2, #223	; 0xdf
20001ee8:	d1fa      	bne.n	20001ee0 <double_table_shim_on_use_helper+0x4>
20001eea:	b2c9      	uxtb	r1, r1
20001eec:	0882      	lsrs	r2, r0, #2
20001eee:	d304      	bcc.n	20001efa <double_table_shim_on_use_helper+0x1e>
20001ef0:	8802      	ldrh	r2, [r0, #0]
20001ef2:	8840      	ldrh	r0, [r0, #2]
20001ef4:	0400      	lsls	r0, r0, #16
20001ef6:	4310      	orrs	r0, r2
20001ef8:	e000      	b.n	20001efc <double_table_shim_on_use_helper+0x20>
20001efa:	6800      	ldr	r0, [r0, #0]
20001efc:	4a01      	ldr	r2, [pc, #4]	; (20001f04 <double_table_shim_on_use_helper+0x28>)
20001efe:	5050      	str	r0, [r2, r1]
20001f00:	9003      	str	r0, [sp, #12]
20001f02:	bd07      	pop	{r0, r1, r2, pc}
20001f04:	20006824 	.word	0x20006824

20001f08 <drsub_shim>:
20001f08:	b40f      	push	{r0, r1, r2, r3}
20001f0a:	bc03      	pop	{r0, r1}
20001f0c:	bc0c      	pop	{r2, r3}

20001f0e <dsub_shim>:
20001f0e:	b5f0      	push	{r4, r5, r6, r7, lr}
20001f10:	2401      	movs	r4, #1
20001f12:	07e4      	lsls	r4, r4, #31
20001f14:	4063      	eors	r3, r4
20001f16:	e000      	b.n	20001f1a <da_entry>

20001f18 <dadd_shim>:
20001f18:	b5f0      	push	{r4, r5, r6, r7, lr}

20001f1a <da_entry>:
20001f1a:	0d0c      	lsrs	r4, r1, #20
20001f1c:	0fcf      	lsrs	r7, r1, #31
20001f1e:	1e66      	subs	r6, r4, #1
20001f20:	0536      	lsls	r6, r6, #20
20001f22:	1b89      	subs	r1, r1, r6
20001f24:	0564      	lsls	r4, r4, #21
20001f26:	d303      	bcc.n	20001f30 <l7_1>
20001f28:	43c9      	mvns	r1, r1
20001f2a:	4240      	negs	r0, r0
20001f2c:	d300      	bcc.n	20001f30 <l7_1>
20001f2e:	3101      	adds	r1, #1

20001f30 <l7_1>:
20001f30:	0d64      	lsrs	r4, r4, #21
20001f32:	d003      	beq.n	20001f3c <l7_2>
20001f34:	1c66      	adds	r6, r4, #1
20001f36:	0af6      	lsrs	r6, r6, #11
20001f38:	d007      	beq.n	20001f4a <l7_3>
20001f3a:	1be4      	subs	r4, r4, r7

20001f3c <l7_2>:
20001f3c:	2000      	movs	r0, #0
20001f3e:	007f      	lsls	r7, r7, #1
20001f40:	1c79      	adds	r1, r7, #1
20001f42:	0789      	lsls	r1, r1, #30
20001f44:	1289      	asrs	r1, r1, #10
20001f46:	3c80      	subs	r4, #128	; 0x80
20001f48:	0324      	lsls	r4, r4, #12

20001f4a <l7_3>:
20001f4a:	0d1d      	lsrs	r5, r3, #20
20001f4c:	0fdf      	lsrs	r7, r3, #31
20001f4e:	1e6e      	subs	r6, r5, #1
20001f50:	0536      	lsls	r6, r6, #20
20001f52:	1b9b      	subs	r3, r3, r6
20001f54:	056d      	lsls	r5, r5, #21
20001f56:	d303      	bcc.n	20001f60 <l8_1>
20001f58:	43db      	mvns	r3, r3
20001f5a:	4252      	negs	r2, r2
20001f5c:	d300      	bcc.n	20001f60 <l8_1>
20001f5e:	3301      	adds	r3, #1

20001f60 <l8_1>:
20001f60:	0d6d      	lsrs	r5, r5, #21
20001f62:	d003      	beq.n	20001f6c <l8_2>
20001f64:	1c6e      	adds	r6, r5, #1
20001f66:	0af6      	lsrs	r6, r6, #11
20001f68:	d007      	beq.n	20001f7a <l8_3>
20001f6a:	1bed      	subs	r5, r5, r7

20001f6c <l8_2>:
20001f6c:	2200      	movs	r2, #0
20001f6e:	007f      	lsls	r7, r7, #1
20001f70:	1c7b      	adds	r3, r7, #1
20001f72:	079b      	lsls	r3, r3, #30
20001f74:	129b      	asrs	r3, r3, #10
20001f76:	3d80      	subs	r5, #128	; 0x80
20001f78:	032d      	lsls	r5, r5, #12

20001f7a <l8_3>:
20001f7a:	1b2f      	subs	r7, r5, r4
20001f7c:	1b66      	subs	r6, r4, r5
20001f7e:	d458      	bmi.n	20002032 <da_ygtx>
20001f80:	46a4      	mov	ip, r4
20001f82:	2e20      	cmp	r6, #32
20001f84:	da46      	bge.n	20002014 <da_xrgty>
20001f86:	3720      	adds	r7, #32
20001f88:	0014      	movs	r4, r2
20001f8a:	40bc      	lsls	r4, r7

20001f8c <da_xgty0>:
20001f8c:	001d      	movs	r5, r3
20001f8e:	40bd      	lsls	r5, r7
20001f90:	40f2      	lsrs	r2, r6
20001f92:	4133      	asrs	r3, r6
20001f94:	432a      	orrs	r2, r5

20001f96 <da_add>:
20001f96:	1880      	adds	r0, r0, r2
20001f98:	4159      	adcs	r1, r3

20001f9a <da_pack>:
20001f9a:	0fcb      	lsrs	r3, r1, #31
20001f9c:	d005      	beq.n	20001faa <da_pack+0x10>
20001f9e:	43c9      	mvns	r1, r1
20001fa0:	43c0      	mvns	r0, r0
20001fa2:	2200      	movs	r2, #0
20001fa4:	4264      	negs	r4, r4
20001fa6:	4150      	adcs	r0, r2
20001fa8:	4151      	adcs	r1, r2
20001faa:	4662      	mov	r2, ip
20001fac:	0d4d      	lsrs	r5, r1, #21
20001fae:	d128      	bne.n	20002002 <da_0>
20001fb0:	0d0d      	lsrs	r5, r1, #20
20001fb2:	d107      	bne.n	20001fc4 <da_1>
20001fb4:	2800      	cmp	r0, #0
20001fb6:	d01f      	beq.n	20001ff8 <da_5>

20001fb8 <da_2>:
20001fb8:	1924      	adds	r4, r4, r4
20001fba:	4140      	adcs	r0, r0
20001fbc:	4149      	adcs	r1, r1
20001fbe:	3a01      	subs	r2, #1
20001fc0:	0d0d      	lsrs	r5, r1, #20
20001fc2:	d0f9      	beq.n	20001fb8 <da_2>

20001fc4 <da_1>:
20001fc4:	0064      	lsls	r4, r4, #1
20001fc6:	d306      	bcc.n	20001fd6 <da_3>

20001fc8 <da_4>:
20001fc8:	3001      	adds	r0, #1
20001fca:	d300      	bcc.n	20001fce <da_4+0x6>
20001fcc:	3101      	adds	r1, #1
20001fce:	2c00      	cmp	r4, #0
20001fd0:	d101      	bne.n	20001fd6 <da_3>
20001fd2:	0840      	lsrs	r0, r0, #1
20001fd4:	0040      	lsls	r0, r0, #1

20001fd6 <da_3>:
20001fd6:	3a01      	subs	r2, #1
20001fd8:	d40b      	bmi.n	20001ff2 <da_6>
20001fda:	1c94      	adds	r4, r2, #2
20001fdc:	0ae4      	lsrs	r4, r4, #11
20001fde:	d104      	bne.n	20001fea <da_7>
20001fe0:	0512      	lsls	r2, r2, #20
20001fe2:	4411      	add	r1, r2
20001fe4:	07db      	lsls	r3, r3, #31
20001fe6:	4419      	add	r1, r3
20001fe8:	bdf0      	pop	{r4, r5, r6, r7, pc}

20001fea <da_7>:
20001fea:	07d9      	lsls	r1, r3, #31
20001fec:	4b20      	ldr	r3, [pc, #128]	; (20002070 <da_xmgty+0x4>)
20001fee:	4319      	orrs	r1, r3
20001ff0:	e000      	b.n	20001ff4 <da_6+0x2>

20001ff2 <da_6>:
20001ff2:	07d9      	lsls	r1, r3, #31
20001ff4:	2000      	movs	r0, #0
20001ff6:	bdf0      	pop	{r4, r5, r6, r7, pc}

20001ff8 <da_5>:
20001ff8:	2900      	cmp	r1, #0
20001ffa:	d1dd      	bne.n	20001fb8 <da_2>
20001ffc:	2c00      	cmp	r4, #0
20001ffe:	d1db      	bne.n	20001fb8 <da_2>
20002000:	bdf0      	pop	{r4, r5, r6, r7, pc}

20002002 <da_0>:
20002002:	3201      	adds	r2, #1
20002004:	07c6      	lsls	r6, r0, #31
20002006:	0840      	lsrs	r0, r0, #1
20002008:	07cd      	lsls	r5, r1, #31
2000200a:	4328      	orrs	r0, r5
2000200c:	0849      	lsrs	r1, r1, #1
2000200e:	2e00      	cmp	r6, #0
20002010:	d0e1      	beq.n	20001fd6 <da_3>
20002012:	e7d9      	b.n	20001fc8 <da_4>

20002014 <da_xrgty>:
20002014:	2e3c      	cmp	r6, #60	; 0x3c
20002016:	da29      	bge.n	2000206c <da_xmgty>
20002018:	3e20      	subs	r6, #32
2000201a:	3740      	adds	r7, #64	; 0x40
2000201c:	0014      	movs	r4, r2
2000201e:	40bc      	lsls	r4, r7
20002020:	d000      	beq.n	20002024 <da_xrgty+0x10>
20002022:	2401      	movs	r4, #1
20002024:	40f2      	lsrs	r2, r6
20002026:	4314      	orrs	r4, r2
20002028:	001a      	movs	r2, r3
2000202a:	40bb      	lsls	r3, r7
2000202c:	431c      	orrs	r4, r3
2000202e:	17d3      	asrs	r3, r2, #31
20002030:	e7ac      	b.n	20001f8c <da_xgty0>

20002032 <da_ygtx>:
20002032:	46ac      	mov	ip, r5
20002034:	2f20      	cmp	r7, #32
20002036:	da08      	bge.n	2000204a <da_yrgtx>
20002038:	3620      	adds	r6, #32
2000203a:	0004      	movs	r4, r0
2000203c:	40b4      	lsls	r4, r6

2000203e <da_ygtx0>:
2000203e:	000d      	movs	r5, r1
20002040:	40b5      	lsls	r5, r6
20002042:	40f8      	lsrs	r0, r7
20002044:	4139      	asrs	r1, r7
20002046:	4328      	orrs	r0, r5
20002048:	e7a5      	b.n	20001f96 <da_add>

2000204a <da_yrgtx>:
2000204a:	2f3c      	cmp	r7, #60	; 0x3c
2000204c:	da0c      	bge.n	20002068 <da_ymgtx>
2000204e:	3f20      	subs	r7, #32
20002050:	3640      	adds	r6, #64	; 0x40
20002052:	0004      	movs	r4, r0
20002054:	40b4      	lsls	r4, r6
20002056:	d000      	beq.n	2000205a <da_yrgtx+0x10>
20002058:	2401      	movs	r4, #1
2000205a:	40f8      	lsrs	r0, r7
2000205c:	4304      	orrs	r4, r0
2000205e:	0008      	movs	r0, r1
20002060:	40b1      	lsls	r1, r6
20002062:	430c      	orrs	r4, r1
20002064:	17c1      	asrs	r1, r0, #31
20002066:	e7ea      	b.n	2000203e <da_ygtx0>

20002068 <da_ymgtx>:
20002068:	0010      	movs	r0, r2
2000206a:	0019      	movs	r1, r3

2000206c <da_xmgty>:
2000206c:	2400      	movs	r4, #0
2000206e:	e794      	b.n	20001f9a <da_pack>
20002070:	7ff00000 	.word	0x7ff00000

20002074 <dmul_shim>:
20002074:	b5f0      	push	{r4, r5, r6, r7, lr}
20002076:	0d0c      	lsrs	r4, r1, #20
20002078:	1e66      	subs	r6, r4, #1
2000207a:	0536      	lsls	r6, r6, #20
2000207c:	1b89      	subs	r1, r1, r6
2000207e:	0ae6      	lsrs	r6, r4, #11
20002080:	0564      	lsls	r4, r4, #21
20002082:	0d64      	lsrs	r4, r4, #21
20002084:	d002      	beq.n	2000208c <l11_1>
20002086:	1c65      	adds	r5, r4, #1
20002088:	0aed      	lsrs	r5, r5, #11
2000208a:	d004      	beq.n	20002096 <l11_2>

2000208c <l11_1>:
2000208c:	2000      	movs	r0, #0
2000208e:	2101      	movs	r1, #1
20002090:	0509      	lsls	r1, r1, #20
20002092:	3c80      	subs	r4, #128	; 0x80
20002094:	0324      	lsls	r4, r4, #12

20002096 <l11_2>:
20002096:	46a4      	mov	ip, r4
20002098:	0d1c      	lsrs	r4, r3, #20
2000209a:	1e67      	subs	r7, r4, #1
2000209c:	053f      	lsls	r7, r7, #20
2000209e:	1bdb      	subs	r3, r3, r7
200020a0:	0ae7      	lsrs	r7, r4, #11
200020a2:	0564      	lsls	r4, r4, #21
200020a4:	0d64      	lsrs	r4, r4, #21
200020a6:	d002      	beq.n	200020ae <l12_1>
200020a8:	1c65      	adds	r5, r4, #1
200020aa:	0aed      	lsrs	r5, r5, #11
200020ac:	d004      	beq.n	200020b8 <l12_2>

200020ae <l12_1>:
200020ae:	2200      	movs	r2, #0
200020b0:	2301      	movs	r3, #1
200020b2:	051b      	lsls	r3, r3, #20
200020b4:	3c80      	subs	r4, #128	; 0x80
200020b6:	0324      	lsls	r4, r4, #12

200020b8 <l12_2>:
200020b8:	4077      	eors	r7, r6
200020ba:	4464      	add	r4, ip
200020bc:	b497      	push	{r0, r1, r2, r4, r7}
200020be:	b284      	uxth	r4, r0
200020c0:	b296      	uxth	r6, r2
200020c2:	4374      	muls	r4, r6
200020c4:	0c07      	lsrs	r7, r0, #16
200020c6:	437e      	muls	r6, r7
200020c8:	0c15      	lsrs	r5, r2, #16
200020ca:	436f      	muls	r7, r5
200020cc:	b280      	uxth	r0, r0
200020ce:	4368      	muls	r0, r5
200020d0:	1836      	adds	r6, r6, r0
200020d2:	d302      	bcc.n	200020da <l13_1>
200020d4:	2001      	movs	r0, #1
200020d6:	0400      	lsls	r0, r0, #16
200020d8:	183f      	adds	r7, r7, r0

200020da <l13_1>:
200020da:	0430      	lsls	r0, r6, #16
200020dc:	0c35      	lsrs	r5, r6, #16
200020de:	1900      	adds	r0, r0, r4
200020e0:	417d      	adcs	r5, r7
200020e2:	4684      	mov	ip, r0
200020e4:	b288      	uxth	r0, r1
200020e6:	b29a      	uxth	r2, r3
200020e8:	4350      	muls	r0, r2
200020ea:	0c0c      	lsrs	r4, r1, #16
200020ec:	4362      	muls	r2, r4
200020ee:	0c1f      	lsrs	r7, r3, #16
200020f0:	437c      	muls	r4, r7
200020f2:	b28e      	uxth	r6, r1
200020f4:	437e      	muls	r6, r7
200020f6:	1992      	adds	r2, r2, r6
200020f8:	d302      	bcc.n	20002100 <l14_1>
200020fa:	2601      	movs	r6, #1
200020fc:	0436      	lsls	r6, r6, #16
200020fe:	19a4      	adds	r4, r4, r6

20002100 <l14_1>:
20002100:	0416      	lsls	r6, r2, #16
20002102:	0c17      	lsrs	r7, r2, #16
20002104:	1836      	adds	r6, r6, r0
20002106:	4167      	adcs	r7, r4
20002108:	bc01      	pop	{r0}
2000210a:	b281      	uxth	r1, r0
2000210c:	b29a      	uxth	r2, r3
2000210e:	4351      	muls	r1, r2
20002110:	0c04      	lsrs	r4, r0, #16
20002112:	4362      	muls	r2, r4
20002114:	0c1b      	lsrs	r3, r3, #16
20002116:	435c      	muls	r4, r3
20002118:	b280      	uxth	r0, r0
2000211a:	4358      	muls	r0, r3
2000211c:	1812      	adds	r2, r2, r0
2000211e:	d302      	bcc.n	20002126 <l15_1>
20002120:	2001      	movs	r0, #1
20002122:	0400      	lsls	r0, r0, #16
20002124:	1824      	adds	r4, r4, r0

20002126 <l15_1>:
20002126:	0410      	lsls	r0, r2, #16
20002128:	0c13      	lsrs	r3, r2, #16
2000212a:	1840      	adds	r0, r0, r1
2000212c:	4163      	adcs	r3, r4
2000212e:	182d      	adds	r5, r5, r0
20002130:	415e      	adcs	r6, r3
20002132:	2000      	movs	r0, #0
20002134:	4147      	adcs	r7, r0
20002136:	bc06      	pop	{r1, r2}
20002138:	b288      	uxth	r0, r1
2000213a:	b293      	uxth	r3, r2
2000213c:	4358      	muls	r0, r3
2000213e:	0c0c      	lsrs	r4, r1, #16
20002140:	4363      	muls	r3, r4
20002142:	0c12      	lsrs	r2, r2, #16
20002144:	4354      	muls	r4, r2
20002146:	b289      	uxth	r1, r1
20002148:	4351      	muls	r1, r2
2000214a:	185b      	adds	r3, r3, r1
2000214c:	d302      	bcc.n	20002154 <l16_1>
2000214e:	2101      	movs	r1, #1
20002150:	0409      	lsls	r1, r1, #16
20002152:	1864      	adds	r4, r4, r1

20002154 <l16_1>:
20002154:	0419      	lsls	r1, r3, #16
20002156:	0c1a      	lsrs	r2, r3, #16
20002158:	1809      	adds	r1, r1, r0
2000215a:	4162      	adcs	r2, r4
2000215c:	186d      	adds	r5, r5, r1
2000215e:	4156      	adcs	r6, r2
20002160:	2000      	movs	r0, #0
20002162:	4147      	adcs	r7, r0
20002164:	bc18      	pop	{r3, r4}
20002166:	02f9      	lsls	r1, r7, #11
20002168:	0d72      	lsrs	r2, r6, #21
2000216a:	4311      	orrs	r1, r2
2000216c:	02f0      	lsls	r0, r6, #11
2000216e:	0d6a      	lsrs	r2, r5, #21
20002170:	4310      	orrs	r0, r2
20002172:	02ed      	lsls	r5, r5, #11
20002174:	0d0a      	lsrs	r2, r1, #20
20002176:	d103      	bne.n	20002180 <l16_1+0x2c>
20002178:	196d      	adds	r5, r5, r5
2000217a:	4140      	adcs	r0, r0
2000217c:	4149      	adcs	r1, r1
2000217e:	3b01      	subs	r3, #1
20002180:	4e12      	ldr	r6, [pc, #72]	; (200021cc <dm_1+0xa>)
20002182:	1b9b      	subs	r3, r3, r6
20002184:	0076      	lsls	r6, r6, #1
20002186:	42b3      	cmp	r3, r6
20002188:	d20e      	bcs.n	200021a8 <dm_0>
2000218a:	006d      	lsls	r5, r5, #1
2000218c:	d307      	bcc.n	2000219e <l16_1+0x4a>
2000218e:	3001      	adds	r0, #1
20002190:	2600      	movs	r6, #0
20002192:	4171      	adcs	r1, r6
20002194:	4666      	mov	r6, ip
20002196:	4335      	orrs	r5, r6
20002198:	d101      	bne.n	2000219e <l16_1+0x4a>
2000219a:	0840      	lsrs	r0, r0, #1
2000219c:	0040      	lsls	r0, r0, #1
2000219e:	051b      	lsls	r3, r3, #20
200021a0:	18c9      	adds	r1, r1, r3

200021a2 <dm_2>:
200021a2:	07e4      	lsls	r4, r4, #31
200021a4:	4421      	add	r1, r4
200021a6:	bdf0      	pop	{r4, r5, r6, r7, pc}

200021a8 <dm_0>:
200021a8:	da0b      	bge.n	200021c2 <dm_1>
200021aa:	3301      	adds	r3, #1
200021ac:	d106      	bne.n	200021bc <dm_0+0x14>
200021ae:	3001      	adds	r0, #1
200021b0:	d104      	bne.n	200021bc <dm_0+0x14>
200021b2:	3101      	adds	r1, #1
200021b4:	0d4f      	lsrs	r7, r1, #21
200021b6:	d001      	beq.n	200021bc <dm_0+0x14>
200021b8:	0849      	lsrs	r1, r1, #1
200021ba:	e7f2      	b.n	200021a2 <dm_2>
200021bc:	07e1      	lsls	r1, r4, #31
200021be:	2000      	movs	r0, #0
200021c0:	bdf0      	pop	{r4, r5, r6, r7, pc}

200021c2 <dm_1>:
200021c2:	3601      	adds	r6, #1
200021c4:	0531      	lsls	r1, r6, #20
200021c6:	2000      	movs	r0, #0
200021c8:	e7eb      	b.n	200021a2 <dm_2>
200021ca:	0000      	.short	0x0000
200021cc:	000003ff 	.word	0x000003ff

200021d0 <ddiv_shim>:
200021d0:	b5f0      	push	{r4, r5, r6, r7, lr}

200021d2 <ddiv0>:
200021d2:	0d1c      	lsrs	r4, r3, #20
200021d4:	1e67      	subs	r7, r4, #1
200021d6:	053f      	lsls	r7, r7, #20
200021d8:	1bdb      	subs	r3, r3, r7
200021da:	0ae7      	lsrs	r7, r4, #11
200021dc:	0564      	lsls	r4, r4, #21
200021de:	0d64      	lsrs	r4, r4, #21
200021e0:	d002      	beq.n	200021e8 <l19_1>
200021e2:	1c66      	adds	r6, r4, #1
200021e4:	0af6      	lsrs	r6, r6, #11
200021e6:	d004      	beq.n	200021f2 <l19_2>

200021e8 <l19_1>:
200021e8:	2200      	movs	r2, #0
200021ea:	2301      	movs	r3, #1
200021ec:	051b      	lsls	r3, r3, #20
200021ee:	3c80      	subs	r4, #128	; 0x80
200021f0:	0324      	lsls	r4, r4, #12

200021f2 <l19_2>:
200021f2:	25d0      	movs	r5, #208	; 0xd0
200021f4:	062d      	lsls	r5, r5, #24
200021f6:	2600      	movs	r6, #0
200021f8:	43f6      	mvns	r6, r6
200021fa:	662e      	str	r6, [r5, #96]	; 0x60
200021fc:	091e      	lsrs	r6, r3, #4
200021fe:	666e      	str	r6, [r5, #100]	; 0x64
20002200:	0fce      	lsrs	r6, r1, #31
20002202:	19f6      	adds	r6, r6, r7
20002204:	46b4      	mov	ip, r6
20002206:	0049      	lsls	r1, r1, #1
20002208:	0d4f      	lsrs	r7, r1, #21
2000220a:	d002      	beq.n	20002212 <l19_2+0x20>
2000220c:	1c7e      	adds	r6, r7, #1
2000220e:	0af6      	lsrs	r6, r6, #11
20002210:	d003      	beq.n	2000221a <l19_2+0x28>
20002212:	2000      	movs	r0, #0
20002214:	2100      	movs	r1, #0
20002216:	3f40      	subs	r7, #64	; 0x40
20002218:	033f      	lsls	r7, r7, #12
2000221a:	1b3e      	subs	r6, r7, r4
2000221c:	00b6      	lsls	r6, r6, #2
2000221e:	44b4      	add	ip, r6
20002220:	3f01      	subs	r7, #1
20002222:	057f      	lsls	r7, r7, #21
20002224:	1bc9      	subs	r1, r1, r7
20002226:	0849      	lsrs	r1, r1, #1
20002228:	6f2e      	ldr	r6, [r5, #112]	; 0x70
2000222a:	3601      	adds	r6, #1
2000222c:	0876      	lsrs	r6, r6, #1
2000222e:	029c      	lsls	r4, r3, #10
20002230:	0d95      	lsrs	r5, r2, #22
20002232:	4325      	orrs	r5, r4
20002234:	4375      	muls	r5, r6
20002236:	13ed      	asrs	r5, r5, #15
20002238:	4375      	muls	r5, r6
2000223a:	13ad      	asrs	r5, r5, #14
2000223c:	3501      	adds	r5, #1
2000223e:	106d      	asrs	r5, r5, #1
20002240:	03f6      	lsls	r6, r6, #15
20002242:	1b76      	subs	r6, r6, r5
20002244:	b40c      	push	{r2, r3}
20002246:	02cc      	lsls	r4, r1, #11
20002248:	0d45      	lsrs	r5, r0, #21
2000224a:	432c      	orrs	r4, r5
2000224c:	b2a2      	uxth	r2, r4
2000224e:	b2b3      	uxth	r3, r6
20002250:	435a      	muls	r2, r3
20002252:	0c27      	lsrs	r7, r4, #16
20002254:	437b      	muls	r3, r7
20002256:	0c35      	lsrs	r5, r6, #16
20002258:	436f      	muls	r7, r5
2000225a:	b2a4      	uxth	r4, r4
2000225c:	436c      	muls	r4, r5
2000225e:	191b      	adds	r3, r3, r4
20002260:	d302      	bcc.n	20002268 <l20_1>
20002262:	2401      	movs	r4, #1
20002264:	0424      	lsls	r4, r4, #16
20002266:	193f      	adds	r7, r7, r4

20002268 <l20_1>:
20002268:	041c      	lsls	r4, r3, #16
2000226a:	0c1d      	lsrs	r5, r3, #16
2000226c:	18a4      	adds	r4, r4, r2
2000226e:	417d      	adcs	r5, r7
20002270:	1924      	adds	r4, r4, r4
20002272:	416d      	adcs	r5, r5
20002274:	9a00      	ldr	r2, [sp, #0]
20002276:	b291      	uxth	r1, r2
20002278:	b2ac      	uxth	r4, r5
2000227a:	4361      	muls	r1, r4
2000227c:	0c17      	lsrs	r7, r2, #16
2000227e:	437c      	muls	r4, r7
20002280:	0c2b      	lsrs	r3, r5, #16
20002282:	435f      	muls	r7, r3
20002284:	b292      	uxth	r2, r2
20002286:	435a      	muls	r2, r3
20002288:	18a4      	adds	r4, r4, r2
2000228a:	d302      	bcc.n	20002292 <l21_1>
2000228c:	2201      	movs	r2, #1
2000228e:	0412      	lsls	r2, r2, #16
20002290:	18bf      	adds	r7, r7, r2

20002292 <l21_1>:
20002292:	0422      	lsls	r2, r4, #16
20002294:	0c23      	lsrs	r3, r4, #16
20002296:	1852      	adds	r2, r2, r1
20002298:	417b      	adcs	r3, r7
2000229a:	9c01      	ldr	r4, [sp, #4]
2000229c:	436c      	muls	r4, r5
2000229e:	191b      	adds	r3, r3, r4
200022a0:	0e52      	lsrs	r2, r2, #25
200022a2:	01d9      	lsls	r1, r3, #7
200022a4:	430a      	orrs	r2, r1
200022a6:	0144      	lsls	r4, r0, #5
200022a8:	1aa0      	subs	r0, r4, r2
200022aa:	b281      	uxth	r1, r0
200022ac:	b2b2      	uxth	r2, r6
200022ae:	4351      	muls	r1, r2
200022b0:	1403      	asrs	r3, r0, #16
200022b2:	435a      	muls	r2, r3
200022b4:	0c36      	lsrs	r6, r6, #16
200022b6:	4373      	muls	r3, r6
200022b8:	b287      	uxth	r7, r0
200022ba:	4377      	muls	r7, r6
200022bc:	17d6      	asrs	r6, r2, #31
200022be:	19d2      	adds	r2, r2, r7
200022c0:	2700      	movs	r7, #0
200022c2:	417e      	adcs	r6, r7
200022c4:	0436      	lsls	r6, r6, #16
200022c6:	199b      	adds	r3, r3, r6
200022c8:	0417      	lsls	r7, r2, #16
200022ca:	0c16      	lsrs	r6, r2, #16
200022cc:	187f      	adds	r7, r7, r1
200022ce:	415e      	adcs	r6, r3
200022d0:	1673      	asrs	r3, r6, #25
200022d2:	18ed      	adds	r5, r5, r3
200022d4:	01f3      	lsls	r3, r6, #7
200022d6:	2600      	movs	r6, #0
200022d8:	3380      	adds	r3, #128	; 0x80
200022da:	4175      	adcs	r5, r6
200022dc:	0fa9      	lsrs	r1, r5, #30
200022de:	d106      	bne.n	200022ee <dd_0>
200022e0:	0064      	lsls	r4, r4, #1
200022e2:	0a69      	lsrs	r1, r5, #9
200022e4:	05e8      	lsls	r0, r5, #23
200022e6:	0a5b      	lsrs	r3, r3, #9
200022e8:	4318      	orrs	r0, r3
200022ea:	d209      	bcs.n	20002300 <dd_1>
200022ec:	e02f      	b.n	2000234e <dd_2>

200022ee <dd_0>:
200022ee:	2204      	movs	r2, #4
200022f0:	4494      	add	ip, r2
200022f2:	3380      	adds	r3, #128	; 0x80
200022f4:	4175      	adcs	r5, r6
200022f6:	0aa9      	lsrs	r1, r5, #10
200022f8:	05a8      	lsls	r0, r5, #22
200022fa:	0a9b      	lsrs	r3, r3, #10
200022fc:	4318      	orrs	r0, r3
200022fe:	d326      	bcc.n	2000234e <dd_2>

20002300 <dd_1>:
20002300:	4140      	adcs	r0, r0
20002302:	4149      	adcs	r1, r1
20002304:	0424      	lsls	r4, r4, #16
20002306:	9a00      	ldr	r2, [sp, #0]
20002308:	9b01      	ldr	r3, [sp, #4]
2000230a:	000d      	movs	r5, r1
2000230c:	4355      	muls	r5, r2
2000230e:	1b64      	subs	r4, r4, r5
20002310:	4343      	muls	r3, r0
20002312:	1ae4      	subs	r4, r4, r3
20002314:	b295      	uxth	r5, r2
20002316:	b286      	uxth	r6, r0
20002318:	4375      	muls	r5, r6
2000231a:	0c17      	lsrs	r7, r2, #16
2000231c:	437e      	muls	r6, r7
2000231e:	0c03      	lsrs	r3, r0, #16
20002320:	435f      	muls	r7, r3
20002322:	b292      	uxth	r2, r2
20002324:	435a      	muls	r2, r3
20002326:	18b6      	adds	r6, r6, r2
20002328:	d302      	bcc.n	20002330 <l23_1>
2000232a:	2201      	movs	r2, #1
2000232c:	0412      	lsls	r2, r2, #16
2000232e:	18bf      	adds	r7, r7, r2

20002330 <l23_1>:
20002330:	0432      	lsls	r2, r6, #16
20002332:	0c33      	lsrs	r3, r6, #16
20002334:	1952      	adds	r2, r2, r5
20002336:	417b      	adcs	r3, r7
20002338:	4252      	negs	r2, r2
2000233a:	419c      	sbcs	r4, r3
2000233c:	2c00      	cmp	r4, #0
2000233e:	d402      	bmi.n	20002346 <l23_1+0x16>
20002340:	2200      	movs	r2, #0
20002342:	3001      	adds	r0, #1
20002344:	4151      	adcs	r1, r2
20002346:	0840      	lsrs	r0, r0, #1
20002348:	07ca      	lsls	r2, r1, #31
2000234a:	4310      	orrs	r0, r2
2000234c:	0849      	lsrs	r1, r1, #1

2000234e <dd_2>:
2000234e:	b002      	add	sp, #8
20002350:	4662      	mov	r2, ip
20002352:	07d7      	lsls	r7, r2, #31
20002354:	1092      	asrs	r2, r2, #2
20002356:	4b08      	ldr	r3, [pc, #32]	; (20002378 <dd_4+0x6>)
20002358:	18d2      	adds	r2, r2, r3
2000235a:	4b08      	ldr	r3, [pc, #32]	; (2000237c <dd_4+0xa>)
2000235c:	429a      	cmp	r2, r3
2000235e:	d203      	bcs.n	20002368 <dd_3>
20002360:	0512      	lsls	r2, r2, #20
20002362:	1889      	adds	r1, r1, r2

20002364 <dd_5>:
20002364:	19c9      	adds	r1, r1, r7
20002366:	bdf0      	pop	{r4, r5, r6, r7, pc}

20002368 <dd_3>:
20002368:	2000      	movs	r0, #0
2000236a:	2a00      	cmp	r2, #0
2000236c:	dc01      	bgt.n	20002372 <dd_4>
2000236e:	0039      	movs	r1, r7
20002370:	bdf0      	pop	{r4, r5, r6, r7, pc}

20002372 <dd_4>:
20002372:	3301      	adds	r3, #1
20002374:	0519      	lsls	r1, r3, #20
20002376:	e7f5      	b.n	20002364 <dd_5>
20002378:	000003fd 	.word	0x000003fd
2000237c:	000007fe 	.word	0x000007fe

20002380 <double2uint_shim>:
20002380:	2200      	movs	r2, #0

20002382 <double2ufix_shim>:
20002382:	b500      	push	{lr}
20002384:	3220      	adds	r2, #32
20002386:	f000 f804 	bl	20002392 <double2ufix64_shim>
2000238a:	0008      	movs	r0, r1
2000238c:	bd00      	pop	{pc}
	...

20002390 <double2uint64_shim>:
20002390:	2200      	movs	r2, #0

20002392 <double2ufix64_shim>:
20002392:	150b      	asrs	r3, r1, #20
20002394:	d40a      	bmi.n	200023ac <ret_dzero>

20002396 <d2fix>:
20002396:	b510      	push	{r4, lr}
20002398:	4694      	mov	ip, r2
2000239a:	f000 f831 	bl	20002400 <dunpacks>
2000239e:	1414      	asrs	r4, r2, #16
200023a0:	3401      	adds	r4, #1
200023a2:	da00      	bge.n	200023a6 <d2fix+0x10>
200023a4:	2100      	movs	r1, #0
200023a6:	17cb      	asrs	r3, r1, #31
200023a8:	4c14      	ldr	r4, [pc, #80]	; (200023fc <d2fix_a+0x4a>)
200023aa:	4720      	bx	r4

200023ac <ret_dzero>:
200023ac:	2000      	movs	r0, #0
200023ae:	2100      	movs	r1, #0
200023b0:	4770      	bx	lr

200023b2 <d2fix_a>:
200023b2:	4462      	add	r2, ip
200023b4:	3a34      	subs	r2, #52	; 0x34
200023b6:	d40c      	bmi.n	200023d2 <d2fix_a+0x20>
200023b8:	2a0c      	cmp	r2, #12
200023ba:	da07      	bge.n	200023cc <d2fix_a+0x1a>
200023bc:	0004      	movs	r4, r0
200023be:	4091      	lsls	r1, r2
200023c0:	4090      	lsls	r0, r2
200023c2:	4252      	negs	r2, r2
200023c4:	3220      	adds	r2, #32
200023c6:	40d4      	lsrs	r4, r2
200023c8:	4321      	orrs	r1, r4
200023ca:	bd10      	pop	{r4, pc}
200023cc:	43d8      	mvns	r0, r3
200023ce:	43d9      	mvns	r1, r3
200023d0:	bd10      	pop	{r4, pc}
200023d2:	3220      	adds	r2, #32
200023d4:	d407      	bmi.n	200023e6 <d2fix_a+0x34>
200023d6:	460c      	mov	r4, r1
200023d8:	4094      	lsls	r4, r2
200023da:	4252      	negs	r2, r2
200023dc:	3220      	adds	r2, #32
200023de:	4111      	asrs	r1, r2
200023e0:	40d0      	lsrs	r0, r2
200023e2:	4320      	orrs	r0, r4
200023e4:	bd10      	pop	{r4, pc}
200023e6:	0008      	movs	r0, r1
200023e8:	17c9      	asrs	r1, r1, #31
200023ea:	3220      	adds	r2, #32
200023ec:	d403      	bmi.n	200023f6 <d2fix_a+0x44>
200023ee:	4252      	negs	r2, r2
200023f0:	3220      	adds	r2, #32
200023f2:	4110      	asrs	r0, r2
200023f4:	bd10      	pop	{r4, pc}
200023f6:	0018      	movs	r0, r3
200023f8:	0019      	movs	r1, r3
200023fa:	bd10      	pop	{r4, pc}
200023fc:	200023b3 	.word	0x200023b3

20002400 <dunpacks>:
20002400:	0d0a      	lsrs	r2, r1, #20
20002402:	0fcc      	lsrs	r4, r1, #31
20002404:	1e53      	subs	r3, r2, #1
20002406:	051b      	lsls	r3, r3, #20
20002408:	1ac9      	subs	r1, r1, r3
2000240a:	0552      	lsls	r2, r2, #21
2000240c:	d303      	bcc.n	20002416 <l59_1>
2000240e:	43c9      	mvns	r1, r1
20002410:	4240      	negs	r0, r0
20002412:	d300      	bcc.n	20002416 <l59_1>
20002414:	3101      	adds	r1, #1

20002416 <l59_1>:
20002416:	0d52      	lsrs	r2, r2, #21
20002418:	d003      	beq.n	20002422 <l59_2>
2000241a:	1c53      	adds	r3, r2, #1
2000241c:	0adb      	lsrs	r3, r3, #11
2000241e:	d007      	beq.n	20002430 <l59_3>
20002420:	1b12      	subs	r2, r2, r4

20002422 <l59_2>:
20002422:	2000      	movs	r0, #0
20002424:	0064      	lsls	r4, r4, #1
20002426:	1c61      	adds	r1, r4, #1
20002428:	0789      	lsls	r1, r1, #30
2000242a:	1289      	asrs	r1, r1, #10
2000242c:	3a80      	subs	r2, #128	; 0x80
2000242e:	0312      	lsls	r2, r2, #12

20002430 <l59_3>:
20002430:	4b01      	ldr	r3, [pc, #4]	; (20002438 <l59_3+0x8>)
20002432:	1ad2      	subs	r2, r2, r3
20002434:	4770      	bx	lr
20002436:	0000      	.short	0x0000
20002438:	000003ff 	.word	0x000003ff

2000243c <__aeabi_float_init>:
2000243c:	2313      	movs	r3, #19
2000243e:	b510      	push	{r4, lr}
20002440:	781c      	ldrb	r4, [r3, #0]
20002442:	4813      	ldr	r0, [pc, #76]	; (20002490 <__aeabi_float_init+0x54>)
20002444:	f7ff f8fa 	bl	2000163c <rom_data_lookup>
20002448:	2c01      	cmp	r4, #1
2000244a:	d00b      	beq.n	20002464 <__aeabi_float_init+0x28>
2000244c:	dd04      	ble.n	20002458 <__aeabi_float_init+0x1c>
2000244e:	0001      	movs	r1, r0
20002450:	2280      	movs	r2, #128	; 0x80
20002452:	4810      	ldr	r0, [pc, #64]	; (20002494 <__aeabi_float_init+0x58>)
20002454:	f000 f84a 	bl	200024ec <__wrap___aeabi_memcpy>
20002458:	480f      	ldr	r0, [pc, #60]	; (20002498 <__aeabi_float_init+0x5c>)
2000245a:	f7ff f8e7 	bl	2000162c <rom_func_lookup>
2000245e:	4b0f      	ldr	r3, [pc, #60]	; (2000249c <__aeabi_float_init+0x60>)
20002460:	6018      	str	r0, [r3, #0]
20002462:	bd10      	pop	{r4, pc}
20002464:	4c0b      	ldr	r4, [pc, #44]	; (20002494 <__aeabi_float_init+0x58>)
20002466:	0001      	movs	r1, r0
20002468:	2254      	movs	r2, #84	; 0x54
2000246a:	0020      	movs	r0, r4
2000246c:	f000 f83e 	bl	200024ec <__wrap___aeabi_memcpy>
20002470:	4b0b      	ldr	r3, [pc, #44]	; (200024a0 <__aeabi_float_init+0x64>)
20002472:	6563      	str	r3, [r4, #84]	; 0x54
20002474:	65a3      	str	r3, [r4, #88]	; 0x58
20002476:	65e3      	str	r3, [r4, #92]	; 0x5c
20002478:	6623      	str	r3, [r4, #96]	; 0x60
2000247a:	6663      	str	r3, [r4, #100]	; 0x64
2000247c:	66a3      	str	r3, [r4, #104]	; 0x68
2000247e:	66e3      	str	r3, [r4, #108]	; 0x6c
20002480:	6723      	str	r3, [r4, #112]	; 0x70
20002482:	6763      	str	r3, [r4, #116]	; 0x74
20002484:	67a3      	str	r3, [r4, #120]	; 0x78
20002486:	67e3      	str	r3, [r4, #124]	; 0x7c
20002488:	6223      	str	r3, [r4, #32]
2000248a:	61e3      	str	r3, [r4, #28]
2000248c:	e7e4      	b.n	20002458 <__aeabi_float_init+0x1c>
2000248e:	46c0      	nop			; (mov r8, r8)
20002490:	00004653 	.word	0x00004653
20002494:	20006924 	.word	0x20006924
20002498:	0000334c 	.word	0x0000334c
2000249c:	20006800 	.word	0x20006800
200024a0:	200024a5 	.word	0x200024a5

200024a4 <float_table_shim_on_use_helper>:
200024a4:	b507      	push	{r0, r1, r2, lr}
200024a6:	4660      	mov	r0, ip
200024a8:	8801      	ldrh	r1, [r0, #0]
200024aa:	0a0a      	lsrs	r2, r1, #8
200024ac:	3002      	adds	r0, #2
200024ae:	2adf      	cmp	r2, #223	; 0xdf
200024b0:	d1fa      	bne.n	200024a8 <float_table_shim_on_use_helper+0x4>
200024b2:	b2c9      	uxtb	r1, r1
200024b4:	0882      	lsrs	r2, r0, #2
200024b6:	d304      	bcc.n	200024c2 <float_table_shim_on_use_helper+0x1e>
200024b8:	8802      	ldrh	r2, [r0, #0]
200024ba:	8840      	ldrh	r0, [r0, #2]
200024bc:	0400      	lsls	r0, r0, #16
200024be:	4310      	orrs	r0, r2
200024c0:	e000      	b.n	200024c4 <float_table_shim_on_use_helper+0x20>
200024c2:	6800      	ldr	r0, [r0, #0]
200024c4:	4a01      	ldr	r2, [pc, #4]	; (200024cc <float_table_shim_on_use_helper+0x28>)
200024c6:	5050      	str	r0, [r2, r1]
200024c8:	9003      	str	r0, [sp, #12]
200024ca:	bd07      	pop	{r0, r1, r2, pc}
200024cc:	20006924 	.word	0x20006924

200024d0 <__aeabi_mem_init>:
200024d0:	4801      	ldr	r0, [pc, #4]	; (200024d8 <__aeabi_mem_init+0x8>)
200024d2:	2104      	movs	r1, #4
200024d4:	4b01      	ldr	r3, [pc, #4]	; (200024dc <__aeabi_mem_init+0xc>)
200024d6:	4718      	bx	r3
200024d8:	20005c60 	.word	0x20005c60
200024dc:	2000164d 	.word	0x2000164d

200024e0 <__wrap_memset>:
200024e0:	4b01      	ldr	r3, [pc, #4]	; (200024e8 <__wrap_memset+0x8>)
200024e2:	681b      	ldr	r3, [r3, #0]
200024e4:	4718      	bx	r3
200024e6:	0000      	.short	0x0000
200024e8:	20005c60 	.word	0x20005c60

200024ec <__wrap___aeabi_memcpy>:
200024ec:	4b01      	ldr	r3, [pc, #4]	; (200024f4 <__wrap___aeabi_memcpy+0x8>)
200024ee:	685b      	ldr	r3, [r3, #4]
200024f0:	4718      	bx	r3
200024f2:	0000      	.short	0x0000
200024f4:	20005c60 	.word	0x20005c60

200024f8 <runtime_init>:
200024f8:	4a2d      	ldr	r2, [pc, #180]	; (200025b0 <runtime_init+0xb8>)
200024fa:	4b2e      	ldr	r3, [pc, #184]	; (200025b4 <runtime_init+0xbc>)
200024fc:	b570      	push	{r4, r5, r6, lr}
200024fe:	601a      	str	r2, [r3, #0]
20002500:	4a2d      	ldr	r2, [pc, #180]	; (200025b8 <runtime_init+0xc0>)
20002502:	4b2e      	ldr	r3, [pc, #184]	; (200025bc <runtime_init+0xc4>)
20002504:	492e      	ldr	r1, [pc, #184]	; (200025c0 <runtime_init+0xc8>)
20002506:	601a      	str	r2, [r3, #0]
20002508:	0010      	movs	r0, r2
2000250a:	688b      	ldr	r3, [r1, #8]
2000250c:	4398      	bics	r0, r3
2000250e:	d1fb      	bne.n	20002508 <runtime_init+0x10>
20002510:	4e2c      	ldr	r6, [pc, #176]	; (200025c4 <runtime_init+0xcc>)
20002512:	4b2d      	ldr	r3, [pc, #180]	; (200025c8 <runtime_init+0xd0>)
20002514:	429e      	cmp	r6, r3
20002516:	d20a      	bcs.n	2000252e <runtime_init+0x36>
20002518:	43f5      	mvns	r5, r6
2000251a:	2400      	movs	r4, #0
2000251c:	18ed      	adds	r5, r5, r3
2000251e:	08ad      	lsrs	r5, r5, #2
20002520:	3501      	adds	r5, #1
20002522:	00a3      	lsls	r3, r4, #2
20002524:	58f3      	ldr	r3, [r6, r3]
20002526:	3401      	adds	r4, #1
20002528:	4798      	blx	r3
2000252a:	42ac      	cmp	r4, r5
2000252c:	d1f9      	bne.n	20002522 <runtime_init+0x2a>
2000252e:	f7fd fec1 	bl	200002b4 <clocks_init>
20002532:	4a26      	ldr	r2, [pc, #152]	; (200025cc <runtime_init+0xd4>)
20002534:	4b21      	ldr	r3, [pc, #132]	; (200025bc <runtime_init+0xc4>)
20002536:	601a      	str	r2, [r3, #0]
20002538:	4a21      	ldr	r2, [pc, #132]	; (200025c0 <runtime_init+0xc8>)
2000253a:	6893      	ldr	r3, [r2, #8]
2000253c:	01db      	lsls	r3, r3, #7
2000253e:	3380      	adds	r3, #128	; 0x80
20002540:	d1fb      	bne.n	2000253a <runtime_init+0x42>
20002542:	2240      	movs	r2, #64	; 0x40
20002544:	4b22      	ldr	r3, [pc, #136]	; (200025d0 <runtime_init+0xd8>)
20002546:	4c23      	ldr	r4, [pc, #140]	; (200025d4 <runtime_init+0xdc>)
20002548:	4d23      	ldr	r5, [pc, #140]	; (200025d8 <runtime_init+0xe0>)
2000254a:	679a      	str	r2, [r3, #120]	; 0x78
2000254c:	675a      	str	r2, [r3, #116]	; 0x74
2000254e:	671a      	str	r2, [r3, #112]	; 0x70
20002550:	66da      	str	r2, [r3, #108]	; 0x6c
20002552:	42ac      	cmp	r4, r5
20002554:	d208      	bcs.n	20002568 <runtime_init+0x70>
20002556:	6823      	ldr	r3, [r4, #0]
20002558:	0020      	movs	r0, r4
2000255a:	2b00      	cmp	r3, #0
2000255c:	d022      	beq.n	200025a4 <runtime_init+0xac>
2000255e:	3408      	adds	r4, #8
20002560:	f7fe ffca 	bl	200014f8 <recursive_mutex_init>
20002564:	42ac      	cmp	r4, r5
20002566:	d3f6      	bcc.n	20002556 <runtime_init+0x5e>
20002568:	4d1c      	ldr	r5, [pc, #112]	; (200025dc <runtime_init+0xe4>)
2000256a:	4c1d      	ldr	r4, [pc, #116]	; (200025e0 <runtime_init+0xe8>)
2000256c:	22c0      	movs	r2, #192	; 0xc0
2000256e:	68a1      	ldr	r1, [r4, #8]
20002570:	0028      	movs	r0, r5
20002572:	f7ff ffbb 	bl	200024ec <__wrap___aeabi_memcpy>
20002576:	60a5      	str	r5, [r4, #8]
20002578:	f7fd fe82 	bl	20000280 <spin_locks_reset>
2000257c:	f7fe f996 	bl	200008ac <irq_init_priorities>
20002580:	f7fe fb5a 	bl	20000c38 <alarm_pool_init_default>
20002584:	4e17      	ldr	r6, [pc, #92]	; (200025e4 <runtime_init+0xec>)
20002586:	4b18      	ldr	r3, [pc, #96]	; (200025e8 <runtime_init+0xf0>)
20002588:	429e      	cmp	r6, r3
2000258a:	d20a      	bcs.n	200025a2 <runtime_init+0xaa>
2000258c:	43f5      	mvns	r5, r6
2000258e:	2400      	movs	r4, #0
20002590:	18ed      	adds	r5, r5, r3
20002592:	08ad      	lsrs	r5, r5, #2
20002594:	3501      	adds	r5, #1
20002596:	00a3      	lsls	r3, r4, #2
20002598:	58f3      	ldr	r3, [r6, r3]
2000259a:	3401      	adds	r4, #1
2000259c:	4798      	blx	r3
2000259e:	42a5      	cmp	r5, r4
200025a0:	d1f9      	bne.n	20002596 <runtime_init+0x9e>
200025a2:	bd70      	pop	{r4, r5, r6, pc}
200025a4:	3408      	adds	r4, #8
200025a6:	f7fe ff99 	bl	200014dc <mutex_init>
200025aa:	42ac      	cmp	r4, r5
200025ac:	d3d3      	bcc.n	20002556 <runtime_init+0x5e>
200025ae:	e7db      	b.n	20002568 <runtime_init+0x70>
200025b0:	fefbcdbf 	.word	0xfefbcdbf
200025b4:	4000e000 	.word	0x4000e000
200025b8:	003c7ffe 	.word	0x003c7ffe
200025bc:	4000f000 	.word	0x4000f000
200025c0:	4000c000 	.word	0x4000c000
200025c4:	200064e8 	.word	0x200064e8
200025c8:	200064f8 	.word	0x200064f8
200025cc:	01ffffff 	.word	0x01ffffff
200025d0:	4001f000 	.word	0x4001f000
200025d4:	200064c8 	.word	0x200064c8
200025d8:	200064e8 	.word	0x200064e8
200025dc:	20000000 	.word	0x20000000
200025e0:	e000ed00 	.word	0xe000ed00
200025e4:	200064f8 	.word	0x200064f8
200025e8:	20006504 	.word	0x20006504

200025ec <_sbrk>:
200025ec:	4a09      	ldr	r2, [pc, #36]	; (20002614 <_sbrk+0x28>)
200025ee:	6813      	ldr	r3, [r2, #0]
200025f0:	2b00      	cmp	r3, #0
200025f2:	d006      	beq.n	20002602 <_sbrk+0x16>
200025f4:	4908      	ldr	r1, [pc, #32]	; (20002618 <_sbrk+0x2c>)
200025f6:	1818      	adds	r0, r3, r0
200025f8:	4288      	cmp	r0, r1
200025fa:	d808      	bhi.n	2000260e <_sbrk+0x22>
200025fc:	6010      	str	r0, [r2, #0]
200025fe:	0018      	movs	r0, r3
20002600:	4770      	bx	lr
20002602:	4b06      	ldr	r3, [pc, #24]	; (2000261c <_sbrk+0x30>)
20002604:	4904      	ldr	r1, [pc, #16]	; (20002618 <_sbrk+0x2c>)
20002606:	1818      	adds	r0, r3, r0
20002608:	6013      	str	r3, [r2, #0]
2000260a:	4288      	cmp	r0, r1
2000260c:	d9f6      	bls.n	200025fc <_sbrk+0x10>
2000260e:	2001      	movs	r0, #1
20002610:	4240      	negs	r0, r0
20002612:	e7f5      	b.n	20002600 <_sbrk+0x14>
20002614:	200067e0 	.word	0x200067e0
20002618:	20040000 	.word	0x20040000
2000261c:	20006a28 	.word	0x20006a28

20002620 <exit>:
20002620:	be00      	bkpt	0x0000
20002622:	e7fd      	b.n	20002620 <exit>

20002624 <panic>:
20002624:	b40f      	push	{r0, r1, r2, r3}
20002626:	b500      	push	{lr}
20002628:	4808      	ldr	r0, [pc, #32]	; (2000264c <panic+0x28>)
2000262a:	b083      	sub	sp, #12
2000262c:	f001 fcec 	bl	20004008 <__wrap_puts>
20002630:	9b04      	ldr	r3, [sp, #16]
20002632:	2b00      	cmp	r3, #0
20002634:	d007      	beq.n	20002646 <panic+0x22>
20002636:	a905      	add	r1, sp, #20
20002638:	0018      	movs	r0, r3
2000263a:	9101      	str	r1, [sp, #4]
2000263c:	f001 fc3c 	bl	20003eb8 <weak_raw_vprintf>
20002640:	4803      	ldr	r0, [pc, #12]	; (20002650 <panic+0x2c>)
20002642:	f001 fce1 	bl	20004008 <__wrap_puts>
20002646:	be00      	bkpt	0x0000
20002648:	e7fd      	b.n	20002646 <panic+0x22>
2000264a:	46c0      	nop			; (mov r8, r8)
2000264c:	200058bc 	.word	0x200058bc
20002650:	200058cc 	.word	0x200058cc

20002654 <hard_assertion_failure>:
20002654:	b510      	push	{r4, lr}
20002656:	4801      	ldr	r0, [pc, #4]	; (2000265c <hard_assertion_failure+0x8>)
20002658:	f7ff ffe4 	bl	20002624 <panic>
2000265c:	200058b0 	.word	0x200058b0

20002660 <_out_null>:
20002660:	4770      	bx	lr
20002662:	46c0      	nop			; (mov r8, r8)

20002664 <_out_fct>:
20002664:	b510      	push	{r4, lr}
20002666:	2800      	cmp	r0, #0
20002668:	d003      	beq.n	20002672 <_out_fct+0xe>
2000266a:	684a      	ldr	r2, [r1, #4]
2000266c:	680b      	ldr	r3, [r1, #0]
2000266e:	0011      	movs	r1, r2
20002670:	4798      	blx	r3
20002672:	bd10      	pop	{r4, pc}

20002674 <_out_char>:
20002674:	b510      	push	{r4, lr}
20002676:	2800      	cmp	r0, #0
20002678:	d100      	bne.n	2000267c <_out_char+0x8>
2000267a:	bd10      	pop	{r4, pc}
2000267c:	4b0b      	ldr	r3, [pc, #44]	; (200026ac <_out_char+0x38>)
2000267e:	681c      	ldr	r4, [r3, #0]
20002680:	68a2      	ldr	r2, [r4, #8]
20002682:	6893      	ldr	r3, [r2, #8]
20002684:	3b01      	subs	r3, #1
20002686:	6093      	str	r3, [r2, #8]
20002688:	2b00      	cmp	r3, #0
2000268a:	db04      	blt.n	20002696 <_out_char+0x22>
2000268c:	6813      	ldr	r3, [r2, #0]
2000268e:	1c59      	adds	r1, r3, #1
20002690:	6011      	str	r1, [r2, #0]
20002692:	7018      	strb	r0, [r3, #0]
20002694:	e7f1      	b.n	2000267a <_out_char+0x6>
20002696:	6991      	ldr	r1, [r2, #24]
20002698:	428b      	cmp	r3, r1
2000269a:	db01      	blt.n	200026a0 <_out_char+0x2c>
2000269c:	280a      	cmp	r0, #10
2000269e:	d1f5      	bne.n	2000268c <_out_char+0x18>
200026a0:	0001      	movs	r1, r0
200026a2:	0020      	movs	r0, r4
200026a4:	f002 f9b2 	bl	20004a0c <__swbuf_r>
200026a8:	e7e7      	b.n	2000267a <_out_char+0x6>
200026aa:	46c0      	nop			; (mov r8, r8)
200026ac:	20005c88 	.word	0x20005c88

200026b0 <_ntoa_format>:
200026b0:	b5f0      	push	{r4, r5, r6, r7, lr}
200026b2:	4645      	mov	r5, r8
200026b4:	46de      	mov	lr, fp
200026b6:	4657      	mov	r7, sl
200026b8:	464e      	mov	r6, r9
200026ba:	b5e0      	push	{r5, r6, r7, lr}
200026bc:	b083      	sub	sp, #12
200026be:	4699      	mov	r9, r3
200026c0:	ab0e      	add	r3, sp, #56	; 0x38
200026c2:	781d      	ldrb	r5, [r3, #0]
200026c4:	9b11      	ldr	r3, [sp, #68]	; 0x44
200026c6:	4688      	mov	r8, r1
200026c8:	469b      	mov	fp, r3
200026ca:	2302      	movs	r3, #2
200026cc:	9912      	ldr	r1, [sp, #72]	; 0x48
200026ce:	9200      	str	r2, [sp, #0]
200026d0:	400b      	ands	r3, r1
200026d2:	0007      	movs	r7, r0
200026d4:	9c0d      	ldr	r4, [sp, #52]	; 0x34
200026d6:	9a10      	ldr	r2, [sp, #64]	; 0x40
200026d8:	9301      	str	r3, [sp, #4]
200026da:	2b00      	cmp	r3, #0
200026dc:	d128      	bne.n	20002730 <_ntoa_format+0x80>
200026de:	465b      	mov	r3, fp
200026e0:	2b00      	cmp	r3, #0
200026e2:	d000      	beq.n	200026e6 <_ntoa_format+0x36>
200026e4:	e092      	b.n	2000280c <_ntoa_format+0x15c>
200026e6:	4294      	cmp	r4, r2
200026e8:	d222      	bcs.n	20002730 <_ntoa_format+0x80>
200026ea:	2601      	movs	r6, #1
200026ec:	400e      	ands	r6, r1
200026ee:	2c1f      	cmp	r4, #31
200026f0:	d81e      	bhi.n	20002730 <_ntoa_format+0x80>
200026f2:	9b0c      	ldr	r3, [sp, #48]	; 0x30
200026f4:	2030      	movs	r0, #48	; 0x30
200026f6:	191b      	adds	r3, r3, r4
200026f8:	e002      	b.n	20002700 <_ntoa_format+0x50>
200026fa:	3301      	adds	r3, #1
200026fc:	2c20      	cmp	r4, #32
200026fe:	d003      	beq.n	20002708 <_ntoa_format+0x58>
20002700:	3401      	adds	r4, #1
20002702:	7018      	strb	r0, [r3, #0]
20002704:	42a2      	cmp	r2, r4
20002706:	d8f8      	bhi.n	200026fa <_ntoa_format+0x4a>
20002708:	2e00      	cmp	r6, #0
2000270a:	d011      	beq.n	20002730 <_ntoa_format+0x80>
2000270c:	45a3      	cmp	fp, r4
2000270e:	d90f      	bls.n	20002730 <_ntoa_format+0x80>
20002710:	9b0c      	ldr	r3, [sp, #48]	; 0x30
20002712:	2030      	movs	r0, #48	; 0x30
20002714:	191b      	adds	r3, r3, r4
20002716:	465e      	mov	r6, fp
20002718:	2c1f      	cmp	r4, #31
2000271a:	d904      	bls.n	20002726 <_ntoa_format+0x76>
2000271c:	e087      	b.n	2000282e <_ntoa_format+0x17e>
2000271e:	3301      	adds	r3, #1
20002720:	2c20      	cmp	r4, #32
20002722:	d100      	bne.n	20002726 <_ntoa_format+0x76>
20002724:	e0a7      	b.n	20002876 <_ntoa_format+0x1c6>
20002726:	3401      	adds	r4, #1
20002728:	7018      	strb	r0, [r3, #0]
2000272a:	42b4      	cmp	r4, r6
2000272c:	d1f7      	bne.n	2000271e <_ntoa_format+0x6e>
2000272e:	46a3      	mov	fp, r4
20002730:	06cb      	lsls	r3, r1, #27
20002732:	d511      	bpl.n	20002758 <_ntoa_format+0xa8>
20002734:	054b      	lsls	r3, r1, #21
20002736:	d402      	bmi.n	2000273e <_ntoa_format+0x8e>
20002738:	2c00      	cmp	r4, #0
2000273a:	d000      	beq.n	2000273e <_ntoa_format+0x8e>
2000273c:	e07c      	b.n	20002838 <_ntoa_format+0x188>
2000273e:	9b0f      	ldr	r3, [sp, #60]	; 0x3c
20002740:	2b10      	cmp	r3, #16
20002742:	d100      	bne.n	20002746 <_ntoa_format+0x96>
20002744:	e0a0      	b.n	20002888 <_ntoa_format+0x1d8>
20002746:	2b02      	cmp	r3, #2
20002748:	d100      	bne.n	2000274c <_ntoa_format+0x9c>
2000274a:	e0a7      	b.n	2000289c <_ntoa_format+0x1ec>
2000274c:	2c1f      	cmp	r4, #31
2000274e:	d811      	bhi.n	20002774 <_ntoa_format+0xc4>
20002750:	2330      	movs	r3, #48	; 0x30
20002752:	9a0c      	ldr	r2, [sp, #48]	; 0x30
20002754:	5513      	strb	r3, [r2, r4]
20002756:	3401      	adds	r4, #1
20002758:	2c1f      	cmp	r4, #31
2000275a:	d80b      	bhi.n	20002774 <_ntoa_format+0xc4>
2000275c:	2d00      	cmp	r5, #0
2000275e:	d000      	beq.n	20002762 <_ntoa_format+0xb2>
20002760:	e079      	b.n	20002856 <_ntoa_format+0x1a6>
20002762:	074b      	lsls	r3, r1, #29
20002764:	d500      	bpl.n	20002768 <_ntoa_format+0xb8>
20002766:	e088      	b.n	2000287a <_ntoa_format+0x1ca>
20002768:	070b      	lsls	r3, r1, #28
2000276a:	d533      	bpl.n	200027d4 <_ntoa_format+0x124>
2000276c:	2320      	movs	r3, #32
2000276e:	9a0c      	ldr	r2, [sp, #48]	; 0x30
20002770:	5513      	strb	r3, [r2, r4]
20002772:	3401      	adds	r4, #1
20002774:	078b      	lsls	r3, r1, #30
20002776:	d030      	beq.n	200027da <_ntoa_format+0x12a>
20002778:	9e00      	ldr	r6, [sp, #0]
2000277a:	0025      	movs	r5, r4
2000277c:	46a2      	mov	sl, r4
2000277e:	0032      	movs	r2, r6
20002780:	4644      	mov	r4, r8
20002782:	46b0      	mov	r8, r6
20002784:	9b0c      	ldr	r3, [sp, #48]	; 0x30
20002786:	3d01      	subs	r5, #1
20002788:	1c56      	adds	r6, r2, #1
2000278a:	5d58      	ldrb	r0, [r3, r5]
2000278c:	0021      	movs	r1, r4
2000278e:	464b      	mov	r3, r9
20002790:	47b8      	blx	r7
20002792:	0032      	movs	r2, r6
20002794:	2d00      	cmp	r5, #0
20002796:	d1f5      	bne.n	20002784 <_ntoa_format+0xd4>
20002798:	4646      	mov	r6, r8
2000279a:	46a0      	mov	r8, r4
2000279c:	4654      	mov	r4, sl
2000279e:	1936      	adds	r6, r6, r4
200027a0:	9b01      	ldr	r3, [sp, #4]
200027a2:	2b00      	cmp	r3, #0
200027a4:	d00e      	beq.n	200027c4 <_ntoa_format+0x114>
200027a6:	9d00      	ldr	r5, [sp, #0]
200027a8:	1b73      	subs	r3, r6, r5
200027aa:	455b      	cmp	r3, fp
200027ac:	d20a      	bcs.n	200027c4 <_ntoa_format+0x114>
200027ae:	0032      	movs	r2, r6
200027b0:	4644      	mov	r4, r8
200027b2:	3601      	adds	r6, #1
200027b4:	464b      	mov	r3, r9
200027b6:	0021      	movs	r1, r4
200027b8:	2020      	movs	r0, #32
200027ba:	47b8      	blx	r7
200027bc:	0032      	movs	r2, r6
200027be:	1b73      	subs	r3, r6, r5
200027c0:	455b      	cmp	r3, fp
200027c2:	d3f6      	bcc.n	200027b2 <_ntoa_format+0x102>
200027c4:	0030      	movs	r0, r6
200027c6:	b003      	add	sp, #12
200027c8:	bc3c      	pop	{r2, r3, r4, r5}
200027ca:	4690      	mov	r8, r2
200027cc:	4699      	mov	r9, r3
200027ce:	46a2      	mov	sl, r4
200027d0:	46ab      	mov	fp, r5
200027d2:	bdf0      	pop	{r4, r5, r6, r7, pc}
200027d4:	9e00      	ldr	r6, [sp, #0]
200027d6:	078b      	lsls	r3, r1, #30
200027d8:	d115      	bne.n	20002806 <_ntoa_format+0x156>
200027da:	455c      	cmp	r4, fp
200027dc:	d26e      	bcs.n	200028bc <_ntoa_format+0x20c>
200027de:	9a00      	ldr	r2, [sp, #0]
200027e0:	940d      	str	r4, [sp, #52]	; 0x34
200027e2:	0013      	movs	r3, r2
200027e4:	445b      	add	r3, fp
200027e6:	1b1d      	subs	r5, r3, r4
200027e8:	9b0d      	ldr	r3, [sp, #52]	; 0x34
200027ea:	4644      	mov	r4, r8
200027ec:	4698      	mov	r8, r3
200027ee:	1c56      	adds	r6, r2, #1
200027f0:	464b      	mov	r3, r9
200027f2:	0021      	movs	r1, r4
200027f4:	2020      	movs	r0, #32
200027f6:	47b8      	blx	r7
200027f8:	0032      	movs	r2, r6
200027fa:	42b5      	cmp	r5, r6
200027fc:	d1f7      	bne.n	200027ee <_ntoa_format+0x13e>
200027fe:	4643      	mov	r3, r8
20002800:	46a0      	mov	r8, r4
20002802:	001c      	movs	r4, r3
20002804:	930d      	str	r3, [sp, #52]	; 0x34
20002806:	2c00      	cmp	r4, #0
20002808:	d1b7      	bne.n	2000277a <_ntoa_format+0xca>
2000280a:	e7c9      	b.n	200027a0 <_ntoa_format+0xf0>
2000280c:	2601      	movs	r6, #1
2000280e:	400e      	ands	r6, r1
20002810:	d028      	beq.n	20002864 <_ntoa_format+0x1b4>
20002812:	2d00      	cmp	r5, #0
20002814:	d12a      	bne.n	2000286c <_ntoa_format+0x1bc>
20002816:	230c      	movs	r3, #12
20002818:	420b      	tst	r3, r1
2000281a:	d127      	bne.n	2000286c <_ntoa_format+0x1bc>
2000281c:	4294      	cmp	r4, r2
2000281e:	d300      	bcc.n	20002822 <_ntoa_format+0x172>
20002820:	e774      	b.n	2000270c <_ntoa_format+0x5c>
20002822:	2c1f      	cmp	r4, #31
20002824:	d800      	bhi.n	20002828 <_ntoa_format+0x178>
20002826:	e764      	b.n	200026f2 <_ntoa_format+0x42>
20002828:	45a3      	cmp	fp, r4
2000282a:	d800      	bhi.n	2000282e <_ntoa_format+0x17e>
2000282c:	e780      	b.n	20002730 <_ntoa_format+0x80>
2000282e:	06cb      	lsls	r3, r1, #27
20002830:	d5a0      	bpl.n	20002774 <_ntoa_format+0xc4>
20002832:	054b      	lsls	r3, r1, #21
20002834:	d500      	bpl.n	20002838 <_ntoa_format+0x188>
20002836:	e782      	b.n	2000273e <_ntoa_format+0x8e>
20002838:	42a2      	cmp	r2, r4
2000283a:	d002      	beq.n	20002842 <_ntoa_format+0x192>
2000283c:	455c      	cmp	r4, fp
2000283e:	d000      	beq.n	20002842 <_ntoa_format+0x192>
20002840:	e77d      	b.n	2000273e <_ntoa_format+0x8e>
20002842:	1e63      	subs	r3, r4, #1
20002844:	2b00      	cmp	r3, #0
20002846:	d03b      	beq.n	200028c0 <_ntoa_format+0x210>
20002848:	9a0f      	ldr	r2, [sp, #60]	; 0x3c
2000284a:	3c02      	subs	r4, #2
2000284c:	2a10      	cmp	r2, #16
2000284e:	d01b      	beq.n	20002888 <_ntoa_format+0x1d8>
20002850:	001c      	movs	r4, r3
20002852:	0013      	movs	r3, r2
20002854:	e777      	b.n	20002746 <_ntoa_format+0x96>
20002856:	232d      	movs	r3, #45	; 0x2d
20002858:	9a0c      	ldr	r2, [sp, #48]	; 0x30
2000285a:	5513      	strb	r3, [r2, r4]
2000285c:	3401      	adds	r4, #1
2000285e:	078b      	lsls	r3, r1, #30
20002860:	d0bb      	beq.n	200027da <_ntoa_format+0x12a>
20002862:	e789      	b.n	20002778 <_ntoa_format+0xc8>
20002864:	4294      	cmp	r4, r2
20002866:	d200      	bcs.n	2000286a <_ntoa_format+0x1ba>
20002868:	e741      	b.n	200026ee <_ntoa_format+0x3e>
2000286a:	e761      	b.n	20002730 <_ntoa_format+0x80>
2000286c:	2301      	movs	r3, #1
2000286e:	425b      	negs	r3, r3
20002870:	469c      	mov	ip, r3
20002872:	44e3      	add	fp, ip
20002874:	e7d2      	b.n	2000281c <_ntoa_format+0x16c>
20002876:	46b3      	mov	fp, r6
20002878:	e7d9      	b.n	2000282e <_ntoa_format+0x17e>
2000287a:	232b      	movs	r3, #43	; 0x2b
2000287c:	9a0c      	ldr	r2, [sp, #48]	; 0x30
2000287e:	5513      	strb	r3, [r2, r4]
20002880:	3401      	adds	r4, #1
20002882:	078b      	lsls	r3, r1, #30
20002884:	d0a9      	beq.n	200027da <_ntoa_format+0x12a>
20002886:	e777      	b.n	20002778 <_ntoa_format+0xc8>
20002888:	068b      	lsls	r3, r1, #26
2000288a:	d40f      	bmi.n	200028ac <_ntoa_format+0x1fc>
2000288c:	2c1f      	cmp	r4, #31
2000288e:	d900      	bls.n	20002892 <_ntoa_format+0x1e2>
20002890:	e770      	b.n	20002774 <_ntoa_format+0xc4>
20002892:	2378      	movs	r3, #120	; 0x78
20002894:	9a0c      	ldr	r2, [sp, #48]	; 0x30
20002896:	5513      	strb	r3, [r2, r4]
20002898:	3401      	adds	r4, #1
2000289a:	e757      	b.n	2000274c <_ntoa_format+0x9c>
2000289c:	2c1f      	cmp	r4, #31
2000289e:	d900      	bls.n	200028a2 <_ntoa_format+0x1f2>
200028a0:	e768      	b.n	20002774 <_ntoa_format+0xc4>
200028a2:	9a0c      	ldr	r2, [sp, #48]	; 0x30
200028a4:	3360      	adds	r3, #96	; 0x60
200028a6:	5513      	strb	r3, [r2, r4]
200028a8:	3401      	adds	r4, #1
200028aa:	e74f      	b.n	2000274c <_ntoa_format+0x9c>
200028ac:	2c1f      	cmp	r4, #31
200028ae:	d900      	bls.n	200028b2 <_ntoa_format+0x202>
200028b0:	e760      	b.n	20002774 <_ntoa_format+0xc4>
200028b2:	2358      	movs	r3, #88	; 0x58
200028b4:	9a0c      	ldr	r2, [sp, #48]	; 0x30
200028b6:	5513      	strb	r3, [r2, r4]
200028b8:	3401      	adds	r4, #1
200028ba:	e747      	b.n	2000274c <_ntoa_format+0x9c>
200028bc:	9e00      	ldr	r6, [sp, #0]
200028be:	e7a2      	b.n	20002806 <_ntoa_format+0x156>
200028c0:	2400      	movs	r4, #0
200028c2:	e73c      	b.n	2000273e <_ntoa_format+0x8e>

200028c4 <_ftoa>:
200028c4:	b5f0      	push	{r4, r5, r6, r7, lr}
200028c6:	46de      	mov	lr, fp
200028c8:	4657      	mov	r7, sl
200028ca:	464e      	mov	r6, r9
200028cc:	4645      	mov	r5, r8
200028ce:	b5e0      	push	{r5, r6, r7, lr}
200028d0:	b097      	sub	sp, #92	; 0x5c
200028d2:	0005      	movs	r5, r0
200028d4:	000e      	movs	r6, r1
200028d6:	4693      	mov	fp, r2
200028d8:	001f      	movs	r7, r3
200028da:	9a20      	ldr	r2, [sp, #128]	; 0x80
200028dc:	9b21      	ldr	r3, [sp, #132]	; 0x84
200028de:	0010      	movs	r0, r2
200028e0:	0019      	movs	r1, r3
200028e2:	f7ff fa70 	bl	20001dc6 <__wrap___aeabi_dcmpun>
200028e6:	2800      	cmp	r0, #0
200028e8:	d000      	beq.n	200028ec <_ftoa+0x28>
200028ea:	e2d5      	b.n	20002e98 <_ftoa+0x5d4>
200028ec:	9820      	ldr	r0, [sp, #128]	; 0x80
200028ee:	9921      	ldr	r1, [sp, #132]	; 0x84
200028f0:	2201      	movs	r2, #1
200028f2:	4bbd      	ldr	r3, [pc, #756]	; (20002be8 <_ftoa+0x324>)
200028f4:	4252      	negs	r2, r2
200028f6:	f7ff fa53 	bl	20001da0 <__wrap___aeabi_dcmplt>
200028fa:	2800      	cmp	r0, #0
200028fc:	d000      	beq.n	20002900 <_ftoa+0x3c>
200028fe:	e181      	b.n	20002c04 <_ftoa+0x340>
20002900:	9820      	ldr	r0, [sp, #128]	; 0x80
20002902:	9921      	ldr	r1, [sp, #132]	; 0x84
20002904:	2201      	movs	r2, #1
20002906:	4bb9      	ldr	r3, [pc, #740]	; (20002bec <_ftoa+0x328>)
20002908:	4252      	negs	r2, r2
2000290a:	f7ff fa57 	bl	20001dbc <__wrap___aeabi_dcmpgt>
2000290e:	2800      	cmp	r0, #0
20002910:	d000      	beq.n	20002914 <_ftoa+0x50>
20002912:	e117      	b.n	20002b44 <_ftoa+0x280>
20002914:	9820      	ldr	r0, [sp, #128]	; 0x80
20002916:	9921      	ldr	r1, [sp, #132]	; 0x84
20002918:	2200      	movs	r2, #0
2000291a:	4bb5      	ldr	r3, [pc, #724]	; (20002bf0 <_ftoa+0x32c>)
2000291c:	f7ff fa4e 	bl	20001dbc <__wrap___aeabi_dcmpgt>
20002920:	2800      	cmp	r0, #0
20002922:	d000      	beq.n	20002926 <_ftoa+0x62>
20002924:	e1bc      	b.n	20002ca0 <_ftoa+0x3dc>
20002926:	9820      	ldr	r0, [sp, #128]	; 0x80
20002928:	9921      	ldr	r1, [sp, #132]	; 0x84
2000292a:	2200      	movs	r2, #0
2000292c:	4bb1      	ldr	r3, [pc, #708]	; (20002bf4 <_ftoa+0x330>)
2000292e:	f7ff fa37 	bl	20001da0 <__wrap___aeabi_dcmplt>
20002932:	2800      	cmp	r0, #0
20002934:	d000      	beq.n	20002938 <_ftoa+0x74>
20002936:	e1b3      	b.n	20002ca0 <_ftoa+0x3dc>
20002938:	9820      	ldr	r0, [sp, #128]	; 0x80
2000293a:	9921      	ldr	r1, [sp, #132]	; 0x84
2000293c:	2200      	movs	r2, #0
2000293e:	2300      	movs	r3, #0
20002940:	f7ff fa2e 	bl	20001da0 <__wrap___aeabi_dcmplt>
20002944:	2800      	cmp	r0, #0
20002946:	d000      	beq.n	2000294a <_ftoa+0x86>
20002948:	e254      	b.n	20002df4 <_ftoa+0x530>
2000294a:	2300      	movs	r3, #0
2000294c:	930d      	str	r3, [sp, #52]	; 0x34
2000294e:	2380      	movs	r3, #128	; 0x80
20002950:	9a24      	ldr	r2, [sp, #144]	; 0x90
20002952:	00db      	lsls	r3, r3, #3
20002954:	401a      	ands	r2, r3
20002956:	4691      	mov	r9, r2
20002958:	d000      	beq.n	2000295c <_ftoa+0x98>
2000295a:	e207      	b.n	20002d6c <_ftoa+0x4a8>
2000295c:	2300      	movs	r3, #0
2000295e:	4ca6      	ldr	r4, [pc, #664]	; (20002bf8 <_ftoa+0x334>)
20002960:	9308      	str	r3, [sp, #32]
20002962:	9409      	str	r4, [sp, #36]	; 0x24
20002964:	2406      	movs	r4, #6
20002966:	ab0e      	add	r3, sp, #56	; 0x38
20002968:	9307      	str	r3, [sp, #28]
2000296a:	9820      	ldr	r0, [sp, #128]	; 0x80
2000296c:	9921      	ldr	r1, [sp, #132]	; 0x84
2000296e:	f7ff fa55 	bl	20001e1c <__wrap___aeabi_d2iz>
20002972:	4680      	mov	r8, r0
20002974:	900c      	str	r0, [sp, #48]	; 0x30
20002976:	f7ff fa39 	bl	20001dec <__wrap___aeabi_i2d>
2000297a:	0002      	movs	r2, r0
2000297c:	000b      	movs	r3, r1
2000297e:	9820      	ldr	r0, [sp, #128]	; 0x80
20002980:	9921      	ldr	r1, [sp, #132]	; 0x84
20002982:	f7ff f99a 	bl	20001cba <__wrap___aeabi_dsub>
20002986:	9a08      	ldr	r2, [sp, #32]
20002988:	9b09      	ldr	r3, [sp, #36]	; 0x24
2000298a:	f7ff f9c6 	bl	20001d1a <__wrap___aeabi_dmul>
2000298e:	900a      	str	r0, [sp, #40]	; 0x28
20002990:	910b      	str	r1, [sp, #44]	; 0x2c
20002992:	f7ff fa67 	bl	20001e64 <__wrap___aeabi_d2uiz>
20002996:	4682      	mov	sl, r0
20002998:	f7ff fa24 	bl	20001de4 <__wrap___aeabi_ui2d>
2000299c:	0002      	movs	r2, r0
2000299e:	000b      	movs	r3, r1
200029a0:	980a      	ldr	r0, [sp, #40]	; 0x28
200029a2:	990b      	ldr	r1, [sp, #44]	; 0x2c
200029a4:	f7ff f989 	bl	20001cba <__wrap___aeabi_dsub>
200029a8:	2200      	movs	r2, #0
200029aa:	4b94      	ldr	r3, [pc, #592]	; (20002bfc <_ftoa+0x338>)
200029ac:	900a      	str	r0, [sp, #40]	; 0x28
200029ae:	910b      	str	r1, [sp, #44]	; 0x2c
200029b0:	f7ff fa04 	bl	20001dbc <__wrap___aeabi_dcmpgt>
200029b4:	2800      	cmp	r0, #0
200029b6:	d100      	bne.n	200029ba <_ftoa+0xf6>
200029b8:	e1c5      	b.n	20002d46 <_ftoa+0x482>
200029ba:	2301      	movs	r3, #1
200029bc:	469c      	mov	ip, r3
200029be:	44e2      	add	sl, ip
200029c0:	4650      	mov	r0, sl
200029c2:	f7ff fa0f 	bl	20001de4 <__wrap___aeabi_ui2d>
200029c6:	9a08      	ldr	r2, [sp, #32]
200029c8:	9b09      	ldr	r3, [sp, #36]	; 0x24
200029ca:	f7ff f9ef 	bl	20001dac <__wrap___aeabi_dcmpge>
200029ce:	2800      	cmp	r0, #0
200029d0:	d000      	beq.n	200029d4 <_ftoa+0x110>
200029d2:	e230      	b.n	20002e36 <_ftoa+0x572>
200029d4:	2c00      	cmp	r4, #0
200029d6:	d000      	beq.n	200029da <_ftoa+0x116>
200029d8:	e174      	b.n	20002cc4 <_ftoa+0x400>
200029da:	9c0c      	ldr	r4, [sp, #48]	; 0x30
200029dc:	0020      	movs	r0, r4
200029de:	f7ff fa05 	bl	20001dec <__wrap___aeabi_i2d>
200029e2:	0002      	movs	r2, r0
200029e4:	000b      	movs	r3, r1
200029e6:	9820      	ldr	r0, [sp, #128]	; 0x80
200029e8:	9921      	ldr	r1, [sp, #132]	; 0x84
200029ea:	f7ff f966 	bl	20001cba <__wrap___aeabi_dsub>
200029ee:	2200      	movs	r2, #0
200029f0:	4b82      	ldr	r3, [pc, #520]	; (20002bfc <_ftoa+0x338>)
200029f2:	9008      	str	r0, [sp, #32]
200029f4:	9109      	str	r1, [sp, #36]	; 0x24
200029f6:	f7ff f9d3 	bl	20001da0 <__wrap___aeabi_dcmplt>
200029fa:	2800      	cmp	r0, #0
200029fc:	d100      	bne.n	20002a00 <_ftoa+0x13c>
200029fe:	e20a      	b.n	20002e16 <_ftoa+0x552>
20002a00:	464b      	mov	r3, r9
20002a02:	2b20      	cmp	r3, #32
20002a04:	d100      	bne.n	20002a08 <_ftoa+0x144>
20002a06:	e196      	b.n	20002d36 <_ftoa+0x472>
20002a08:	1c5c      	adds	r4, r3, #1
20002a0a:	9b0c      	ldr	r3, [sp, #48]	; 0x30
20002a0c:	210a      	movs	r1, #10
20002a0e:	0018      	movs	r0, r3
20002a10:	4698      	mov	r8, r3
20002a12:	f7fe fee7 	bl	200017e4 <__wrap___aeabi_idiv>
20002a16:	464a      	mov	r2, r9
20002a18:	9b07      	ldr	r3, [sp, #28]
20002a1a:	3130      	adds	r1, #48	; 0x30
20002a1c:	5499      	strb	r1, [r3, r2]
20002a1e:	4640      	mov	r0, r8
20002a20:	210a      	movs	r1, #10
20002a22:	f7fe fedf 	bl	200017e4 <__wrap___aeabi_idiv>
20002a26:	9b07      	ldr	r3, [sp, #28]
20002a28:	4680      	mov	r8, r0
20002a2a:	4699      	mov	r9, r3
20002a2c:	44a1      	add	r9, r4
20002a2e:	2800      	cmp	r0, #0
20002a30:	d01b      	beq.n	20002a6a <_ftoa+0x1a6>
20002a32:	002a      	movs	r2, r5
20002a34:	0033      	movs	r3, r6
20002a36:	0025      	movs	r5, r4
20002a38:	464e      	mov	r6, r9
20002a3a:	4644      	mov	r4, r8
20002a3c:	4699      	mov	r9, r3
20002a3e:	4690      	mov	r8, r2
20002a40:	2d20      	cmp	r5, #32
20002a42:	d100      	bne.n	20002a46 <_ftoa+0x182>
20002a44:	e225      	b.n	20002e92 <_ftoa+0x5ce>
20002a46:	0020      	movs	r0, r4
20002a48:	210a      	movs	r1, #10
20002a4a:	f7fe fecb 	bl	200017e4 <__wrap___aeabi_idiv>
20002a4e:	3130      	adds	r1, #48	; 0x30
20002a50:	7031      	strb	r1, [r6, #0]
20002a52:	0020      	movs	r0, r4
20002a54:	210a      	movs	r1, #10
20002a56:	f7fe fec5 	bl	200017e4 <__wrap___aeabi_idiv>
20002a5a:	3501      	adds	r5, #1
20002a5c:	0004      	movs	r4, r0
20002a5e:	3601      	adds	r6, #1
20002a60:	2800      	cmp	r0, #0
20002a62:	d1ed      	bne.n	20002a40 <_ftoa+0x17c>
20002a64:	002c      	movs	r4, r5
20002a66:	464e      	mov	r6, r9
20002a68:	4645      	mov	r5, r8
20002a6a:	2303      	movs	r3, #3
20002a6c:	9a24      	ldr	r2, [sp, #144]	; 0x90
20002a6e:	4013      	ands	r3, r2
20002a70:	2b01      	cmp	r3, #1
20002a72:	d100      	bne.n	20002a76 <_ftoa+0x1b2>
20002a74:	e19b      	b.n	20002dae <_ftoa+0x4ea>
20002a76:	2220      	movs	r2, #32
20002a78:	4692      	mov	sl, r2
20002a7a:	2c20      	cmp	r4, #32
20002a7c:	d00c      	beq.n	20002a98 <_ftoa+0x1d4>
20002a7e:	9a0d      	ldr	r2, [sp, #52]	; 0x34
20002a80:	2a00      	cmp	r2, #0
20002a82:	d000      	beq.n	20002a86 <_ftoa+0x1c2>
20002a84:	e1c1      	b.n	20002e0a <_ftoa+0x546>
20002a86:	9a24      	ldr	r2, [sp, #144]	; 0x90
20002a88:	0752      	lsls	r2, r2, #29
20002a8a:	d400      	bmi.n	20002a8e <_ftoa+0x1ca>
20002a8c:	e24c      	b.n	20002f28 <_ftoa+0x664>
20002a8e:	1c62      	adds	r2, r4, #1
20002a90:	4692      	mov	sl, r2
20002a92:	222b      	movs	r2, #43	; 0x2b
20002a94:	9907      	ldr	r1, [sp, #28]
20002a96:	550a      	strb	r2, [r1, r4]
20002a98:	465a      	mov	r2, fp
20002a9a:	9208      	str	r2, [sp, #32]
20002a9c:	2b00      	cmp	r3, #0
20002a9e:	d117      	bne.n	20002ad0 <_ftoa+0x20c>
20002aa0:	9b23      	ldr	r3, [sp, #140]	; 0x8c
20002aa2:	459a      	cmp	sl, r3
20002aa4:	d300      	bcc.n	20002aa8 <_ftoa+0x1e4>
20002aa6:	e24f      	b.n	20002f48 <_ftoa+0x684>
20002aa8:	445b      	add	r3, fp
20002aaa:	001c      	movs	r4, r3
20002aac:	4653      	mov	r3, sl
20002aae:	1ae4      	subs	r4, r4, r3
20002ab0:	46b8      	mov	r8, r7
20002ab2:	0037      	movs	r7, r6
20002ab4:	002e      	movs	r6, r5
20002ab6:	0025      	movs	r5, r4
20002ab8:	1c54      	adds	r4, r2, #1
20002aba:	4643      	mov	r3, r8
20002abc:	0039      	movs	r1, r7
20002abe:	2020      	movs	r0, #32
20002ac0:	47b0      	blx	r6
20002ac2:	0022      	movs	r2, r4
20002ac4:	42ac      	cmp	r4, r5
20002ac6:	d1f7      	bne.n	20002ab8 <_ftoa+0x1f4>
20002ac8:	0035      	movs	r5, r6
20002aca:	003e      	movs	r6, r7
20002acc:	4647      	mov	r7, r8
20002ace:	9408      	str	r4, [sp, #32]
20002ad0:	4653      	mov	r3, sl
20002ad2:	1e5c      	subs	r4, r3, #1
20002ad4:	9b07      	ldr	r3, [sp, #28]
20002ad6:	aa08      	add	r2, sp, #32
20002ad8:	469c      	mov	ip, r3
20002ada:	2317      	movs	r3, #23
20002adc:	4464      	add	r4, ip
20002ade:	4694      	mov	ip, r2
20002ae0:	4463      	add	r3, ip
20002ae2:	46b9      	mov	r9, r7
20002ae4:	4698      	mov	r8, r3
20002ae6:	0037      	movs	r7, r6
20002ae8:	002e      	movs	r6, r5
20002aea:	9a08      	ldr	r2, [sp, #32]
20002aec:	1c55      	adds	r5, r2, #1
20002aee:	7820      	ldrb	r0, [r4, #0]
20002af0:	464b      	mov	r3, r9
20002af2:	0039      	movs	r1, r7
20002af4:	3c01      	subs	r4, #1
20002af6:	47b0      	blx	r6
20002af8:	002a      	movs	r2, r5
20002afa:	45a0      	cmp	r8, r4
20002afc:	d1f6      	bne.n	20002aec <_ftoa+0x228>
20002afe:	9b08      	ldr	r3, [sp, #32]
20002b00:	0035      	movs	r5, r6
20002b02:	4453      	add	r3, sl
20002b04:	001c      	movs	r4, r3
20002b06:	9b24      	ldr	r3, [sp, #144]	; 0x90
20002b08:	003e      	movs	r6, r7
20002b0a:	079b      	lsls	r3, r3, #30
20002b0c:	d512      	bpl.n	20002b34 <_ftoa+0x270>
20002b0e:	465b      	mov	r3, fp
20002b10:	9a23      	ldr	r2, [sp, #140]	; 0x8c
20002b12:	1ae3      	subs	r3, r4, r3
20002b14:	429a      	cmp	r2, r3
20002b16:	d90d      	bls.n	20002b34 <_ftoa+0x270>
20002b18:	0013      	movs	r3, r2
20002b1a:	46c8      	mov	r8, r9
20002b1c:	0022      	movs	r2, r4
20002b1e:	465f      	mov	r7, fp
20002b20:	4699      	mov	r9, r3
20002b22:	3401      	adds	r4, #1
20002b24:	4643      	mov	r3, r8
20002b26:	0031      	movs	r1, r6
20002b28:	2020      	movs	r0, #32
20002b2a:	47a8      	blx	r5
20002b2c:	0022      	movs	r2, r4
20002b2e:	1be3      	subs	r3, r4, r7
20002b30:	4599      	cmp	r9, r3
20002b32:	d8f6      	bhi.n	20002b22 <_ftoa+0x25e>
20002b34:	0020      	movs	r0, r4
20002b36:	b017      	add	sp, #92	; 0x5c
20002b38:	bc3c      	pop	{r2, r3, r4, r5}
20002b3a:	4690      	mov	r8, r2
20002b3c:	4699      	mov	r9, r3
20002b3e:	46a2      	mov	sl, r4
20002b40:	46ab      	mov	fp, r5
20002b42:	bdf0      	pop	{r4, r5, r6, r7, pc}
20002b44:	9b24      	ldr	r3, [sp, #144]	; 0x90
20002b46:	075b      	lsls	r3, r3, #29
20002b48:	d500      	bpl.n	20002b4c <_ftoa+0x288>
20002b4a:	e0a4      	b.n	20002c96 <_ftoa+0x3d2>
20002b4c:	4b2c      	ldr	r3, [pc, #176]	; (20002c00 <_ftoa+0x33c>)
20002b4e:	469a      	mov	sl, r3
20002b50:	2303      	movs	r3, #3
20002b52:	9307      	str	r3, [sp, #28]
20002b54:	9b24      	ldr	r3, [sp, #144]	; 0x90
20002b56:	46d8      	mov	r8, fp
20002b58:	079b      	lsls	r3, r3, #30
20002b5a:	d119      	bne.n	20002b90 <_ftoa+0x2cc>
20002b5c:	9b07      	ldr	r3, [sp, #28]
20002b5e:	9923      	ldr	r1, [sp, #140]	; 0x8c
20002b60:	428b      	cmp	r3, r1
20002b62:	d300      	bcc.n	20002b66 <_ftoa+0x2a2>
20002b64:	e1ec      	b.n	20002f40 <_ftoa+0x67c>
20002b66:	465a      	mov	r2, fp
20002b68:	1a9b      	subs	r3, r3, r2
20002b6a:	4698      	mov	r8, r3
20002b6c:	9b23      	ldr	r3, [sp, #140]	; 0x8c
20002b6e:	4699      	mov	r9, r3
20002b70:	003b      	movs	r3, r7
20002b72:	0031      	movs	r1, r6
20002b74:	2020      	movs	r0, #32
20002b76:	1c54      	adds	r4, r2, #1
20002b78:	47a8      	blx	r5
20002b7a:	4643      	mov	r3, r8
20002b7c:	191b      	adds	r3, r3, r4
20002b7e:	0022      	movs	r2, r4
20002b80:	4599      	cmp	r9, r3
20002b82:	d8f5      	bhi.n	20002b70 <_ftoa+0x2ac>
20002b84:	9b23      	ldr	r3, [sp, #140]	; 0x8c
20002b86:	445b      	add	r3, fp
20002b88:	001c      	movs	r4, r3
20002b8a:	9b07      	ldr	r3, [sp, #28]
20002b8c:	1ae3      	subs	r3, r4, r3
20002b8e:	4698      	mov	r8, r3
20002b90:	46b1      	mov	r9, r6
20002b92:	4642      	mov	r2, r8
20002b94:	4656      	mov	r6, sl
20002b96:	46ba      	mov	sl, r7
20002b98:	002f      	movs	r7, r5
20002b9a:	9c07      	ldr	r4, [sp, #28]
20002b9c:	3c01      	subs	r4, #1
20002b9e:	1c55      	adds	r5, r2, #1
20002ba0:	5d30      	ldrb	r0, [r6, r4]
20002ba2:	4653      	mov	r3, sl
20002ba4:	4649      	mov	r1, r9
20002ba6:	47b8      	blx	r7
20002ba8:	002a      	movs	r2, r5
20002baa:	2c00      	cmp	r4, #0
20002bac:	d1f6      	bne.n	20002b9c <_ftoa+0x2d8>
20002bae:	9b07      	ldr	r3, [sp, #28]
20002bb0:	003d      	movs	r5, r7
20002bb2:	4443      	add	r3, r8
20002bb4:	001c      	movs	r4, r3
20002bb6:	9b24      	ldr	r3, [sp, #144]	; 0x90
20002bb8:	464e      	mov	r6, r9
20002bba:	079b      	lsls	r3, r3, #30
20002bbc:	d5ba      	bpl.n	20002b34 <_ftoa+0x270>
20002bbe:	465b      	mov	r3, fp
20002bc0:	9a23      	ldr	r2, [sp, #140]	; 0x8c
20002bc2:	1ae3      	subs	r3, r4, r3
20002bc4:	429a      	cmp	r2, r3
20002bc6:	d9b5      	bls.n	20002b34 <_ftoa+0x270>
20002bc8:	0013      	movs	r3, r2
20002bca:	46d0      	mov	r8, sl
20002bcc:	0022      	movs	r2, r4
20002bce:	465f      	mov	r7, fp
20002bd0:	4699      	mov	r9, r3
20002bd2:	3401      	adds	r4, #1
20002bd4:	4643      	mov	r3, r8
20002bd6:	0031      	movs	r1, r6
20002bd8:	2020      	movs	r0, #32
20002bda:	47a8      	blx	r5
20002bdc:	0022      	movs	r2, r4
20002bde:	1be3      	subs	r3, r4, r7
20002be0:	4599      	cmp	r9, r3
20002be2:	d8f6      	bhi.n	20002bd2 <_ftoa+0x30e>
20002be4:	e7a6      	b.n	20002b34 <_ftoa+0x270>
20002be6:	46c0      	nop			; (mov r8, r8)
20002be8:	ffefffff 	.word	0xffefffff
20002bec:	7fefffff 	.word	0x7fefffff
20002bf0:	41cdcd65 	.word	0x41cdcd65
20002bf4:	c1cdcd65 	.word	0xc1cdcd65
20002bf8:	412e8480 	.word	0x412e8480
20002bfc:	3fe00000 	.word	0x3fe00000
20002c00:	20005ab8 	.word	0x20005ab8
20002c04:	9b24      	ldr	r3, [sp, #144]	; 0x90
20002c06:	46d8      	mov	r8, fp
20002c08:	079b      	lsls	r3, r3, #30
20002c0a:	d116      	bne.n	20002c3a <_ftoa+0x376>
20002c0c:	9b23      	ldr	r3, [sp, #140]	; 0x8c
20002c0e:	2b04      	cmp	r3, #4
20002c10:	d800      	bhi.n	20002c14 <_ftoa+0x350>
20002c12:	e197      	b.n	20002f44 <_ftoa+0x680>
20002c14:	1f1c      	subs	r4, r3, #4
20002c16:	445c      	add	r4, fp
20002c18:	46b8      	mov	r8, r7
20002c1a:	465a      	mov	r2, fp
20002c1c:	0037      	movs	r7, r6
20002c1e:	002e      	movs	r6, r5
20002c20:	0025      	movs	r5, r4
20002c22:	1c54      	adds	r4, r2, #1
20002c24:	4643      	mov	r3, r8
20002c26:	0039      	movs	r1, r7
20002c28:	2020      	movs	r0, #32
20002c2a:	47b0      	blx	r6
20002c2c:	0022      	movs	r2, r4
20002c2e:	42ac      	cmp	r4, r5
20002c30:	d1f7      	bne.n	20002c22 <_ftoa+0x35e>
20002c32:	0035      	movs	r5, r6
20002c34:	003e      	movs	r6, r7
20002c36:	4647      	mov	r7, r8
20002c38:	46a0      	mov	r8, r4
20002c3a:	4bce      	ldr	r3, [pc, #824]	; (20002f74 <_ftoa+0x6b0>)
20002c3c:	46b9      	mov	r9, r7
20002c3e:	4642      	mov	r2, r8
20002c40:	0037      	movs	r7, r6
20002c42:	2404      	movs	r4, #4
20002c44:	469a      	mov	sl, r3
20002c46:	002e      	movs	r6, r5
20002c48:	4653      	mov	r3, sl
20002c4a:	3c01      	subs	r4, #1
20002c4c:	1c55      	adds	r5, r2, #1
20002c4e:	5d18      	ldrb	r0, [r3, r4]
20002c50:	0039      	movs	r1, r7
20002c52:	464b      	mov	r3, r9
20002c54:	47b0      	blx	r6
20002c56:	002a      	movs	r2, r5
20002c58:	2c00      	cmp	r4, #0
20002c5a:	d1f5      	bne.n	20002c48 <_ftoa+0x384>
20002c5c:	4644      	mov	r4, r8
20002c5e:	9b24      	ldr	r3, [sp, #144]	; 0x90
20002c60:	0035      	movs	r5, r6
20002c62:	3404      	adds	r4, #4
20002c64:	003e      	movs	r6, r7
20002c66:	079b      	lsls	r3, r3, #30
20002c68:	d400      	bmi.n	20002c6c <_ftoa+0x3a8>
20002c6a:	e763      	b.n	20002b34 <_ftoa+0x270>
20002c6c:	465b      	mov	r3, fp
20002c6e:	9a23      	ldr	r2, [sp, #140]	; 0x8c
20002c70:	1ae3      	subs	r3, r4, r3
20002c72:	429a      	cmp	r2, r3
20002c74:	d800      	bhi.n	20002c78 <_ftoa+0x3b4>
20002c76:	e75d      	b.n	20002b34 <_ftoa+0x270>
20002c78:	0013      	movs	r3, r2
20002c7a:	46c8      	mov	r8, r9
20002c7c:	0022      	movs	r2, r4
20002c7e:	465f      	mov	r7, fp
20002c80:	4699      	mov	r9, r3
20002c82:	3401      	adds	r4, #1
20002c84:	4643      	mov	r3, r8
20002c86:	0031      	movs	r1, r6
20002c88:	2020      	movs	r0, #32
20002c8a:	47a8      	blx	r5
20002c8c:	0022      	movs	r2, r4
20002c8e:	1be3      	subs	r3, r4, r7
20002c90:	4599      	cmp	r9, r3
20002c92:	d8f6      	bhi.n	20002c82 <_ftoa+0x3be>
20002c94:	e74e      	b.n	20002b34 <_ftoa+0x270>
20002c96:	4bb8      	ldr	r3, [pc, #736]	; (20002f78 <_ftoa+0x6b4>)
20002c98:	469a      	mov	sl, r3
20002c9a:	2304      	movs	r3, #4
20002c9c:	9307      	str	r3, [sp, #28]
20002c9e:	e759      	b.n	20002b54 <_ftoa+0x290>
20002ca0:	9b24      	ldr	r3, [sp, #144]	; 0x90
20002ca2:	465a      	mov	r2, fp
20002ca4:	9304      	str	r3, [sp, #16]
20002ca6:	9b23      	ldr	r3, [sp, #140]	; 0x8c
20002ca8:	0031      	movs	r1, r6
20002caa:	9303      	str	r3, [sp, #12]
20002cac:	9b22      	ldr	r3, [sp, #136]	; 0x88
20002cae:	0028      	movs	r0, r5
20002cb0:	9302      	str	r3, [sp, #8]
20002cb2:	9b20      	ldr	r3, [sp, #128]	; 0x80
20002cb4:	9c21      	ldr	r4, [sp, #132]	; 0x84
20002cb6:	9300      	str	r3, [sp, #0]
20002cb8:	9401      	str	r4, [sp, #4]
20002cba:	003b      	movs	r3, r7
20002cbc:	f000 f964 	bl	20002f88 <_etoa.part.1>
20002cc0:	0004      	movs	r4, r0
20002cc2:	e737      	b.n	20002b34 <_ftoa+0x270>
20002cc4:	464b      	mov	r3, r9
20002cc6:	2b20      	cmp	r3, #32
20002cc8:	d035      	beq.n	20002d36 <_ftoa+0x472>
20002cca:	1e63      	subs	r3, r4, #1
20002ccc:	4698      	mov	r8, r3
20002cce:	464b      	mov	r3, r9
20002cd0:	210a      	movs	r1, #10
20002cd2:	4650      	mov	r0, sl
20002cd4:	1c5c      	adds	r4, r3, #1
20002cd6:	f7fe fdad 	bl	20001834 <__wrap___aeabi_uidiv>
20002cda:	464a      	mov	r2, r9
20002cdc:	9b07      	ldr	r3, [sp, #28]
20002cde:	3130      	adds	r1, #48	; 0x30
20002ce0:	5499      	strb	r1, [r3, r2]
20002ce2:	4650      	mov	r0, sl
20002ce4:	210a      	movs	r1, #10
20002ce6:	f7fe fda5 	bl	20001834 <__wrap___aeabi_uidiv>
20002cea:	4681      	mov	r9, r0
20002cec:	2800      	cmp	r0, #0
20002cee:	d100      	bne.n	20002cf2 <_ftoa+0x42e>
20002cf0:	e0b6      	b.n	20002e60 <_ftoa+0x59c>
20002cf2:	9b07      	ldr	r3, [sp, #28]
20002cf4:	469a      	mov	sl, r3
20002cf6:	003b      	movs	r3, r7
20002cf8:	44a2      	add	sl, r4
20002cfa:	4647      	mov	r7, r8
20002cfc:	46a8      	mov	r8, r5
20002cfe:	0025      	movs	r5, r4
20002d00:	464c      	mov	r4, r9
20002d02:	46b1      	mov	r9, r6
20002d04:	4656      	mov	r6, sl
20002d06:	469a      	mov	sl, r3
20002d08:	e010      	b.n	20002d2c <_ftoa+0x468>
20002d0a:	0020      	movs	r0, r4
20002d0c:	210a      	movs	r1, #10
20002d0e:	f7fe fd91 	bl	20001834 <__wrap___aeabi_uidiv>
20002d12:	3130      	adds	r1, #48	; 0x30
20002d14:	7031      	strb	r1, [r6, #0]
20002d16:	0020      	movs	r0, r4
20002d18:	210a      	movs	r1, #10
20002d1a:	f7fe fd8b 	bl	20001834 <__wrap___aeabi_uidiv>
20002d1e:	3f01      	subs	r7, #1
20002d20:	3501      	adds	r5, #1
20002d22:	0004      	movs	r4, r0
20002d24:	3601      	adds	r6, #1
20002d26:	2800      	cmp	r0, #0
20002d28:	d100      	bne.n	20002d2c <_ftoa+0x468>
20002d2a:	e094      	b.n	20002e56 <_ftoa+0x592>
20002d2c:	2d20      	cmp	r5, #32
20002d2e:	d1ec      	bne.n	20002d0a <_ftoa+0x446>
20002d30:	4645      	mov	r5, r8
20002d32:	464e      	mov	r6, r9
20002d34:	4657      	mov	r7, sl
20002d36:	2303      	movs	r3, #3
20002d38:	9a24      	ldr	r2, [sp, #144]	; 0x90
20002d3a:	4013      	ands	r3, r2
20002d3c:	2b01      	cmp	r3, #1
20002d3e:	d035      	beq.n	20002dac <_ftoa+0x4e8>
20002d40:	2220      	movs	r2, #32
20002d42:	4692      	mov	sl, r2
20002d44:	e6a8      	b.n	20002a98 <_ftoa+0x1d4>
20002d46:	2200      	movs	r2, #0
20002d48:	980a      	ldr	r0, [sp, #40]	; 0x28
20002d4a:	990b      	ldr	r1, [sp, #44]	; 0x2c
20002d4c:	4b8b      	ldr	r3, [pc, #556]	; (20002f7c <_ftoa+0x6b8>)
20002d4e:	f7ff f827 	bl	20001da0 <__wrap___aeabi_dcmplt>
20002d52:	2800      	cmp	r0, #0
20002d54:	d000      	beq.n	20002d58 <_ftoa+0x494>
20002d56:	e63d      	b.n	200029d4 <_ftoa+0x110>
20002d58:	4653      	mov	r3, sl
20002d5a:	2b00      	cmp	r3, #0
20002d5c:	d002      	beq.n	20002d64 <_ftoa+0x4a0>
20002d5e:	07db      	lsls	r3, r3, #31
20002d60:	d400      	bmi.n	20002d64 <_ftoa+0x4a0>
20002d62:	e637      	b.n	200029d4 <_ftoa+0x110>
20002d64:	2301      	movs	r3, #1
20002d66:	469c      	mov	ip, r3
20002d68:	44e2      	add	sl, ip
20002d6a:	e633      	b.n	200029d4 <_ftoa+0x110>
20002d6c:	9b22      	ldr	r3, [sp, #136]	; 0x88
20002d6e:	2b09      	cmp	r3, #9
20002d70:	d800      	bhi.n	20002d74 <_ftoa+0x4b0>
20002d72:	e0f2      	b.n	20002f5a <_ftoa+0x696>
20002d74:	2201      	movs	r2, #1
20002d76:	2330      	movs	r3, #48	; 0x30
20002d78:	4691      	mov	r9, r2
20002d7a:	a80e      	add	r0, sp, #56	; 0x38
20002d7c:	7003      	strb	r3, [r0, #0]
20002d7e:	9b22      	ldr	r3, [sp, #136]	; 0x88
20002d80:	9007      	str	r0, [sp, #28]
20002d82:	1e5c      	subs	r4, r3, #1
20002d84:	322f      	adds	r2, #47	; 0x2f
20002d86:	3b09      	subs	r3, #9
20002d88:	4649      	mov	r1, r9
20002d8a:	e004      	b.n	20002d96 <_ftoa+0x4d2>
20002d8c:	5442      	strb	r2, [r0, r1]
20002d8e:	3101      	adds	r1, #1
20002d90:	3c01      	subs	r4, #1
20002d92:	2920      	cmp	r1, #32
20002d94:	d001      	beq.n	20002d9a <_ftoa+0x4d6>
20002d96:	428b      	cmp	r3, r1
20002d98:	d1f8      	bne.n	20002d8c <_ftoa+0x4c8>
20002d9a:	4b79      	ldr	r3, [pc, #484]	; (20002f80 <_ftoa+0x6bc>)
20002d9c:	00e2      	lsls	r2, r4, #3
20002d9e:	189b      	adds	r3, r3, r2
20002da0:	681a      	ldr	r2, [r3, #0]
20002da2:	685b      	ldr	r3, [r3, #4]
20002da4:	4689      	mov	r9, r1
20002da6:	9208      	str	r2, [sp, #32]
20002da8:	9309      	str	r3, [sp, #36]	; 0x24
20002daa:	e5de      	b.n	2000296a <_ftoa+0xa6>
20002dac:	2420      	movs	r4, #32
20002dae:	9b23      	ldr	r3, [sp, #140]	; 0x8c
20002db0:	2b00      	cmp	r3, #0
20002db2:	d047      	beq.n	20002e44 <_ftoa+0x580>
20002db4:	9b0d      	ldr	r3, [sp, #52]	; 0x34
20002db6:	2b00      	cmp	r3, #0
20002db8:	d103      	bne.n	20002dc2 <_ftoa+0x4fe>
20002dba:	9a24      	ldr	r2, [sp, #144]	; 0x90
20002dbc:	330c      	adds	r3, #12
20002dbe:	4213      	tst	r3, r2
20002dc0:	d002      	beq.n	20002dc8 <_ftoa+0x504>
20002dc2:	9b23      	ldr	r3, [sp, #140]	; 0x8c
20002dc4:	3b01      	subs	r3, #1
20002dc6:	9323      	str	r3, [sp, #140]	; 0x8c
20002dc8:	9b23      	ldr	r3, [sp, #140]	; 0x8c
20002dca:	42a3      	cmp	r3, r4
20002dcc:	d93a      	bls.n	20002e44 <_ftoa+0x580>
20002dce:	2c20      	cmp	r4, #32
20002dd0:	d100      	bne.n	20002dd4 <_ftoa+0x510>
20002dd2:	e0bd      	b.n	20002f50 <_ftoa+0x68c>
20002dd4:	2230      	movs	r2, #48	; 0x30
20002dd6:	0021      	movs	r1, r4
20002dd8:	0018      	movs	r0, r3
20002dda:	9b07      	ldr	r3, [sp, #28]
20002ddc:	191b      	adds	r3, r3, r4
20002dde:	3101      	adds	r1, #1
20002de0:	701a      	strb	r2, [r3, #0]
20002de2:	4288      	cmp	r0, r1
20002de4:	d02d      	beq.n	20002e42 <_ftoa+0x57e>
20002de6:	3301      	adds	r3, #1
20002de8:	2920      	cmp	r1, #32
20002dea:	d1f8      	bne.n	20002dde <_ftoa+0x51a>
20002dec:	465b      	mov	r3, fp
20002dee:	468a      	mov	sl, r1
20002df0:	9308      	str	r3, [sp, #32]
20002df2:	e66d      	b.n	20002ad0 <_ftoa+0x20c>
20002df4:	9a20      	ldr	r2, [sp, #128]	; 0x80
20002df6:	9b21      	ldr	r3, [sp, #132]	; 0x84
20002df8:	2000      	movs	r0, #0
20002dfa:	2100      	movs	r1, #0
20002dfc:	f7fe ff5d 	bl	20001cba <__wrap___aeabi_dsub>
20002e00:	2301      	movs	r3, #1
20002e02:	9020      	str	r0, [sp, #128]	; 0x80
20002e04:	9121      	str	r1, [sp, #132]	; 0x84
20002e06:	930d      	str	r3, [sp, #52]	; 0x34
20002e08:	e5a1      	b.n	2000294e <_ftoa+0x8a>
20002e0a:	1c62      	adds	r2, r4, #1
20002e0c:	4692      	mov	sl, r2
20002e0e:	222d      	movs	r2, #45	; 0x2d
20002e10:	9907      	ldr	r1, [sp, #28]
20002e12:	550a      	strb	r2, [r1, r4]
20002e14:	e640      	b.n	20002a98 <_ftoa+0x1d4>
20002e16:	2200      	movs	r2, #0
20002e18:	9808      	ldr	r0, [sp, #32]
20002e1a:	9909      	ldr	r1, [sp, #36]	; 0x24
20002e1c:	4b57      	ldr	r3, [pc, #348]	; (20002f7c <_ftoa+0x6b8>)
20002e1e:	f7fe ffcd 	bl	20001dbc <__wrap___aeabi_dcmpgt>
20002e22:	2800      	cmp	r0, #0
20002e24:	d000      	beq.n	20002e28 <_ftoa+0x564>
20002e26:	e5eb      	b.n	20002a00 <_ftoa+0x13c>
20002e28:	2301      	movs	r3, #1
20002e2a:	46a4      	mov	ip, r4
20002e2c:	4023      	ands	r3, r4
20002e2e:	449c      	add	ip, r3
20002e30:	4663      	mov	r3, ip
20002e32:	930c      	str	r3, [sp, #48]	; 0x30
20002e34:	e5e4      	b.n	20002a00 <_ftoa+0x13c>
20002e36:	4643      	mov	r3, r8
20002e38:	3301      	adds	r3, #1
20002e3a:	930c      	str	r3, [sp, #48]	; 0x30
20002e3c:	2300      	movs	r3, #0
20002e3e:	469a      	mov	sl, r3
20002e40:	e5c8      	b.n	200029d4 <_ftoa+0x110>
20002e42:	9c23      	ldr	r4, [sp, #140]	; 0x8c
20002e44:	2301      	movs	r3, #1
20002e46:	2c20      	cmp	r4, #32
20002e48:	d000      	beq.n	20002e4c <_ftoa+0x588>
20002e4a:	e618      	b.n	20002a7e <_ftoa+0x1ba>
20002e4c:	331f      	adds	r3, #31
20002e4e:	469a      	mov	sl, r3
20002e50:	465b      	mov	r3, fp
20002e52:	9308      	str	r3, [sp, #32]
20002e54:	e63c      	b.n	20002ad0 <_ftoa+0x20c>
20002e56:	002c      	movs	r4, r5
20002e58:	464e      	mov	r6, r9
20002e5a:	4645      	mov	r5, r8
20002e5c:	46b8      	mov	r8, r7
20002e5e:	4657      	mov	r7, sl
20002e60:	2c20      	cmp	r4, #32
20002e62:	d100      	bne.n	20002e66 <_ftoa+0x5a2>
20002e64:	e767      	b.n	20002d36 <_ftoa+0x472>
20002e66:	4642      	mov	r2, r8
20002e68:	4640      	mov	r0, r8
20002e6a:	9b07      	ldr	r3, [sp, #28]
20002e6c:	1911      	adds	r1, r2, r4
20002e6e:	191b      	adds	r3, r3, r4
20002e70:	2230      	movs	r2, #48	; 0x30
20002e72:	2800      	cmp	r0, #0
20002e74:	d007      	beq.n	20002e86 <_ftoa+0x5c2>
20002e76:	3401      	adds	r4, #1
20002e78:	701a      	strb	r2, [r3, #0]
20002e7a:	2c20      	cmp	r4, #32
20002e7c:	d100      	bne.n	20002e80 <_ftoa+0x5bc>
20002e7e:	e75a      	b.n	20002d36 <_ftoa+0x472>
20002e80:	3301      	adds	r3, #1
20002e82:	428c      	cmp	r4, r1
20002e84:	d1f7      	bne.n	20002e76 <_ftoa+0x5b2>
20002e86:	1c63      	adds	r3, r4, #1
20002e88:	4699      	mov	r9, r3
20002e8a:	232e      	movs	r3, #46	; 0x2e
20002e8c:	9a07      	ldr	r2, [sp, #28]
20002e8e:	5513      	strb	r3, [r2, r4]
20002e90:	e5b6      	b.n	20002a00 <_ftoa+0x13c>
20002e92:	4645      	mov	r5, r8
20002e94:	464e      	mov	r6, r9
20002e96:	e74e      	b.n	20002d36 <_ftoa+0x472>
20002e98:	9b24      	ldr	r3, [sp, #144]	; 0x90
20002e9a:	46d8      	mov	r8, fp
20002e9c:	079b      	lsls	r3, r3, #30
20002e9e:	d115      	bne.n	20002ecc <_ftoa+0x608>
20002ea0:	9b23      	ldr	r3, [sp, #140]	; 0x8c
20002ea2:	2b03      	cmp	r3, #3
20002ea4:	d952      	bls.n	20002f4c <_ftoa+0x688>
20002ea6:	1edc      	subs	r4, r3, #3
20002ea8:	445c      	add	r4, fp
20002eaa:	46b8      	mov	r8, r7
20002eac:	465a      	mov	r2, fp
20002eae:	0037      	movs	r7, r6
20002eb0:	002e      	movs	r6, r5
20002eb2:	0025      	movs	r5, r4
20002eb4:	1c54      	adds	r4, r2, #1
20002eb6:	4643      	mov	r3, r8
20002eb8:	0039      	movs	r1, r7
20002eba:	2020      	movs	r0, #32
20002ebc:	47b0      	blx	r6
20002ebe:	0022      	movs	r2, r4
20002ec0:	42ac      	cmp	r4, r5
20002ec2:	d1f7      	bne.n	20002eb4 <_ftoa+0x5f0>
20002ec4:	0035      	movs	r5, r6
20002ec6:	003e      	movs	r6, r7
20002ec8:	4647      	mov	r7, r8
20002eca:	46a0      	mov	r8, r4
20002ecc:	4b2d      	ldr	r3, [pc, #180]	; (20002f84 <_ftoa+0x6c0>)
20002ece:	46b9      	mov	r9, r7
20002ed0:	4642      	mov	r2, r8
20002ed2:	0037      	movs	r7, r6
20002ed4:	2403      	movs	r4, #3
20002ed6:	469a      	mov	sl, r3
20002ed8:	002e      	movs	r6, r5
20002eda:	4653      	mov	r3, sl
20002edc:	3c01      	subs	r4, #1
20002ede:	1c55      	adds	r5, r2, #1
20002ee0:	5d18      	ldrb	r0, [r3, r4]
20002ee2:	0039      	movs	r1, r7
20002ee4:	464b      	mov	r3, r9
20002ee6:	47b0      	blx	r6
20002ee8:	002a      	movs	r2, r5
20002eea:	2c00      	cmp	r4, #0
20002eec:	d1f5      	bne.n	20002eda <_ftoa+0x616>
20002eee:	4644      	mov	r4, r8
20002ef0:	9b24      	ldr	r3, [sp, #144]	; 0x90
20002ef2:	0035      	movs	r5, r6
20002ef4:	3403      	adds	r4, #3
20002ef6:	003e      	movs	r6, r7
20002ef8:	079b      	lsls	r3, r3, #30
20002efa:	d400      	bmi.n	20002efe <_ftoa+0x63a>
20002efc:	e61a      	b.n	20002b34 <_ftoa+0x270>
20002efe:	465b      	mov	r3, fp
20002f00:	9a23      	ldr	r2, [sp, #140]	; 0x8c
20002f02:	1ae3      	subs	r3, r4, r3
20002f04:	4293      	cmp	r3, r2
20002f06:	d300      	bcc.n	20002f0a <_ftoa+0x646>
20002f08:	e614      	b.n	20002b34 <_ftoa+0x270>
20002f0a:	0013      	movs	r3, r2
20002f0c:	46c8      	mov	r8, r9
20002f0e:	0022      	movs	r2, r4
20002f10:	465f      	mov	r7, fp
20002f12:	4699      	mov	r9, r3
20002f14:	3401      	adds	r4, #1
20002f16:	4643      	mov	r3, r8
20002f18:	0031      	movs	r1, r6
20002f1a:	2020      	movs	r0, #32
20002f1c:	47a8      	blx	r5
20002f1e:	0022      	movs	r2, r4
20002f20:	1be3      	subs	r3, r4, r7
20002f22:	4599      	cmp	r9, r3
20002f24:	d8f6      	bhi.n	20002f14 <_ftoa+0x650>
20002f26:	e605      	b.n	20002b34 <_ftoa+0x270>
20002f28:	9a24      	ldr	r2, [sp, #144]	; 0x90
20002f2a:	46a2      	mov	sl, r4
20002f2c:	0712      	lsls	r2, r2, #28
20002f2e:	d400      	bmi.n	20002f32 <_ftoa+0x66e>
20002f30:	e5b2      	b.n	20002a98 <_ftoa+0x1d4>
20002f32:	2201      	movs	r2, #1
20002f34:	4694      	mov	ip, r2
20002f36:	9907      	ldr	r1, [sp, #28]
20002f38:	321f      	adds	r2, #31
20002f3a:	44e2      	add	sl, ip
20002f3c:	550a      	strb	r2, [r1, r4]
20002f3e:	e5ab      	b.n	20002a98 <_ftoa+0x1d4>
20002f40:	46d8      	mov	r8, fp
20002f42:	e625      	b.n	20002b90 <_ftoa+0x2cc>
20002f44:	46d8      	mov	r8, fp
20002f46:	e678      	b.n	20002c3a <_ftoa+0x376>
20002f48:	9208      	str	r2, [sp, #32]
20002f4a:	e5c1      	b.n	20002ad0 <_ftoa+0x20c>
20002f4c:	46d8      	mov	r8, fp
20002f4e:	e7bd      	b.n	20002ecc <_ftoa+0x608>
20002f50:	2320      	movs	r3, #32
20002f52:	469a      	mov	sl, r3
20002f54:	465b      	mov	r3, fp
20002f56:	9308      	str	r3, [sp, #32]
20002f58:	e5ba      	b.n	20002ad0 <_ftoa+0x20c>
20002f5a:	00da      	lsls	r2, r3, #3
20002f5c:	4b08      	ldr	r3, [pc, #32]	; (20002f80 <_ftoa+0x6bc>)
20002f5e:	189b      	adds	r3, r3, r2
20002f60:	685c      	ldr	r4, [r3, #4]
20002f62:	681b      	ldr	r3, [r3, #0]
20002f64:	9308      	str	r3, [sp, #32]
20002f66:	9409      	str	r4, [sp, #36]	; 0x24
20002f68:	2300      	movs	r3, #0
20002f6a:	4699      	mov	r9, r3
20002f6c:	ab0e      	add	r3, sp, #56	; 0x38
20002f6e:	9c22      	ldr	r4, [sp, #136]	; 0x88
20002f70:	9307      	str	r3, [sp, #28]
20002f72:	e4fa      	b.n	2000296a <_ftoa+0xa6>
20002f74:	20005ac0 	.word	0x20005ac0
20002f78:	20005ab0 	.word	0x20005ab0
20002f7c:	3fe00000 	.word	0x3fe00000
20002f80:	20005ac8 	.word	0x20005ac8
20002f84:	20005abc 	.word	0x20005abc

20002f88 <_etoa.part.1>:
20002f88:	b5f0      	push	{r4, r5, r6, r7, lr}
20002f8a:	464e      	mov	r6, r9
20002f8c:	4645      	mov	r5, r8
20002f8e:	46de      	mov	lr, fp
20002f90:	4657      	mov	r7, sl
20002f92:	b5e0      	push	{r5, r6, r7, lr}
20002f94:	b09b      	sub	sp, #108	; 0x6c
20002f96:	930a      	str	r3, [sp, #40]	; 0x28
20002f98:	9b24      	ldr	r3, [sp, #144]	; 0x90
20002f9a:	4681      	mov	r9, r0
20002f9c:	001c      	movs	r4, r3
20002f9e:	930b      	str	r3, [sp, #44]	; 0x2c
20002fa0:	9b25      	ldr	r3, [sp, #148]	; 0x94
20002fa2:	9109      	str	r1, [sp, #36]	; 0x24
20002fa4:	001d      	movs	r5, r3
20002fa6:	920d      	str	r2, [sp, #52]	; 0x34
20002fa8:	930c      	str	r3, [sp, #48]	; 0x30
20002faa:	2200      	movs	r2, #0
20002fac:	2300      	movs	r3, #0
20002fae:	0020      	movs	r0, r4
20002fb0:	0029      	movs	r1, r5
20002fb2:	f7fe fef5 	bl	20001da0 <__wrap___aeabi_dcmplt>
20002fb6:	2800      	cmp	r0, #0
20002fb8:	d000      	beq.n	20002fbc <_etoa.part.1+0x34>
20002fba:	e193      	b.n	200032e4 <_etoa.part.1+0x35c>
20002fbc:	9a0b      	ldr	r2, [sp, #44]	; 0x2c
20002fbe:	9b0c      	ldr	r3, [sp, #48]	; 0x30
20002fc0:	4692      	mov	sl, r2
20002fc2:	469b      	mov	fp, r3
20002fc4:	2380      	movs	r3, #128	; 0x80
20002fc6:	9a28      	ldr	r2, [sp, #160]	; 0xa0
20002fc8:	00db      	lsls	r3, r3, #3
20002fca:	401a      	ands	r2, r3
20002fcc:	920e      	str	r2, [sp, #56]	; 0x38
20002fce:	d101      	bne.n	20002fd4 <_etoa.part.1+0x4c>
20002fd0:	2306      	movs	r3, #6
20002fd2:	9326      	str	r3, [sp, #152]	; 0x98
20002fd4:	4656      	mov	r6, sl
20002fd6:	465b      	mov	r3, fp
20002fd8:	4333      	orrs	r3, r6
20002fda:	d100      	bne.n	20002fde <_etoa.part.1+0x56>
20002fdc:	e148      	b.n	20003270 <_etoa.part.1+0x2e8>
20002fde:	465b      	mov	r3, fp
20002fe0:	0058      	lsls	r0, r3, #1
20002fe2:	4bc9      	ldr	r3, [pc, #804]	; (20003308 <_etoa.part.1+0x380>)
20002fe4:	0d40      	lsrs	r0, r0, #21
20002fe6:	469c      	mov	ip, r3
20002fe8:	4460      	add	r0, ip
20002fea:	f7fe feff 	bl	20001dec <__wrap___aeabi_i2d>
20002fee:	4ac7      	ldr	r2, [pc, #796]	; (2000330c <_etoa.part.1+0x384>)
20002ff0:	4bc7      	ldr	r3, [pc, #796]	; (20003310 <_etoa.part.1+0x388>)
20002ff2:	f7fe fe92 	bl	20001d1a <__wrap___aeabi_dmul>
20002ff6:	4ac7      	ldr	r2, [pc, #796]	; (20003314 <_etoa.part.1+0x38c>)
20002ff8:	4bc7      	ldr	r3, [pc, #796]	; (20003318 <_etoa.part.1+0x390>)
20002ffa:	f7fe fe67 	bl	20001ccc <__wrap___aeabi_dadd>
20002ffe:	465b      	mov	r3, fp
20003000:	4ac6      	ldr	r2, [pc, #792]	; (2000331c <_etoa.part.1+0x394>)
20003002:	031b      	lsls	r3, r3, #12
20003004:	0b1b      	lsrs	r3, r3, #12
20003006:	431a      	orrs	r2, r3
20003008:	0004      	movs	r4, r0
2000300a:	000d      	movs	r5, r1
2000300c:	4bc4      	ldr	r3, [pc, #784]	; (20003320 <_etoa.part.1+0x398>)
2000300e:	0011      	movs	r1, r2
20003010:	4650      	mov	r0, sl
20003012:	2200      	movs	r2, #0
20003014:	f7fe fe51 	bl	20001cba <__wrap___aeabi_dsub>
20003018:	4ac2      	ldr	r2, [pc, #776]	; (20003324 <_etoa.part.1+0x39c>)
2000301a:	4bc3      	ldr	r3, [pc, #780]	; (20003328 <_etoa.part.1+0x3a0>)
2000301c:	f7fe fe7d 	bl	20001d1a <__wrap___aeabi_dmul>
20003020:	0002      	movs	r2, r0
20003022:	000b      	movs	r3, r1
20003024:	0020      	movs	r0, r4
20003026:	0029      	movs	r1, r5
20003028:	f7fe fe50 	bl	20001ccc <__wrap___aeabi_dadd>
2000302c:	f7fe fef6 	bl	20001e1c <__wrap___aeabi_d2iz>
20003030:	4680      	mov	r8, r0
20003032:	f7fe fedb 	bl	20001dec <__wrap___aeabi_i2d>
20003036:	4abd      	ldr	r2, [pc, #756]	; (2000332c <_etoa.part.1+0x3a4>)
20003038:	4bbd      	ldr	r3, [pc, #756]	; (20003330 <_etoa.part.1+0x3a8>)
2000303a:	0004      	movs	r4, r0
2000303c:	000d      	movs	r5, r1
2000303e:	f7fe fe6c 	bl	20001d1a <__wrap___aeabi_dmul>
20003042:	2200      	movs	r2, #0
20003044:	4bbb      	ldr	r3, [pc, #748]	; (20003334 <_etoa.part.1+0x3ac>)
20003046:	f7fe fe41 	bl	20001ccc <__wrap___aeabi_dadd>
2000304a:	f7fe fee7 	bl	20001e1c <__wrap___aeabi_d2iz>
2000304e:	4aba      	ldr	r2, [pc, #744]	; (20003338 <_etoa.part.1+0x3b0>)
20003050:	0006      	movs	r6, r0
20003052:	4bba      	ldr	r3, [pc, #744]	; (2000333c <_etoa.part.1+0x3b4>)
20003054:	0020      	movs	r0, r4
20003056:	0029      	movs	r1, r5
20003058:	f7fe fe5f 	bl	20001d1a <__wrap___aeabi_dmul>
2000305c:	0004      	movs	r4, r0
2000305e:	0030      	movs	r0, r6
20003060:	000d      	movs	r5, r1
20003062:	960f      	str	r6, [sp, #60]	; 0x3c
20003064:	f7fe fec2 	bl	20001dec <__wrap___aeabi_i2d>
20003068:	4ab5      	ldr	r2, [pc, #724]	; (20003340 <_etoa.part.1+0x3b8>)
2000306a:	4bb6      	ldr	r3, [pc, #728]	; (20003344 <_etoa.part.1+0x3bc>)
2000306c:	f7fe fe55 	bl	20001d1a <__wrap___aeabi_dmul>
20003070:	0002      	movs	r2, r0
20003072:	000b      	movs	r3, r1
20003074:	0020      	movs	r0, r4
20003076:	0029      	movs	r1, r5
20003078:	f7fe fe1f 	bl	20001cba <__wrap___aeabi_dsub>
2000307c:	0002      	movs	r2, r0
2000307e:	000b      	movs	r3, r1
20003080:	0006      	movs	r6, r0
20003082:	000f      	movs	r7, r1
20003084:	f7fe fe49 	bl	20001d1a <__wrap___aeabi_dmul>
20003088:	0032      	movs	r2, r6
2000308a:	0004      	movs	r4, r0
2000308c:	000d      	movs	r5, r1
2000308e:	003b      	movs	r3, r7
20003090:	0030      	movs	r0, r6
20003092:	0039      	movs	r1, r7
20003094:	f7fe fe1a 	bl	20001ccc <__wrap___aeabi_dadd>
20003098:	2200      	movs	r2, #0
2000309a:	9010      	str	r0, [sp, #64]	; 0x40
2000309c:	9111      	str	r1, [sp, #68]	; 0x44
2000309e:	4baa      	ldr	r3, [pc, #680]	; (20003348 <_etoa.part.1+0x3c0>)
200030a0:	0020      	movs	r0, r4
200030a2:	0029      	movs	r1, r5
200030a4:	f7fe fe1b 	bl	20001cde <__wrap___aeabi_ddiv>
200030a8:	2200      	movs	r2, #0
200030aa:	4ba8      	ldr	r3, [pc, #672]	; (2000334c <_etoa.part.1+0x3c4>)
200030ac:	f7fe fe0e 	bl	20001ccc <__wrap___aeabi_dadd>
200030b0:	0002      	movs	r2, r0
200030b2:	000b      	movs	r3, r1
200030b4:	0020      	movs	r0, r4
200030b6:	0029      	movs	r1, r5
200030b8:	f7fe fe11 	bl	20001cde <__wrap___aeabi_ddiv>
200030bc:	2200      	movs	r2, #0
200030be:	4ba4      	ldr	r3, [pc, #656]	; (20003350 <_etoa.part.1+0x3c8>)
200030c0:	f7fe fe04 	bl	20001ccc <__wrap___aeabi_dadd>
200030c4:	0002      	movs	r2, r0
200030c6:	000b      	movs	r3, r1
200030c8:	0020      	movs	r0, r4
200030ca:	0029      	movs	r1, r5
200030cc:	f7fe fe07 	bl	20001cde <__wrap___aeabi_ddiv>
200030d0:	000d      	movs	r5, r1
200030d2:	2180      	movs	r1, #128	; 0x80
200030d4:	0032      	movs	r2, r6
200030d6:	0004      	movs	r4, r0
200030d8:	003b      	movs	r3, r7
200030da:	2000      	movs	r0, #0
200030dc:	05c9      	lsls	r1, r1, #23
200030de:	f7fe fdec 	bl	20001cba <__wrap___aeabi_dsub>
200030e2:	0002      	movs	r2, r0
200030e4:	000b      	movs	r3, r1
200030e6:	0020      	movs	r0, r4
200030e8:	0029      	movs	r1, r5
200030ea:	f7fe fdef 	bl	20001ccc <__wrap___aeabi_dadd>
200030ee:	0002      	movs	r2, r0
200030f0:	000b      	movs	r3, r1
200030f2:	9810      	ldr	r0, [sp, #64]	; 0x40
200030f4:	9911      	ldr	r1, [sp, #68]	; 0x44
200030f6:	f7fe fdf2 	bl	20001cde <__wrap___aeabi_ddiv>
200030fa:	2200      	movs	r2, #0
200030fc:	4b87      	ldr	r3, [pc, #540]	; (2000331c <_etoa.part.1+0x394>)
200030fe:	f7fe fde5 	bl	20001ccc <__wrap___aeabi_dadd>
20003102:	4a94      	ldr	r2, [pc, #592]	; (20003354 <_etoa.part.1+0x3cc>)
20003104:	9b0f      	ldr	r3, [sp, #60]	; 0x3c
20003106:	4694      	mov	ip, r2
20003108:	4463      	add	r3, ip
2000310a:	2200      	movs	r2, #0
2000310c:	051b      	lsls	r3, r3, #20
2000310e:	f7fe fe04 	bl	20001d1a <__wrap___aeabi_dmul>
20003112:	0006      	movs	r6, r0
20003114:	000d      	movs	r5, r1
20003116:	0002      	movs	r2, r0
20003118:	000b      	movs	r3, r1
2000311a:	4650      	mov	r0, sl
2000311c:	4659      	mov	r1, fp
2000311e:	f7fe fe3f 	bl	20001da0 <__wrap___aeabi_dcmplt>
20003122:	2800      	cmp	r0, #0
20003124:	d00b      	beq.n	2000313e <_etoa.part.1+0x1b6>
20003126:	2301      	movs	r3, #1
20003128:	425b      	negs	r3, r3
2000312a:	469c      	mov	ip, r3
2000312c:	0030      	movs	r0, r6
2000312e:	0029      	movs	r1, r5
20003130:	2200      	movs	r2, #0
20003132:	4b86      	ldr	r3, [pc, #536]	; (2000334c <_etoa.part.1+0x3c4>)
20003134:	44e0      	add	r8, ip
20003136:	f7fe fdd2 	bl	20001cde <__wrap___aeabi_ddiv>
2000313a:	0006      	movs	r6, r0
2000313c:	000d      	movs	r5, r1
2000313e:	4643      	mov	r3, r8
20003140:	27c6      	movs	r7, #198	; 0xc6
20003142:	3363      	adds	r3, #99	; 0x63
20003144:	429f      	cmp	r7, r3
20003146:	41bf      	sbcs	r7, r7
20003148:	9b28      	ldr	r3, [sp, #160]	; 0xa0
2000314a:	427f      	negs	r7, r7
2000314c:	3704      	adds	r7, #4
2000314e:	051b      	lsls	r3, r3, #20
20003150:	d500      	bpl.n	20003154 <_etoa.part.1+0x1cc>
20003152:	e0ac      	b.n	200032ae <_etoa.part.1+0x326>
20003154:	9b27      	ldr	r3, [sp, #156]	; 0x9c
20003156:	2400      	movs	r4, #0
20003158:	429f      	cmp	r7, r3
2000315a:	d200      	bcs.n	2000315e <_etoa.part.1+0x1d6>
2000315c:	1bdc      	subs	r4, r3, r7
2000315e:	2302      	movs	r3, #2
20003160:	9a28      	ldr	r2, [sp, #160]	; 0xa0
20003162:	401a      	ands	r2, r3
20003164:	920e      	str	r2, [sp, #56]	; 0x38
20003166:	d003      	beq.n	20003170 <_etoa.part.1+0x1e8>
20003168:	427b      	negs	r3, r7
2000316a:	417b      	adcs	r3, r7
2000316c:	425b      	negs	r3, r3
2000316e:	401c      	ands	r4, r3
20003170:	4643      	mov	r3, r8
20003172:	2b00      	cmp	r3, #0
20003174:	d007      	beq.n	20003186 <_etoa.part.1+0x1fe>
20003176:	4650      	mov	r0, sl
20003178:	4659      	mov	r1, fp
2000317a:	0032      	movs	r2, r6
2000317c:	002b      	movs	r3, r5
2000317e:	f7fe fdae 	bl	20001cde <__wrap___aeabi_ddiv>
20003182:	4682      	mov	sl, r0
20003184:	468b      	mov	fp, r1
20003186:	2200      	movs	r2, #0
20003188:	2300      	movs	r3, #0
2000318a:	980b      	ldr	r0, [sp, #44]	; 0x2c
2000318c:	990c      	ldr	r1, [sp, #48]	; 0x30
2000318e:	f7fe fe07 	bl	20001da0 <__wrap___aeabi_dcmplt>
20003192:	2800      	cmp	r0, #0
20003194:	d000      	beq.n	20003198 <_etoa.part.1+0x210>
20003196:	e0a0      	b.n	200032da <_etoa.part.1+0x352>
20003198:	9a28      	ldr	r2, [sp, #160]	; 0xa0
2000319a:	4b6f      	ldr	r3, [pc, #444]	; (20003358 <_etoa.part.1+0x3d0>)
2000319c:	9403      	str	r4, [sp, #12]
2000319e:	4013      	ands	r3, r2
200031a0:	9304      	str	r3, [sp, #16]
200031a2:	9b26      	ldr	r3, [sp, #152]	; 0x98
200031a4:	4652      	mov	r2, sl
200031a6:	9302      	str	r3, [sp, #8]
200031a8:	465b      	mov	r3, fp
200031aa:	9909      	ldr	r1, [sp, #36]	; 0x24
200031ac:	9200      	str	r2, [sp, #0]
200031ae:	9301      	str	r3, [sp, #4]
200031b0:	4648      	mov	r0, r9
200031b2:	9b0a      	ldr	r3, [sp, #40]	; 0x28
200031b4:	9a0d      	ldr	r2, [sp, #52]	; 0x34
200031b6:	f7ff fb85 	bl	200028c4 <_ftoa>
200031ba:	0004      	movs	r4, r0
200031bc:	2f00      	cmp	r7, #0
200031be:	d04f      	beq.n	20003260 <_etoa.part.1+0x2d8>
200031c0:	9b28      	ldr	r3, [sp, #160]	; 0xa0
200031c2:	2065      	movs	r0, #101	; 0x65
200031c4:	069b      	lsls	r3, r3, #26
200031c6:	d46c      	bmi.n	200032a2 <_etoa.part.1+0x31a>
200031c8:	1c63      	adds	r3, r4, #1
200031ca:	0022      	movs	r2, r4
200031cc:	469a      	mov	sl, r3
200031ce:	9909      	ldr	r1, [sp, #36]	; 0x24
200031d0:	9b0a      	ldr	r3, [sp, #40]	; 0x28
200031d2:	47c8      	blx	r9
200031d4:	4643      	mov	r3, r8
200031d6:	17da      	asrs	r2, r3, #31
200031d8:	189d      	adds	r5, r3, r2
200031da:	0fdb      	lsrs	r3, r3, #31
200031dc:	4698      	mov	r8, r3
200031de:	1e7b      	subs	r3, r7, #1
200031e0:	4055      	eors	r5, r2
200031e2:	469b      	mov	fp, r3
200031e4:	2400      	movs	r4, #0
200031e6:	af12      	add	r7, sp, #72	; 0x48
200031e8:	e002      	b.n	200031f0 <_etoa.part.1+0x268>
200031ea:	0034      	movs	r4, r6
200031ec:	2e20      	cmp	r6, #32
200031ee:	d00d      	beq.n	2000320c <_etoa.part.1+0x284>
200031f0:	0028      	movs	r0, r5
200031f2:	210a      	movs	r1, #10
200031f4:	f7fe fb1e 	bl	20001834 <__wrap___aeabi_uidiv>
200031f8:	1c66      	adds	r6, r4, #1
200031fa:	3130      	adds	r1, #48	; 0x30
200031fc:	193c      	adds	r4, r7, r4
200031fe:	7021      	strb	r1, [r4, #0]
20003200:	0028      	movs	r0, r5
20003202:	210a      	movs	r1, #10
20003204:	f7fe fb16 	bl	20001834 <__wrap___aeabi_uidiv>
20003208:	1e05      	subs	r5, r0, #0
2000320a:	d1ee      	bne.n	200031ea <_etoa.part.1+0x262>
2000320c:	2305      	movs	r3, #5
2000320e:	9306      	str	r3, [sp, #24]
20003210:	465b      	mov	r3, fp
20003212:	9305      	str	r3, [sp, #20]
20003214:	2300      	movs	r3, #0
20003216:	9304      	str	r3, [sp, #16]
20003218:	330a      	adds	r3, #10
2000321a:	9303      	str	r3, [sp, #12]
2000321c:	4643      	mov	r3, r8
2000321e:	9601      	str	r6, [sp, #4]
20003220:	9e09      	ldr	r6, [sp, #36]	; 0x24
20003222:	9302      	str	r3, [sp, #8]
20003224:	9b0a      	ldr	r3, [sp, #40]	; 0x28
20003226:	9700      	str	r7, [sp, #0]
20003228:	4652      	mov	r2, sl
2000322a:	0031      	movs	r1, r6
2000322c:	4648      	mov	r0, r9
2000322e:	4698      	mov	r8, r3
20003230:	f7ff fa3e 	bl	200026b0 <_ntoa_format>
20003234:	9b0e      	ldr	r3, [sp, #56]	; 0x38
20003236:	0004      	movs	r4, r0
20003238:	2b00      	cmp	r3, #0
2000323a:	d011      	beq.n	20003260 <_etoa.part.1+0x2d8>
2000323c:	9f0d      	ldr	r7, [sp, #52]	; 0x34
2000323e:	9a27      	ldr	r2, [sp, #156]	; 0x9c
20003240:	1bc3      	subs	r3, r0, r7
20003242:	429a      	cmp	r2, r3
20003244:	d90c      	bls.n	20003260 <_etoa.part.1+0x2d8>
20003246:	9b27      	ldr	r3, [sp, #156]	; 0x9c
20003248:	464d      	mov	r5, r9
2000324a:	0002      	movs	r2, r0
2000324c:	4699      	mov	r9, r3
2000324e:	3401      	adds	r4, #1
20003250:	4643      	mov	r3, r8
20003252:	0031      	movs	r1, r6
20003254:	2020      	movs	r0, #32
20003256:	47a8      	blx	r5
20003258:	0022      	movs	r2, r4
2000325a:	1be3      	subs	r3, r4, r7
2000325c:	4599      	cmp	r9, r3
2000325e:	d8f6      	bhi.n	2000324e <_etoa.part.1+0x2c6>
20003260:	0020      	movs	r0, r4
20003262:	b01b      	add	sp, #108	; 0x6c
20003264:	bc3c      	pop	{r2, r3, r4, r5}
20003266:	4690      	mov	r8, r2
20003268:	4699      	mov	r9, r3
2000326a:	46a2      	mov	sl, r4
2000326c:	46ab      	mov	fp, r5
2000326e:	bdf0      	pop	{r4, r5, r6, r7, pc}
20003270:	9b28      	ldr	r3, [sp, #160]	; 0xa0
20003272:	4656      	mov	r6, sl
20003274:	465d      	mov	r5, fp
20003276:	051b      	lsls	r3, r3, #20
20003278:	d515      	bpl.n	200032a6 <_etoa.part.1+0x31e>
2000327a:	2300      	movs	r3, #0
2000327c:	4698      	mov	r8, r3
2000327e:	9a26      	ldr	r2, [sp, #152]	; 0x98
20003280:	2300      	movs	r3, #0
20003282:	4542      	cmp	r2, r8
20003284:	dd03      	ble.n	2000328e <_etoa.part.1+0x306>
20003286:	0013      	movs	r3, r2
20003288:	4642      	mov	r2, r8
2000328a:	1a9b      	subs	r3, r3, r2
2000328c:	3b01      	subs	r3, #1
2000328e:	9326      	str	r3, [sp, #152]	; 0x98
20003290:	2380      	movs	r3, #128	; 0x80
20003292:	9a28      	ldr	r2, [sp, #160]	; 0xa0
20003294:	00db      	lsls	r3, r3, #3
20003296:	431a      	orrs	r2, r3
20003298:	2300      	movs	r3, #0
2000329a:	9228      	str	r2, [sp, #160]	; 0xa0
2000329c:	2700      	movs	r7, #0
2000329e:	4698      	mov	r8, r3
200032a0:	e758      	b.n	20003154 <_etoa.part.1+0x1cc>
200032a2:	3820      	subs	r0, #32
200032a4:	e790      	b.n	200031c8 <_etoa.part.1+0x240>
200032a6:	2300      	movs	r3, #0
200032a8:	2704      	movs	r7, #4
200032aa:	4698      	mov	r8, r3
200032ac:	e752      	b.n	20003154 <_etoa.part.1+0x1cc>
200032ae:	002b      	movs	r3, r5
200032b0:	4333      	orrs	r3, r6
200032b2:	d0e4      	beq.n	2000327e <_etoa.part.1+0x2f6>
200032b4:	4a29      	ldr	r2, [pc, #164]	; (2000335c <_etoa.part.1+0x3d4>)
200032b6:	4b2a      	ldr	r3, [pc, #168]	; (20003360 <_etoa.part.1+0x3d8>)
200032b8:	4650      	mov	r0, sl
200032ba:	4659      	mov	r1, fp
200032bc:	f7fe fd76 	bl	20001dac <__wrap___aeabi_dcmpge>
200032c0:	2800      	cmp	r0, #0
200032c2:	d117      	bne.n	200032f4 <_etoa.part.1+0x36c>
200032c4:	9b26      	ldr	r3, [sp, #152]	; 0x98
200032c6:	2b00      	cmp	r3, #0
200032c8:	d100      	bne.n	200032cc <_etoa.part.1+0x344>
200032ca:	e743      	b.n	20003154 <_etoa.part.1+0x1cc>
200032cc:	9b0e      	ldr	r3, [sp, #56]	; 0x38
200032ce:	1e5a      	subs	r2, r3, #1
200032d0:	4193      	sbcs	r3, r2
200032d2:	9a26      	ldr	r2, [sp, #152]	; 0x98
200032d4:	1ad3      	subs	r3, r2, r3
200032d6:	9326      	str	r3, [sp, #152]	; 0x98
200032d8:	e73c      	b.n	20003154 <_etoa.part.1+0x1cc>
200032da:	2180      	movs	r1, #128	; 0x80
200032dc:	0609      	lsls	r1, r1, #24
200032de:	4459      	add	r1, fp
200032e0:	468b      	mov	fp, r1
200032e2:	e759      	b.n	20003198 <_etoa.part.1+0x210>
200032e4:	2280      	movs	r2, #128	; 0x80
200032e6:	0612      	lsls	r2, r2, #24
200032e8:	4694      	mov	ip, r2
200032ea:	9b0c      	ldr	r3, [sp, #48]	; 0x30
200032ec:	46a2      	mov	sl, r4
200032ee:	4463      	add	r3, ip
200032f0:	469b      	mov	fp, r3
200032f2:	e667      	b.n	20002fc4 <_etoa.part.1+0x3c>
200032f4:	2200      	movs	r2, #0
200032f6:	4b1b      	ldr	r3, [pc, #108]	; (20003364 <_etoa.part.1+0x3dc>)
200032f8:	4650      	mov	r0, sl
200032fa:	4659      	mov	r1, fp
200032fc:	f7fe fd50 	bl	20001da0 <__wrap___aeabi_dcmplt>
20003300:	2800      	cmp	r0, #0
20003302:	d1bc      	bne.n	2000327e <_etoa.part.1+0x2f6>
20003304:	e7de      	b.n	200032c4 <_etoa.part.1+0x33c>
20003306:	46c0      	nop			; (mov r8, r8)
20003308:	fffffc01 	.word	0xfffffc01
2000330c:	509f79fb 	.word	0x509f79fb
20003310:	3fd34413 	.word	0x3fd34413
20003314:	8b60c8b3 	.word	0x8b60c8b3
20003318:	3fc68a28 	.word	0x3fc68a28
2000331c:	3ff00000 	.word	0x3ff00000
20003320:	3ff80000 	.word	0x3ff80000
20003324:	636f4361 	.word	0x636f4361
20003328:	3fd287a7 	.word	0x3fd287a7
2000332c:	0979a371 	.word	0x0979a371
20003330:	400a934f 	.word	0x400a934f
20003334:	3fe00000 	.word	0x3fe00000
20003338:	bbb55516 	.word	0xbbb55516
2000333c:	40026bb1 	.word	0x40026bb1
20003340:	fefa39ef 	.word	0xfefa39ef
20003344:	3fe62e42 	.word	0x3fe62e42
20003348:	402c0000 	.word	0x402c0000
2000334c:	40240000 	.word	0x40240000
20003350:	40180000 	.word	0x40180000
20003354:	000003ff 	.word	0x000003ff
20003358:	fffff7ff 	.word	0xfffff7ff
2000335c:	eb1c432d 	.word	0xeb1c432d
20003360:	3f1a36e2 	.word	0x3f1a36e2
20003364:	412e8480 	.word	0x412e8480

20003368 <_vsnprintf>:
20003368:	b5f0      	push	{r4, r5, r6, r7, lr}
2000336a:	4645      	mov	r5, r8
2000336c:	46de      	mov	lr, fp
2000336e:	4657      	mov	r7, sl
20003370:	464e      	mov	r6, r9
20003372:	b5e0      	push	{r5, r6, r7, lr}
20003374:	b0a1      	sub	sp, #132	; 0x84
20003376:	001d      	movs	r5, r3
20003378:	9b2a      	ldr	r3, [sp, #168]	; 0xa8
2000337a:	9209      	str	r2, [sp, #36]	; 0x24
2000337c:	930b      	str	r3, [sp, #44]	; 0x2c
2000337e:	4aa2      	ldr	r2, [pc, #648]	; (20003608 <_vsnprintf+0x2a0>)
20003380:	4ba2      	ldr	r3, [pc, #648]	; (2000360c <_vsnprintf+0x2a4>)
20003382:	900a      	str	r0, [sp, #40]	; 0x28
20003384:	9108      	str	r1, [sp, #32]
20003386:	601a      	str	r2, [r3, #0]
20003388:	2900      	cmp	r1, #0
2000338a:	d100      	bne.n	2000338e <_vsnprintf+0x26>
2000338c:	e387      	b.n	20003a9e <_vsnprintf+0x736>
2000338e:	2300      	movs	r3, #0
20003390:	469b      	mov	fp, r3
20003392:	4b9f      	ldr	r3, [pc, #636]	; (20003610 <_vsnprintf+0x2a8>)
20003394:	002c      	movs	r4, r5
20003396:	469a      	mov	sl, r3
20003398:	465d      	mov	r5, fp
2000339a:	7820      	ldrb	r0, [r4, #0]
2000339c:	2800      	cmp	r0, #0
2000339e:	d00c      	beq.n	200033ba <_vsnprintf+0x52>
200033a0:	2825      	cmp	r0, #37	; 0x25
200033a2:	d01d      	beq.n	200033e0 <_vsnprintf+0x78>
200033a4:	1c6e      	adds	r6, r5, #1
200033a6:	002a      	movs	r2, r5
200033a8:	9b09      	ldr	r3, [sp, #36]	; 0x24
200033aa:	9d0a      	ldr	r5, [sp, #40]	; 0x28
200033ac:	9908      	ldr	r1, [sp, #32]
200033ae:	3401      	adds	r4, #1
200033b0:	47a8      	blx	r5
200033b2:	7820      	ldrb	r0, [r4, #0]
200033b4:	0035      	movs	r5, r6
200033b6:	2800      	cmp	r0, #0
200033b8:	d1f2      	bne.n	200033a0 <_vsnprintf+0x38>
200033ba:	9909      	ldr	r1, [sp, #36]	; 0x24
200033bc:	46ab      	mov	fp, r5
200033be:	002a      	movs	r2, r5
200033c0:	428d      	cmp	r5, r1
200033c2:	d300      	bcc.n	200033c6 <_vsnprintf+0x5e>
200033c4:	1e4a      	subs	r2, r1, #1
200033c6:	9b09      	ldr	r3, [sp, #36]	; 0x24
200033c8:	9908      	ldr	r1, [sp, #32]
200033ca:	2000      	movs	r0, #0
200033cc:	9c0a      	ldr	r4, [sp, #40]	; 0x28
200033ce:	47a0      	blx	r4
200033d0:	4658      	mov	r0, fp
200033d2:	b021      	add	sp, #132	; 0x84
200033d4:	bc3c      	pop	{r2, r3, r4, r5}
200033d6:	4690      	mov	r8, r2
200033d8:	4699      	mov	r9, r3
200033da:	46a2      	mov	sl, r4
200033dc:	46ab      	mov	fp, r5
200033de:	bdf0      	pop	{r4, r5, r6, r7, pc}
200033e0:	2310      	movs	r3, #16
200033e2:	1c62      	adds	r2, r4, #1
200033e4:	4698      	mov	r8, r3
200033e6:	3b08      	subs	r3, #8
200033e8:	469c      	mov	ip, r3
200033ea:	7816      	ldrb	r6, [r2, #0]
200033ec:	3b04      	subs	r3, #4
200033ee:	4699      	mov	r9, r3
200033f0:	3b02      	subs	r3, #2
200033f2:	469b      	mov	fp, r3
200033f4:	0033      	movs	r3, r6
200033f6:	3b20      	subs	r3, #32
200033f8:	b2db      	uxtb	r3, r3
200033fa:	2700      	movs	r7, #0
200033fc:	2101      	movs	r1, #1
200033fe:	0014      	movs	r4, r2
20003400:	2b10      	cmp	r3, #16
20003402:	d80c      	bhi.n	2000341e <_vsnprintf+0xb6>
20003404:	4650      	mov	r0, sl
20003406:	009b      	lsls	r3, r3, #2
20003408:	58c3      	ldr	r3, [r0, r3]
2000340a:	469f      	mov	pc, r3
2000340c:	430f      	orrs	r7, r1
2000340e:	3201      	adds	r2, #1
20003410:	7816      	ldrb	r6, [r2, #0]
20003412:	0014      	movs	r4, r2
20003414:	0033      	movs	r3, r6
20003416:	3b20      	subs	r3, #32
20003418:	b2db      	uxtb	r3, r3
2000341a:	2b10      	cmp	r3, #16
2000341c:	d9f2      	bls.n	20003404 <_vsnprintf+0x9c>
2000341e:	0033      	movs	r3, r6
20003420:	3b30      	subs	r3, #48	; 0x30
20003422:	2b09      	cmp	r3, #9
20003424:	d800      	bhi.n	20003428 <_vsnprintf+0xc0>
20003426:	e1b5      	b.n	20003794 <_vsnprintf+0x42c>
20003428:	2300      	movs	r3, #0
2000342a:	4698      	mov	r8, r3
2000342c:	2e2a      	cmp	r6, #42	; 0x2a
2000342e:	d100      	bne.n	20003432 <_vsnprintf+0xca>
20003430:	e2a6      	b.n	20003980 <_vsnprintf+0x618>
20003432:	2300      	movs	r3, #0
20003434:	469b      	mov	fp, r3
20003436:	2e2e      	cmp	r6, #46	; 0x2e
20003438:	d100      	bne.n	2000343c <_vsnprintf+0xd4>
2000343a:	e1c0      	b.n	200037be <_vsnprintf+0x456>
2000343c:	0033      	movs	r3, r6
2000343e:	3b68      	subs	r3, #104	; 0x68
20003440:	b2db      	uxtb	r3, r3
20003442:	2b12      	cmp	r3, #18
20003444:	d818      	bhi.n	20003478 <_vsnprintf+0x110>
20003446:	4a73      	ldr	r2, [pc, #460]	; (20003614 <_vsnprintf+0x2ac>)
20003448:	009b      	lsls	r3, r3, #2
2000344a:	58d3      	ldr	r3, [r2, r3]
2000344c:	469f      	mov	pc, r3
2000344e:	4663      	mov	r3, ip
20003450:	3201      	adds	r2, #1
20003452:	431f      	orrs	r7, r3
20003454:	e7dc      	b.n	20003410 <_vsnprintf+0xa8>
20003456:	4643      	mov	r3, r8
20003458:	3201      	adds	r2, #1
2000345a:	431f      	orrs	r7, r3
2000345c:	e7d8      	b.n	20003410 <_vsnprintf+0xa8>
2000345e:	464b      	mov	r3, r9
20003460:	3201      	adds	r2, #1
20003462:	431f      	orrs	r7, r3
20003464:	e7d4      	b.n	20003410 <_vsnprintf+0xa8>
20003466:	465b      	mov	r3, fp
20003468:	3201      	adds	r2, #1
2000346a:	431f      	orrs	r7, r3
2000346c:	e7d0      	b.n	20003410 <_vsnprintf+0xa8>
2000346e:	2380      	movs	r3, #128	; 0x80
20003470:	005b      	lsls	r3, r3, #1
20003472:	7866      	ldrb	r6, [r4, #1]
20003474:	431f      	orrs	r7, r3
20003476:	3401      	adds	r4, #1
20003478:	0033      	movs	r3, r6
2000347a:	3b25      	subs	r3, #37	; 0x25
2000347c:	b2db      	uxtb	r3, r3
2000347e:	2b53      	cmp	r3, #83	; 0x53
20003480:	d80f      	bhi.n	200034a2 <_vsnprintf+0x13a>
20003482:	4a65      	ldr	r2, [pc, #404]	; (20003618 <_vsnprintf+0x2b0>)
20003484:	009b      	lsls	r3, r3, #2
20003486:	58d3      	ldr	r3, [r2, r3]
20003488:	469f      	mov	pc, r3
2000348a:	7866      	ldrb	r6, [r4, #1]
2000348c:	2e68      	cmp	r6, #104	; 0x68
2000348e:	d100      	bne.n	20003492 <_vsnprintf+0x12a>
20003490:	e288      	b.n	200039a4 <_vsnprintf+0x63c>
20003492:	2380      	movs	r3, #128	; 0x80
20003494:	431f      	orrs	r7, r3
20003496:	0033      	movs	r3, r6
20003498:	3b25      	subs	r3, #37	; 0x25
2000349a:	b2db      	uxtb	r3, r3
2000349c:	3401      	adds	r4, #1
2000349e:	2b53      	cmp	r3, #83	; 0x53
200034a0:	d9ef      	bls.n	20003482 <_vsnprintf+0x11a>
200034a2:	1c6f      	adds	r7, r5, #1
200034a4:	002a      	movs	r2, r5
200034a6:	9b09      	ldr	r3, [sp, #36]	; 0x24
200034a8:	9d0a      	ldr	r5, [sp, #40]	; 0x28
200034aa:	9908      	ldr	r1, [sp, #32]
200034ac:	0030      	movs	r0, r6
200034ae:	47a8      	blx	r5
200034b0:	3401      	adds	r4, #1
200034b2:	003d      	movs	r5, r7
200034b4:	e771      	b.n	2000339a <_vsnprintf+0x32>
200034b6:	7866      	ldrb	r6, [r4, #1]
200034b8:	2e6c      	cmp	r6, #108	; 0x6c
200034ba:	d100      	bne.n	200034be <_vsnprintf+0x156>
200034bc:	e26c      	b.n	20003998 <_vsnprintf+0x630>
200034be:	2380      	movs	r3, #128	; 0x80
200034c0:	005b      	lsls	r3, r3, #1
200034c2:	431f      	orrs	r7, r3
200034c4:	3401      	adds	r4, #1
200034c6:	e7d7      	b.n	20003478 <_vsnprintf+0x110>
200034c8:	2380      	movs	r3, #128	; 0x80
200034ca:	009b      	lsls	r3, r3, #2
200034cc:	7866      	ldrb	r6, [r4, #1]
200034ce:	431f      	orrs	r7, r3
200034d0:	3401      	adds	r4, #1
200034d2:	e7d1      	b.n	20003478 <_vsnprintf+0x110>
200034d4:	9b0b      	ldr	r3, [sp, #44]	; 0x2c
200034d6:	1d1a      	adds	r2, r3, #4
200034d8:	681b      	ldr	r3, [r3, #0]
200034da:	920e      	str	r2, [sp, #56]	; 0x38
200034dc:	930b      	str	r3, [sp, #44]	; 0x2c
200034de:	465b      	mov	r3, fp
200034e0:	2b00      	cmp	r3, #0
200034e2:	d100      	bne.n	200034e6 <_vsnprintf+0x17e>
200034e4:	e22b      	b.n	2000393e <_vsnprintf+0x5d6>
200034e6:	9a0b      	ldr	r2, [sp, #44]	; 0x2c
200034e8:	7810      	ldrb	r0, [r2, #0]
200034ea:	0016      	movs	r6, r2
200034ec:	2800      	cmp	r0, #0
200034ee:	d104      	bne.n	200034fa <_vsnprintf+0x192>
200034f0:	f000 fca4 	bl	20003e3c <_vsnprintf+0xad4>
200034f4:	3b01      	subs	r3, #1
200034f6:	2b00      	cmp	r3, #0
200034f8:	d003      	beq.n	20003502 <_vsnprintf+0x19a>
200034fa:	3601      	adds	r6, #1
200034fc:	7832      	ldrb	r2, [r6, #0]
200034fe:	2a00      	cmp	r2, #0
20003500:	d1f8      	bne.n	200034f4 <_vsnprintf+0x18c>
20003502:	9b0b      	ldr	r3, [sp, #44]	; 0x2c
20003504:	1af3      	subs	r3, r6, r3
20003506:	930c      	str	r3, [sp, #48]	; 0x30
20003508:	2380      	movs	r3, #128	; 0x80
2000350a:	00db      	lsls	r3, r3, #3
2000350c:	403b      	ands	r3, r7
2000350e:	4699      	mov	r9, r3
20003510:	d003      	beq.n	2000351a <_vsnprintf+0x1b2>
20003512:	9b0c      	ldr	r3, [sp, #48]	; 0x30
20003514:	455b      	cmp	r3, fp
20003516:	d900      	bls.n	2000351a <_vsnprintf+0x1b2>
20003518:	e2ab      	b.n	20003a72 <_vsnprintf+0x70a>
2000351a:	2302      	movs	r3, #2
2000351c:	403b      	ands	r3, r7
2000351e:	930f      	str	r3, [sp, #60]	; 0x3c
20003520:	d100      	bne.n	20003524 <_vsnprintf+0x1bc>
20003522:	e1b3      	b.n	2000388c <_vsnprintf+0x524>
20003524:	2800      	cmp	r0, #0
20003526:	d01e      	beq.n	20003566 <_vsnprintf+0x1fe>
20003528:	464b      	mov	r3, r9
2000352a:	2b00      	cmp	r3, #0
2000352c:	d100      	bne.n	20003530 <_vsnprintf+0x1c8>
2000352e:	e1d0      	b.n	200038d2 <_vsnprintf+0x56a>
20003530:	465b      	mov	r3, fp
20003532:	195f      	adds	r7, r3, r5
20003534:	9b0b      	ldr	r3, [sp, #44]	; 0x2c
20003536:	46a3      	mov	fp, r4
20003538:	1b5e      	subs	r6, r3, r5
2000353a:	46b1      	mov	r9, r6
2000353c:	002a      	movs	r2, r5
2000353e:	9c09      	ldr	r4, [sp, #36]	; 0x24
20003540:	9e0a      	ldr	r6, [sp, #40]	; 0x28
20003542:	e009      	b.n	20003558 <_vsnprintf+0x1f0>
20003544:	0023      	movs	r3, r4
20003546:	9908      	ldr	r1, [sp, #32]
20003548:	1c55      	adds	r5, r2, #1
2000354a:	47b0      	blx	r6
2000354c:	464b      	mov	r3, r9
2000354e:	5d58      	ldrb	r0, [r3, r5]
20003550:	2800      	cmp	r0, #0
20003552:	d100      	bne.n	20003556 <_vsnprintf+0x1ee>
20003554:	e1ce      	b.n	200038f4 <_vsnprintf+0x58c>
20003556:	002a      	movs	r2, r5
20003558:	4297      	cmp	r7, r2
2000355a:	d1f3      	bne.n	20003544 <_vsnprintf+0x1dc>
2000355c:	465c      	mov	r4, fp
2000355e:	003d      	movs	r5, r7
20003560:	9b0f      	ldr	r3, [sp, #60]	; 0x3c
20003562:	2b00      	cmp	r3, #0
20003564:	d014      	beq.n	20003590 <_vsnprintf+0x228>
20003566:	9a0c      	ldr	r2, [sp, #48]	; 0x30
20003568:	4590      	cmp	r8, r2
2000356a:	d911      	bls.n	20003590 <_vsnprintf+0x228>
2000356c:	4643      	mov	r3, r8
2000356e:	1958      	adds	r0, r3, r5
20003570:	9b09      	ldr	r3, [sp, #36]	; 0x24
20003572:	1a86      	subs	r6, r0, r2
20003574:	4698      	mov	r8, r3
20003576:	002a      	movs	r2, r5
20003578:	46a1      	mov	r9, r4
2000357a:	9f0a      	ldr	r7, [sp, #40]	; 0x28
2000357c:	9c08      	ldr	r4, [sp, #32]
2000357e:	3501      	adds	r5, #1
20003580:	4643      	mov	r3, r8
20003582:	0021      	movs	r1, r4
20003584:	2020      	movs	r0, #32
20003586:	47b8      	blx	r7
20003588:	002a      	movs	r2, r5
2000358a:	42b5      	cmp	r5, r6
2000358c:	d1f7      	bne.n	2000357e <_vsnprintf+0x216>
2000358e:	464c      	mov	r4, r9
20003590:	9b0e      	ldr	r3, [sp, #56]	; 0x38
20003592:	3401      	adds	r4, #1
20003594:	930b      	str	r3, [sp, #44]	; 0x2c
20003596:	e700      	b.n	2000339a <_vsnprintf+0x32>
20003598:	9b0b      	ldr	r3, [sp, #44]	; 0x2c
2000359a:	1d1a      	adds	r2, r3, #4
2000359c:	681b      	ldr	r3, [r3, #0]
2000359e:	4690      	mov	r8, r2
200035a0:	2b00      	cmp	r3, #0
200035a2:	d100      	bne.n	200035a6 <_vsnprintf+0x23e>
200035a4:	e1ce      	b.n	20003944 <_vsnprintf+0x5dc>
200035a6:	2221      	movs	r2, #33	; 0x21
200035a8:	4317      	orrs	r7, r2
200035aa:	970b      	str	r7, [sp, #44]	; 0x2c
200035ac:	210f      	movs	r1, #15
200035ae:	2200      	movs	r2, #0
200035b0:	ae18      	add	r6, sp, #96	; 0x60
200035b2:	4689      	mov	r9, r1
200035b4:	46a4      	mov	ip, r4
200035b6:	e002      	b.n	200035be <_vsnprintf+0x256>
200035b8:	000a      	movs	r2, r1
200035ba:	2920      	cmp	r1, #32
200035bc:	d00c      	beq.n	200035d8 <_vsnprintf+0x270>
200035be:	4648      	mov	r0, r9
200035c0:	4018      	ands	r0, r3
200035c2:	b2c4      	uxtb	r4, r0
200035c4:	0027      	movs	r7, r4
200035c6:	1c51      	adds	r1, r2, #1
200035c8:	3737      	adds	r7, #55	; 0x37
200035ca:	2809      	cmp	r0, #9
200035cc:	d801      	bhi.n	200035d2 <_vsnprintf+0x26a>
200035ce:	3430      	adds	r4, #48	; 0x30
200035d0:	0027      	movs	r7, r4
200035d2:	54b7      	strb	r7, [r6, r2]
200035d4:	091b      	lsrs	r3, r3, #4
200035d6:	d1ef      	bne.n	200035b8 <_vsnprintf+0x250>
200035d8:	4664      	mov	r4, ip
200035da:	9b0b      	ldr	r3, [sp, #44]	; 0x2c
200035dc:	9101      	str	r1, [sp, #4]
200035de:	9306      	str	r3, [sp, #24]
200035e0:	2308      	movs	r3, #8
200035e2:	9305      	str	r3, [sp, #20]
200035e4:	465b      	mov	r3, fp
200035e6:	9304      	str	r3, [sp, #16]
200035e8:	2310      	movs	r3, #16
200035ea:	9303      	str	r3, [sp, #12]
200035ec:	2300      	movs	r3, #0
200035ee:	002a      	movs	r2, r5
200035f0:	9302      	str	r3, [sp, #8]
200035f2:	9600      	str	r6, [sp, #0]
200035f4:	9b09      	ldr	r3, [sp, #36]	; 0x24
200035f6:	9908      	ldr	r1, [sp, #32]
200035f8:	980a      	ldr	r0, [sp, #40]	; 0x28
200035fa:	f7ff f859 	bl	200026b0 <_ntoa_format>
200035fe:	4643      	mov	r3, r8
20003600:	0005      	movs	r5, r0
20003602:	3401      	adds	r4, #1
20003604:	930b      	str	r3, [sp, #44]	; 0x2c
20003606:	e6c8      	b.n	2000339a <_vsnprintf+0x32>
20003608:	20003369 	.word	0x20003369
2000360c:	200067e4 	.word	0x200067e4
20003610:	200058d0 	.word	0x200058d0
20003614:	20005914 	.word	0x20005914
20003618:	20005960 	.word	0x20005960
2000361c:	2e78      	cmp	r6, #120	; 0x78
2000361e:	d100      	bne.n	20003622 <_vsnprintf+0x2ba>
20003620:	e1c5      	b.n	200039ae <_vsnprintf+0x646>
20003622:	2e58      	cmp	r6, #88	; 0x58
20003624:	d100      	bne.n	20003628 <_vsnprintf+0x2c0>
20003626:	e22f      	b.n	20003a88 <_vsnprintf+0x720>
20003628:	2e6f      	cmp	r6, #111	; 0x6f
2000362a:	d100      	bne.n	2000362e <_vsnprintf+0x2c6>
2000362c:	e331      	b.n	20003c92 <_vsnprintf+0x92a>
2000362e:	2e62      	cmp	r6, #98	; 0x62
20003630:	d100      	bne.n	20003634 <_vsnprintf+0x2cc>
20003632:	e226      	b.n	20003a82 <_vsnprintf+0x71a>
20003634:	2310      	movs	r3, #16
20003636:	003a      	movs	r2, r7
20003638:	439a      	bics	r2, r3
2000363a:	920c      	str	r2, [sp, #48]	; 0x30
2000363c:	2e69      	cmp	r6, #105	; 0x69
2000363e:	d001      	beq.n	20003644 <_vsnprintf+0x2dc>
20003640:	f000 fc1e 	bl	20003e80 <_vsnprintf+0xb18>
20003644:	230a      	movs	r3, #10
20003646:	930e      	str	r3, [sp, #56]	; 0x38
20003648:	057b      	lsls	r3, r7, #21
2000364a:	d500      	bpl.n	2000364e <_vsnprintf+0x2e6>
2000364c:	e1b7      	b.n	200039be <_vsnprintf+0x656>
2000364e:	2780      	movs	r7, #128	; 0x80
20003650:	9b0c      	ldr	r3, [sp, #48]	; 0x30
20003652:	00bf      	lsls	r7, r7, #2
20003654:	401f      	ands	r7, r3
20003656:	d000      	beq.n	2000365a <_vsnprintf+0x2f2>
20003658:	e2b8      	b.n	20003bcc <_vsnprintf+0x864>
2000365a:	001a      	movs	r2, r3
2000365c:	2380      	movs	r3, #128	; 0x80
2000365e:	005b      	lsls	r3, r3, #1
20003660:	401a      	ands	r2, r3
20003662:	4691      	mov	r9, r2
20003664:	d000      	beq.n	20003668 <_vsnprintf+0x300>
20003666:	e36e      	b.n	20003d46 <_vsnprintf+0x9de>
20003668:	9b0c      	ldr	r3, [sp, #48]	; 0x30
2000366a:	065b      	lsls	r3, r3, #25
2000366c:	d501      	bpl.n	20003672 <_vsnprintf+0x30a>
2000366e:	f000 fbf1 	bl	20003e54 <_vsnprintf+0xaec>
20003672:	9b0c      	ldr	r3, [sp, #48]	; 0x30
20003674:	9a0b      	ldr	r2, [sp, #44]	; 0x2c
20003676:	061b      	lsls	r3, r3, #24
20003678:	d400      	bmi.n	2000367c <_vsnprintf+0x314>
2000367a:	e3c1      	b.n	20003e00 <_vsnprintf+0xa98>
2000367c:	2100      	movs	r1, #0
2000367e:	5e53      	ldrsh	r3, [r2, r1]
20003680:	3204      	adds	r2, #4
20003682:	0fd9      	lsrs	r1, r3, #31
20003684:	9114      	str	r1, [sp, #80]	; 0x50
20003686:	920b      	str	r2, [sp, #44]	; 0x2c
20003688:	17da      	asrs	r2, r3, #31
2000368a:	189f      	adds	r7, r3, r2
2000368c:	4057      	eors	r7, r2
2000368e:	2b00      	cmp	r3, #0
20003690:	d109      	bne.n	200036a6 <_vsnprintf+0x33e>
20003692:	990c      	ldr	r1, [sp, #48]	; 0x30
20003694:	3310      	adds	r3, #16
20003696:	000a      	movs	r2, r1
20003698:	439a      	bics	r2, r3
2000369a:	0013      	movs	r3, r2
2000369c:	000a      	movs	r2, r1
2000369e:	930c      	str	r3, [sp, #48]	; 0x30
200036a0:	0552      	lsls	r2, r2, #21
200036a2:	d500      	bpl.n	200036a6 <_vsnprintf+0x33e>
200036a4:	e3de      	b.n	20003e64 <_vsnprintf+0xafc>
200036a6:	9a0c      	ldr	r2, [sp, #48]	; 0x30
200036a8:	2361      	movs	r3, #97	; 0x61
200036aa:	0692      	lsls	r2, r2, #26
200036ac:	d500      	bpl.n	200036b0 <_vsnprintf+0x348>
200036ae:	2341      	movs	r3, #65	; 0x41
200036b0:	b2db      	uxtb	r3, r3
200036b2:	ae18      	add	r6, sp, #96	; 0x60
200036b4:	3b0a      	subs	r3, #10
200036b6:	9416      	str	r4, [sp, #88]	; 0x58
200036b8:	930f      	str	r3, [sp, #60]	; 0x3c
200036ba:	464c      	mov	r4, r9
200036bc:	9515      	str	r5, [sp, #84]	; 0x54
200036be:	46b1      	mov	r9, r6
200036c0:	9e0e      	ldr	r6, [sp, #56]	; 0x38
200036c2:	e00e      	b.n	200036e2 <_vsnprintf+0x37a>
200036c4:	3330      	adds	r3, #48	; 0x30
200036c6:	b2db      	uxtb	r3, r3
200036c8:	464a      	mov	r2, r9
200036ca:	0038      	movs	r0, r7
200036cc:	5513      	strb	r3, [r2, r4]
200036ce:	0031      	movs	r1, r6
200036d0:	f7fe f8b0 	bl	20001834 <__wrap___aeabi_uidiv>
200036d4:	1e07      	subs	r7, r0, #0
200036d6:	d100      	bne.n	200036da <_vsnprintf+0x372>
200036d8:	e1fd      	b.n	20003ad6 <_vsnprintf+0x76e>
200036da:	002c      	movs	r4, r5
200036dc:	2d20      	cmp	r5, #32
200036de:	d100      	bne.n	200036e2 <_vsnprintf+0x37a>
200036e0:	e1f9      	b.n	20003ad6 <_vsnprintf+0x76e>
200036e2:	0031      	movs	r1, r6
200036e4:	0038      	movs	r0, r7
200036e6:	f7fe f8a5 	bl	20001834 <__wrap___aeabi_uidiv>
200036ea:	1c65      	adds	r5, r4, #1
200036ec:	b2cb      	uxtb	r3, r1
200036ee:	2909      	cmp	r1, #9
200036f0:	d9e8      	bls.n	200036c4 <_vsnprintf+0x35c>
200036f2:	9a0f      	ldr	r2, [sp, #60]	; 0x3c
200036f4:	4694      	mov	ip, r2
200036f6:	4463      	add	r3, ip
200036f8:	b2db      	uxtb	r3, r3
200036fa:	e7e5      	b.n	200036c8 <_vsnprintf+0x360>
200036fc:	2e46      	cmp	r6, #70	; 0x46
200036fe:	d100      	bne.n	20003702 <_vsnprintf+0x39a>
20003700:	e1b4      	b.n	20003a6c <_vsnprintf+0x704>
20003702:	2207      	movs	r2, #7
20003704:	9b0b      	ldr	r3, [sp, #44]	; 0x2c
20003706:	9704      	str	r7, [sp, #16]
20003708:	3307      	adds	r3, #7
2000370a:	4393      	bics	r3, r2
2000370c:	3201      	adds	r2, #1
2000370e:	4694      	mov	ip, r2
20003710:	449c      	add	ip, r3
20003712:	4662      	mov	r2, ip
20003714:	920b      	str	r2, [sp, #44]	; 0x2c
20003716:	4642      	mov	r2, r8
20003718:	9203      	str	r2, [sp, #12]
2000371a:	465a      	mov	r2, fp
2000371c:	9202      	str	r2, [sp, #8]
2000371e:	681a      	ldr	r2, [r3, #0]
20003720:	685b      	ldr	r3, [r3, #4]
20003722:	9908      	ldr	r1, [sp, #32]
20003724:	9200      	str	r2, [sp, #0]
20003726:	9301      	str	r3, [sp, #4]
20003728:	980a      	ldr	r0, [sp, #40]	; 0x28
2000372a:	002a      	movs	r2, r5
2000372c:	9b09      	ldr	r3, [sp, #36]	; 0x24
2000372e:	f7ff f8c9 	bl	200028c4 <_ftoa>
20003732:	3401      	adds	r4, #1
20003734:	0005      	movs	r5, r0
20003736:	e630      	b.n	2000339a <_vsnprintf+0x32>
20003738:	1c6e      	adds	r6, r5, #1
2000373a:	002a      	movs	r2, r5
2000373c:	9b09      	ldr	r3, [sp, #36]	; 0x24
2000373e:	9d0a      	ldr	r5, [sp, #40]	; 0x28
20003740:	9908      	ldr	r1, [sp, #32]
20003742:	2025      	movs	r0, #37	; 0x25
20003744:	47a8      	blx	r5
20003746:	3401      	adds	r4, #1
20003748:	0035      	movs	r5, r6
2000374a:	e626      	b.n	2000339a <_vsnprintf+0x32>
2000374c:	07bb      	lsls	r3, r7, #30
2000374e:	d500      	bpl.n	20003752 <_vsnprintf+0x3ea>
20003750:	e0d2      	b.n	200038f8 <_vsnprintf+0x590>
20003752:	4643      	mov	r3, r8
20003754:	2b01      	cmp	r3, #1
20003756:	d800      	bhi.n	2000375a <_vsnprintf+0x3f2>
20003758:	e388      	b.n	20003e6c <_vsnprintf+0xb04>
2000375a:	9b09      	ldr	r3, [sp, #36]	; 0x24
2000375c:	1e6f      	subs	r7, r5, #1
2000375e:	4447      	add	r7, r8
20003760:	4698      	mov	r8, r3
20003762:	002a      	movs	r2, r5
20003764:	46a1      	mov	r9, r4
20003766:	9d0a      	ldr	r5, [sp, #40]	; 0x28
20003768:	9c08      	ldr	r4, [sp, #32]
2000376a:	1c56      	adds	r6, r2, #1
2000376c:	4643      	mov	r3, r8
2000376e:	0021      	movs	r1, r4
20003770:	2020      	movs	r0, #32
20003772:	47a8      	blx	r5
20003774:	0032      	movs	r2, r6
20003776:	42be      	cmp	r6, r7
20003778:	d1f7      	bne.n	2000376a <_vsnprintf+0x402>
2000377a:	464c      	mov	r4, r9
2000377c:	9b0b      	ldr	r3, [sp, #44]	; 0x2c
2000377e:	0032      	movs	r2, r6
20003780:	1d1f      	adds	r7, r3, #4
20003782:	7818      	ldrb	r0, [r3, #0]
20003784:	1c75      	adds	r5, r6, #1
20003786:	9b09      	ldr	r3, [sp, #36]	; 0x24
20003788:	9908      	ldr	r1, [sp, #32]
2000378a:	9e0a      	ldr	r6, [sp, #40]	; 0x28
2000378c:	47b0      	blx	r6
2000378e:	3401      	adds	r4, #1
20003790:	970b      	str	r7, [sp, #44]	; 0x2c
20003792:	e602      	b.n	2000339a <_vsnprintf+0x32>
20003794:	2300      	movs	r3, #0
20003796:	0032      	movs	r2, r6
20003798:	009e      	lsls	r6, r3, #2
2000379a:	18f6      	adds	r6, r6, r3
2000379c:	3401      	adds	r4, #1
2000379e:	0076      	lsls	r6, r6, #1
200037a0:	18b6      	adds	r6, r6, r2
200037a2:	7822      	ldrb	r2, [r4, #0]
200037a4:	0033      	movs	r3, r6
200037a6:	0011      	movs	r1, r2
200037a8:	3930      	subs	r1, #48	; 0x30
200037aa:	3b30      	subs	r3, #48	; 0x30
200037ac:	2909      	cmp	r1, #9
200037ae:	d9f3      	bls.n	20003798 <_vsnprintf+0x430>
200037b0:	4698      	mov	r8, r3
200037b2:	2300      	movs	r3, #0
200037b4:	0016      	movs	r6, r2
200037b6:	469b      	mov	fp, r3
200037b8:	2e2e      	cmp	r6, #46	; 0x2e
200037ba:	d000      	beq.n	200037be <_vsnprintf+0x456>
200037bc:	e63e      	b.n	2000343c <_vsnprintf+0xd4>
200037be:	2380      	movs	r3, #128	; 0x80
200037c0:	7866      	ldrb	r6, [r4, #1]
200037c2:	00db      	lsls	r3, r3, #3
200037c4:	431f      	orrs	r7, r3
200037c6:	0033      	movs	r3, r6
200037c8:	3b30      	subs	r3, #48	; 0x30
200037ca:	1c62      	adds	r2, r4, #1
200037cc:	2b09      	cmp	r3, #9
200037ce:	d811      	bhi.n	200037f4 <_vsnprintf+0x48c>
200037d0:	0014      	movs	r4, r2
200037d2:	0033      	movs	r3, r6
200037d4:	465a      	mov	r2, fp
200037d6:	0096      	lsls	r6, r2, #2
200037d8:	18b6      	adds	r6, r6, r2
200037da:	3401      	adds	r4, #1
200037dc:	0076      	lsls	r6, r6, #1
200037de:	18f6      	adds	r6, r6, r3
200037e0:	7823      	ldrb	r3, [r4, #0]
200037e2:	0032      	movs	r2, r6
200037e4:	0019      	movs	r1, r3
200037e6:	3930      	subs	r1, #48	; 0x30
200037e8:	3a30      	subs	r2, #48	; 0x30
200037ea:	2909      	cmp	r1, #9
200037ec:	d9f3      	bls.n	200037d6 <_vsnprintf+0x46e>
200037ee:	001e      	movs	r6, r3
200037f0:	4693      	mov	fp, r2
200037f2:	e623      	b.n	2000343c <_vsnprintf+0xd4>
200037f4:	2e2a      	cmp	r6, #42	; 0x2a
200037f6:	d100      	bne.n	200037fa <_vsnprintf+0x492>
200037f8:	e181      	b.n	20003afe <_vsnprintf+0x796>
200037fa:	0014      	movs	r4, r2
200037fc:	e61e      	b.n	2000343c <_vsnprintf+0xd4>
200037fe:	2320      	movs	r3, #32
20003800:	0032      	movs	r2, r6
20003802:	439a      	bics	r2, r3
20003804:	2a47      	cmp	r2, #71	; 0x47
20003806:	d104      	bne.n	20003812 <_vsnprintf+0x4aa>
20003808:	2380      	movs	r3, #128	; 0x80
2000380a:	011b      	lsls	r3, r3, #4
2000380c:	431f      	orrs	r7, r3
2000380e:	2302      	movs	r3, #2
20003810:	439e      	bics	r6, r3
20003812:	2e45      	cmp	r6, #69	; 0x45
20003814:	d101      	bne.n	2000381a <_vsnprintf+0x4b2>
20003816:	2320      	movs	r3, #32
20003818:	431f      	orrs	r7, r3
2000381a:	2207      	movs	r2, #7
2000381c:	9b0b      	ldr	r3, [sp, #44]	; 0x2c
2000381e:	3307      	adds	r3, #7
20003820:	4393      	bics	r3, r2
20003822:	3201      	adds	r2, #1
20003824:	4694      	mov	ip, r2
20003826:	449c      	add	ip, r3
20003828:	4662      	mov	r2, ip
2000382a:	920b      	str	r2, [sp, #44]	; 0x2c
2000382c:	681a      	ldr	r2, [r3, #0]
2000382e:	685b      	ldr	r3, [r3, #4]
20003830:	0010      	movs	r0, r2
20003832:	0019      	movs	r1, r3
20003834:	900c      	str	r0, [sp, #48]	; 0x30
20003836:	910d      	str	r1, [sp, #52]	; 0x34
20003838:	f7fe fac5 	bl	20001dc6 <__wrap___aeabi_dcmpun>
2000383c:	2800      	cmp	r0, #0
2000383e:	d000      	beq.n	20003842 <_vsnprintf+0x4da>
20003840:	e08c      	b.n	2000395c <_vsnprintf+0x5f4>
20003842:	980c      	ldr	r0, [sp, #48]	; 0x30
20003844:	990d      	ldr	r1, [sp, #52]	; 0x34
20003846:	2201      	movs	r2, #1
20003848:	4bca      	ldr	r3, [pc, #808]	; (20003b74 <_vsnprintf+0x80c>)
2000384a:	4252      	negs	r2, r2
2000384c:	f7fe fab6 	bl	20001dbc <__wrap___aeabi_dcmpgt>
20003850:	2800      	cmp	r0, #0
20003852:	d000      	beq.n	20003856 <_vsnprintf+0x4ee>
20003854:	e082      	b.n	2000395c <_vsnprintf+0x5f4>
20003856:	980c      	ldr	r0, [sp, #48]	; 0x30
20003858:	990d      	ldr	r1, [sp, #52]	; 0x34
2000385a:	2201      	movs	r2, #1
2000385c:	4bc6      	ldr	r3, [pc, #792]	; (20003b78 <_vsnprintf+0x810>)
2000385e:	4252      	negs	r2, r2
20003860:	f7fe fa9e 	bl	20001da0 <__wrap___aeabi_dcmplt>
20003864:	2800      	cmp	r0, #0
20003866:	d179      	bne.n	2000395c <_vsnprintf+0x5f4>
20003868:	4643      	mov	r3, r8
2000386a:	9303      	str	r3, [sp, #12]
2000386c:	465b      	mov	r3, fp
2000386e:	9704      	str	r7, [sp, #16]
20003870:	9302      	str	r3, [sp, #8]
20003872:	9908      	ldr	r1, [sp, #32]
20003874:	9a0c      	ldr	r2, [sp, #48]	; 0x30
20003876:	9b0d      	ldr	r3, [sp, #52]	; 0x34
20003878:	980a      	ldr	r0, [sp, #40]	; 0x28
2000387a:	9200      	str	r2, [sp, #0]
2000387c:	9301      	str	r3, [sp, #4]
2000387e:	002a      	movs	r2, r5
20003880:	9b09      	ldr	r3, [sp, #36]	; 0x24
20003882:	f7ff fb81 	bl	20002f88 <_etoa.part.1>
20003886:	3401      	adds	r4, #1
20003888:	0005      	movs	r5, r0
2000388a:	e586      	b.n	2000339a <_vsnprintf+0x32>
2000388c:	990c      	ldr	r1, [sp, #48]	; 0x30
2000388e:	000b      	movs	r3, r1
20003890:	3301      	adds	r3, #1
20003892:	4588      	cmp	r8, r1
20003894:	d800      	bhi.n	20003898 <_vsnprintf+0x530>
20003896:	e2eb      	b.n	20003e70 <_vsnprintf+0xb08>
20003898:	4643      	mov	r3, r8
2000389a:	002a      	movs	r2, r5
2000389c:	195f      	adds	r7, r3, r5
2000389e:	940c      	str	r4, [sp, #48]	; 0x30
200038a0:	9d08      	ldr	r5, [sp, #32]
200038a2:	9c0a      	ldr	r4, [sp, #40]	; 0x28
200038a4:	1a7f      	subs	r7, r7, r1
200038a6:	1c56      	adds	r6, r2, #1
200038a8:	9b09      	ldr	r3, [sp, #36]	; 0x24
200038aa:	0029      	movs	r1, r5
200038ac:	2020      	movs	r0, #32
200038ae:	47a0      	blx	r4
200038b0:	0032      	movs	r2, r6
200038b2:	42be      	cmp	r6, r7
200038b4:	d1f7      	bne.n	200038a6 <_vsnprintf+0x53e>
200038b6:	4643      	mov	r3, r8
200038b8:	0035      	movs	r5, r6
200038ba:	3301      	adds	r3, #1
200038bc:	9c0c      	ldr	r4, [sp, #48]	; 0x30
200038be:	930c      	str	r3, [sp, #48]	; 0x30
200038c0:	9b0b      	ldr	r3, [sp, #44]	; 0x2c
200038c2:	7818      	ldrb	r0, [r3, #0]
200038c4:	2800      	cmp	r0, #0
200038c6:	d100      	bne.n	200038ca <_vsnprintf+0x562>
200038c8:	e662      	b.n	20003590 <_vsnprintf+0x228>
200038ca:	464b      	mov	r3, r9
200038cc:	2b00      	cmp	r3, #0
200038ce:	d000      	beq.n	200038d2 <_vsnprintf+0x56a>
200038d0:	e62e      	b.n	20003530 <_vsnprintf+0x1c8>
200038d2:	002a      	movs	r2, r5
200038d4:	9b0b      	ldr	r3, [sp, #44]	; 0x2c
200038d6:	46a3      	mov	fp, r4
200038d8:	1b5f      	subs	r7, r3, r5
200038da:	46b9      	mov	r9, r7
200038dc:	9e0a      	ldr	r6, [sp, #40]	; 0x28
200038de:	9c08      	ldr	r4, [sp, #32]
200038e0:	9f09      	ldr	r7, [sp, #36]	; 0x24
200038e2:	003b      	movs	r3, r7
200038e4:	0021      	movs	r1, r4
200038e6:	1c55      	adds	r5, r2, #1
200038e8:	47b0      	blx	r6
200038ea:	464b      	mov	r3, r9
200038ec:	5d58      	ldrb	r0, [r3, r5]
200038ee:	002a      	movs	r2, r5
200038f0:	2800      	cmp	r0, #0
200038f2:	d1f6      	bne.n	200038e2 <_vsnprintf+0x57a>
200038f4:	465c      	mov	r4, fp
200038f6:	e633      	b.n	20003560 <_vsnprintf+0x1f8>
200038f8:	9b0b      	ldr	r3, [sp, #44]	; 0x2c
200038fa:	9908      	ldr	r1, [sp, #32]
200038fc:	1d1a      	adds	r2, r3, #4
200038fe:	7818      	ldrb	r0, [r3, #0]
20003900:	4691      	mov	r9, r2
20003902:	9b09      	ldr	r3, [sp, #36]	; 0x24
20003904:	002a      	movs	r2, r5
20003906:	9f0a      	ldr	r7, [sp, #40]	; 0x28
20003908:	47b8      	blx	r7
2000390a:	4643      	mov	r3, r8
2000390c:	1c6e      	adds	r6, r5, #1
2000390e:	4445      	add	r5, r8
20003910:	2b01      	cmp	r3, #1
20003912:	d800      	bhi.n	20003916 <_vsnprintf+0x5ae>
20003914:	e2ae      	b.n	20003e74 <_vsnprintf+0xb0c>
20003916:	46a3      	mov	fp, r4
20003918:	0032      	movs	r2, r6
2000391a:	46a8      	mov	r8, r5
2000391c:	9c08      	ldr	r4, [sp, #32]
2000391e:	9e09      	ldr	r6, [sp, #36]	; 0x24
20003920:	9d0a      	ldr	r5, [sp, #40]	; 0x28
20003922:	1c57      	adds	r7, r2, #1
20003924:	0033      	movs	r3, r6
20003926:	0021      	movs	r1, r4
20003928:	2020      	movs	r0, #32
2000392a:	47a8      	blx	r5
2000392c:	003a      	movs	r2, r7
2000392e:	4547      	cmp	r7, r8
20003930:	d1f7      	bne.n	20003922 <_vsnprintf+0x5ba>
20003932:	465c      	mov	r4, fp
20003934:	464b      	mov	r3, r9
20003936:	003d      	movs	r5, r7
20003938:	930b      	str	r3, [sp, #44]	; 0x2c
2000393a:	3401      	adds	r4, #1
2000393c:	e52d      	b.n	2000339a <_vsnprintf+0x32>
2000393e:	2301      	movs	r3, #1
20003940:	425b      	negs	r3, r3
20003942:	e5d0      	b.n	200034e6 <_vsnprintf+0x17e>
20003944:	2210      	movs	r2, #16
20003946:	0039      	movs	r1, r7
20003948:	4391      	bics	r1, r2
2000394a:	3211      	adds	r2, #17
2000394c:	4311      	orrs	r1, r2
2000394e:	910b      	str	r1, [sp, #44]	; 0x2c
20003950:	057a      	lsls	r2, r7, #21
20003952:	d400      	bmi.n	20003956 <_vsnprintf+0x5ee>
20003954:	e62a      	b.n	200035ac <_vsnprintf+0x244>
20003956:	2100      	movs	r1, #0
20003958:	ae18      	add	r6, sp, #96	; 0x60
2000395a:	e63e      	b.n	200035da <_vsnprintf+0x272>
2000395c:	4643      	mov	r3, r8
2000395e:	9303      	str	r3, [sp, #12]
20003960:	465b      	mov	r3, fp
20003962:	9704      	str	r7, [sp, #16]
20003964:	9302      	str	r3, [sp, #8]
20003966:	9908      	ldr	r1, [sp, #32]
20003968:	9a0c      	ldr	r2, [sp, #48]	; 0x30
2000396a:	9b0d      	ldr	r3, [sp, #52]	; 0x34
2000396c:	980a      	ldr	r0, [sp, #40]	; 0x28
2000396e:	9200      	str	r2, [sp, #0]
20003970:	9301      	str	r3, [sp, #4]
20003972:	002a      	movs	r2, r5
20003974:	9b09      	ldr	r3, [sp, #36]	; 0x24
20003976:	f7fe ffa5 	bl	200028c4 <_ftoa>
2000397a:	3401      	adds	r4, #1
2000397c:	0005      	movs	r5, r0
2000397e:	e50c      	b.n	2000339a <_vsnprintf+0x32>
20003980:	990b      	ldr	r1, [sp, #44]	; 0x2c
20003982:	000b      	movs	r3, r1
20003984:	6809      	ldr	r1, [r1, #0]
20003986:	3304      	adds	r3, #4
20003988:	4688      	mov	r8, r1
2000398a:	2900      	cmp	r1, #0
2000398c:	da00      	bge.n	20003990 <_vsnprintf+0x628>
2000398e:	e0b0      	b.n	20003af2 <_vsnprintf+0x78a>
20003990:	7856      	ldrb	r6, [r2, #1]
20003992:	930b      	str	r3, [sp, #44]	; 0x2c
20003994:	1c54      	adds	r4, r2, #1
20003996:	e54c      	b.n	20003432 <_vsnprintf+0xca>
20003998:	23c0      	movs	r3, #192	; 0xc0
2000399a:	009b      	lsls	r3, r3, #2
2000399c:	78a6      	ldrb	r6, [r4, #2]
2000399e:	431f      	orrs	r7, r3
200039a0:	3402      	adds	r4, #2
200039a2:	e569      	b.n	20003478 <_vsnprintf+0x110>
200039a4:	23c0      	movs	r3, #192	; 0xc0
200039a6:	78a6      	ldrb	r6, [r4, #2]
200039a8:	431f      	orrs	r7, r3
200039aa:	3402      	adds	r4, #2
200039ac:	e564      	b.n	20003478 <_vsnprintf+0x110>
200039ae:	2310      	movs	r3, #16
200039b0:	930e      	str	r3, [sp, #56]	; 0x38
200039b2:	230c      	movs	r3, #12
200039b4:	003a      	movs	r2, r7
200039b6:	439a      	bics	r2, r3
200039b8:	920c      	str	r2, [sp, #48]	; 0x30
200039ba:	057b      	lsls	r3, r7, #21
200039bc:	d502      	bpl.n	200039c4 <_vsnprintf+0x65c>
200039be:	2301      	movs	r3, #1
200039c0:	439a      	bics	r2, r3
200039c2:	920c      	str	r2, [sp, #48]	; 0x30
200039c4:	2e69      	cmp	r6, #105	; 0x69
200039c6:	d100      	bne.n	200039ca <_vsnprintf+0x662>
200039c8:	e641      	b.n	2000364e <_vsnprintf+0x2e6>
200039ca:	2e64      	cmp	r6, #100	; 0x64
200039cc:	d100      	bne.n	200039d0 <_vsnprintf+0x668>
200039ce:	e63e      	b.n	2000364e <_vsnprintf+0x2e6>
200039d0:	2780      	movs	r7, #128	; 0x80
200039d2:	9b0c      	ldr	r3, [sp, #48]	; 0x30
200039d4:	00bf      	lsls	r7, r7, #2
200039d6:	401f      	ands	r7, r3
200039d8:	d000      	beq.n	200039dc <_vsnprintf+0x674>
200039da:	e09e      	b.n	20003b1a <_vsnprintf+0x7b2>
200039dc:	001a      	movs	r2, r3
200039de:	2380      	movs	r3, #128	; 0x80
200039e0:	005b      	lsls	r3, r3, #1
200039e2:	401a      	ands	r2, r3
200039e4:	4691      	mov	r9, r2
200039e6:	d000      	beq.n	200039ea <_vsnprintf+0x682>
200039e8:	e170      	b.n	20003ccc <_vsnprintf+0x964>
200039ea:	9b0c      	ldr	r3, [sp, #48]	; 0x30
200039ec:	065b      	lsls	r3, r3, #25
200039ee:	d500      	bpl.n	200039f2 <_vsnprintf+0x68a>
200039f0:	e21f      	b.n	20003e32 <_vsnprintf+0xaca>
200039f2:	9b0c      	ldr	r3, [sp, #48]	; 0x30
200039f4:	061b      	lsls	r3, r3, #24
200039f6:	d400      	bmi.n	200039fa <_vsnprintf+0x692>
200039f8:	e208      	b.n	20003e0c <_vsnprintf+0xaa4>
200039fa:	9b0b      	ldr	r3, [sp, #44]	; 0x2c
200039fc:	881f      	ldrh	r7, [r3, #0]
200039fe:	3304      	adds	r3, #4
20003a00:	930b      	str	r3, [sp, #44]	; 0x2c
20003a02:	2f00      	cmp	r7, #0
20003a04:	d109      	bne.n	20003a1a <_vsnprintf+0x6b2>
20003a06:	990c      	ldr	r1, [sp, #48]	; 0x30
20003a08:	2310      	movs	r3, #16
20003a0a:	000a      	movs	r2, r1
20003a0c:	439a      	bics	r2, r3
20003a0e:	0013      	movs	r3, r2
20003a10:	000a      	movs	r2, r1
20003a12:	930c      	str	r3, [sp, #48]	; 0x30
20003a14:	0552      	lsls	r2, r2, #21
20003a16:	d500      	bpl.n	20003a1a <_vsnprintf+0x6b2>
20003a18:	e0d4      	b.n	20003bc4 <_vsnprintf+0x85c>
20003a1a:	9a0c      	ldr	r2, [sp, #48]	; 0x30
20003a1c:	2361      	movs	r3, #97	; 0x61
20003a1e:	0692      	lsls	r2, r2, #26
20003a20:	d500      	bpl.n	20003a24 <_vsnprintf+0x6bc>
20003a22:	2341      	movs	r3, #65	; 0x41
20003a24:	b2db      	uxtb	r3, r3
20003a26:	ae18      	add	r6, sp, #96	; 0x60
20003a28:	3b0a      	subs	r3, #10
20003a2a:	9415      	str	r4, [sp, #84]	; 0x54
20003a2c:	930f      	str	r3, [sp, #60]	; 0x3c
20003a2e:	464c      	mov	r4, r9
20003a30:	9514      	str	r5, [sp, #80]	; 0x50
20003a32:	46b1      	mov	r9, r6
20003a34:	9e0e      	ldr	r6, [sp, #56]	; 0x38
20003a36:	e00c      	b.n	20003a52 <_vsnprintf+0x6ea>
20003a38:	3330      	adds	r3, #48	; 0x30
20003a3a:	b2db      	uxtb	r3, r3
20003a3c:	464a      	mov	r2, r9
20003a3e:	0038      	movs	r0, r7
20003a40:	5513      	strb	r3, [r2, r4]
20003a42:	0031      	movs	r1, r6
20003a44:	f7fd fef6 	bl	20001834 <__wrap___aeabi_uidiv>
20003a48:	1e07      	subs	r7, r0, #0
20003a4a:	d02b      	beq.n	20003aa4 <_vsnprintf+0x73c>
20003a4c:	002c      	movs	r4, r5
20003a4e:	2d20      	cmp	r5, #32
20003a50:	d028      	beq.n	20003aa4 <_vsnprintf+0x73c>
20003a52:	0031      	movs	r1, r6
20003a54:	0038      	movs	r0, r7
20003a56:	f7fd feed 	bl	20001834 <__wrap___aeabi_uidiv>
20003a5a:	1c65      	adds	r5, r4, #1
20003a5c:	b2cb      	uxtb	r3, r1
20003a5e:	2909      	cmp	r1, #9
20003a60:	d9ea      	bls.n	20003a38 <_vsnprintf+0x6d0>
20003a62:	9a0f      	ldr	r2, [sp, #60]	; 0x3c
20003a64:	4694      	mov	ip, r2
20003a66:	4463      	add	r3, ip
20003a68:	b2db      	uxtb	r3, r3
20003a6a:	e7e7      	b.n	20003a3c <_vsnprintf+0x6d4>
20003a6c:	2320      	movs	r3, #32
20003a6e:	431f      	orrs	r7, r3
20003a70:	e647      	b.n	20003702 <_vsnprintf+0x39a>
20003a72:	465b      	mov	r3, fp
20003a74:	930c      	str	r3, [sp, #48]	; 0x30
20003a76:	2302      	movs	r3, #2
20003a78:	403b      	ands	r3, r7
20003a7a:	930f      	str	r3, [sp, #60]	; 0x3c
20003a7c:	d000      	beq.n	20003a80 <_vsnprintf+0x718>
20003a7e:	e551      	b.n	20003524 <_vsnprintf+0x1bc>
20003a80:	e704      	b.n	2000388c <_vsnprintf+0x524>
20003a82:	2302      	movs	r3, #2
20003a84:	930e      	str	r3, [sp, #56]	; 0x38
20003a86:	e794      	b.n	200039b2 <_vsnprintf+0x64a>
20003a88:	230c      	movs	r3, #12
20003a8a:	003a      	movs	r2, r7
20003a8c:	439a      	bics	r2, r3
20003a8e:	3314      	adds	r3, #20
20003a90:	431a      	orrs	r2, r3
20003a92:	2310      	movs	r3, #16
20003a94:	920c      	str	r2, [sp, #48]	; 0x30
20003a96:	930e      	str	r3, [sp, #56]	; 0x38
20003a98:	057b      	lsls	r3, r7, #21
20003a9a:	d490      	bmi.n	200039be <_vsnprintf+0x656>
20003a9c:	e798      	b.n	200039d0 <_vsnprintf+0x668>
20003a9e:	4b37      	ldr	r3, [pc, #220]	; (20003b7c <_vsnprintf+0x814>)
20003aa0:	930a      	str	r3, [sp, #40]	; 0x28
20003aa2:	e474      	b.n	2000338e <_vsnprintf+0x26>
20003aa4:	464e      	mov	r6, r9
20003aa6:	002a      	movs	r2, r5
20003aa8:	9c15      	ldr	r4, [sp, #84]	; 0x54
20003aaa:	9d14      	ldr	r5, [sp, #80]	; 0x50
20003aac:	9b0c      	ldr	r3, [sp, #48]	; 0x30
20003aae:	9306      	str	r3, [sp, #24]
20003ab0:	4643      	mov	r3, r8
20003ab2:	9305      	str	r3, [sp, #20]
20003ab4:	465b      	mov	r3, fp
20003ab6:	9304      	str	r3, [sp, #16]
20003ab8:	9b0e      	ldr	r3, [sp, #56]	; 0x38
20003aba:	9303      	str	r3, [sp, #12]
20003abc:	2300      	movs	r3, #0
20003abe:	9302      	str	r3, [sp, #8]
20003ac0:	9201      	str	r2, [sp, #4]
20003ac2:	002a      	movs	r2, r5
20003ac4:	9600      	str	r6, [sp, #0]
20003ac6:	9b09      	ldr	r3, [sp, #36]	; 0x24
20003ac8:	9908      	ldr	r1, [sp, #32]
20003aca:	980a      	ldr	r0, [sp, #40]	; 0x28
20003acc:	f7fe fdf0 	bl	200026b0 <_ntoa_format>
20003ad0:	3401      	adds	r4, #1
20003ad2:	0005      	movs	r5, r0
20003ad4:	e461      	b.n	2000339a <_vsnprintf+0x32>
20003ad6:	464e      	mov	r6, r9
20003ad8:	002a      	movs	r2, r5
20003ada:	9c16      	ldr	r4, [sp, #88]	; 0x58
20003adc:	9d15      	ldr	r5, [sp, #84]	; 0x54
20003ade:	9b0c      	ldr	r3, [sp, #48]	; 0x30
20003ae0:	9306      	str	r3, [sp, #24]
20003ae2:	4643      	mov	r3, r8
20003ae4:	9305      	str	r3, [sp, #20]
20003ae6:	465b      	mov	r3, fp
20003ae8:	9304      	str	r3, [sp, #16]
20003aea:	9b0e      	ldr	r3, [sp, #56]	; 0x38
20003aec:	9303      	str	r3, [sp, #12]
20003aee:	9b14      	ldr	r3, [sp, #80]	; 0x50
20003af0:	e7e5      	b.n	20003abe <_vsnprintf+0x756>
20003af2:	2102      	movs	r1, #2
20003af4:	430f      	orrs	r7, r1
20003af6:	4641      	mov	r1, r8
20003af8:	4249      	negs	r1, r1
20003afa:	4688      	mov	r8, r1
20003afc:	e748      	b.n	20003990 <_vsnprintf+0x628>
20003afe:	9a0b      	ldr	r2, [sp, #44]	; 0x2c
20003b00:	78a6      	ldrb	r6, [r4, #2]
20003b02:	6813      	ldr	r3, [r2, #0]
20003b04:	3402      	adds	r4, #2
20003b06:	469b      	mov	fp, r3
20003b08:	43db      	mvns	r3, r3
20003b0a:	4659      	mov	r1, fp
20003b0c:	17db      	asrs	r3, r3, #31
20003b0e:	4019      	ands	r1, r3
20003b10:	0013      	movs	r3, r2
20003b12:	3304      	adds	r3, #4
20003b14:	468b      	mov	fp, r1
20003b16:	930b      	str	r3, [sp, #44]	; 0x2c
20003b18:	e490      	b.n	2000343c <_vsnprintf+0xd4>
20003b1a:	2207      	movs	r2, #7
20003b1c:	9b0b      	ldr	r3, [sp, #44]	; 0x2c
20003b1e:	3307      	adds	r3, #7
20003b20:	4393      	bics	r3, r2
20003b22:	3201      	adds	r2, #1
20003b24:	4694      	mov	ip, r2
20003b26:	449c      	add	ip, r3
20003b28:	4662      	mov	r2, ip
20003b2a:	920b      	str	r2, [sp, #44]	; 0x2c
20003b2c:	681a      	ldr	r2, [r3, #0]
20003b2e:	685f      	ldr	r7, [r3, #4]
20003b30:	0013      	movs	r3, r2
20003b32:	4691      	mov	r9, r2
20003b34:	433b      	orrs	r3, r7
20003b36:	d108      	bne.n	20003b4a <_vsnprintf+0x7e2>
20003b38:	990c      	ldr	r1, [sp, #48]	; 0x30
20003b3a:	3310      	adds	r3, #16
20003b3c:	000a      	movs	r2, r1
20003b3e:	439a      	bics	r2, r3
20003b40:	0013      	movs	r3, r2
20003b42:	000a      	movs	r2, r1
20003b44:	930c      	str	r3, [sp, #48]	; 0x30
20003b46:	0552      	lsls	r2, r2, #21
20003b48:	d43c      	bmi.n	20003bc4 <_vsnprintf+0x85c>
20003b4a:	9a0c      	ldr	r2, [sp, #48]	; 0x30
20003b4c:	2361      	movs	r3, #97	; 0x61
20003b4e:	0692      	lsls	r2, r2, #26
20003b50:	d500      	bpl.n	20003b54 <_vsnprintf+0x7ec>
20003b52:	e177      	b.n	20003e44 <_vsnprintf+0xadc>
20003b54:	b2db      	uxtb	r3, r3
20003b56:	3b0a      	subs	r3, #10
20003b58:	930f      	str	r3, [sp, #60]	; 0x3c
20003b5a:	4643      	mov	r3, r8
20003b5c:	2200      	movs	r2, #0
20003b5e:	9316      	str	r3, [sp, #88]	; 0x58
20003b60:	9b0e      	ldr	r3, [sp, #56]	; 0x38
20003b62:	ae18      	add	r6, sp, #96	; 0x60
20003b64:	9514      	str	r5, [sp, #80]	; 0x50
20003b66:	9415      	str	r4, [sp, #84]	; 0x54
20003b68:	0015      	movs	r5, r2
20003b6a:	464c      	mov	r4, r9
20003b6c:	4698      	mov	r8, r3
20003b6e:	46b1      	mov	r9, r6
20003b70:	e019      	b.n	20003ba6 <_vsnprintf+0x83e>
20003b72:	46c0      	nop			; (mov r8, r8)
20003b74:	7fefffff 	.word	0x7fefffff
20003b78:	ffefffff 	.word	0xffefffff
20003b7c:	20002661 	.word	0x20002661
20003b80:	3230      	adds	r2, #48	; 0x30
20003b82:	b2d2      	uxtb	r2, r2
20003b84:	464b      	mov	r3, r9
20003b86:	0020      	movs	r0, r4
20003b88:	555a      	strb	r2, [r3, r5]
20003b8a:	0039      	movs	r1, r7
20003b8c:	4642      	mov	r2, r8
20003b8e:	2300      	movs	r3, #0
20003b90:	f7fd fe92 	bl	200018b8 <__wrap___aeabi_uldivmod>
20003b94:	000f      	movs	r7, r1
20003b96:	0004      	movs	r4, r0
20003b98:	4301      	orrs	r1, r0
20003b9a:	d100      	bne.n	20003b9e <_vsnprintf+0x836>
20003b9c:	e08f      	b.n	20003cbe <_vsnprintf+0x956>
20003b9e:	0035      	movs	r5, r6
20003ba0:	2e20      	cmp	r6, #32
20003ba2:	d100      	bne.n	20003ba6 <_vsnprintf+0x83e>
20003ba4:	e08b      	b.n	20003cbe <_vsnprintf+0x956>
20003ba6:	4642      	mov	r2, r8
20003ba8:	2300      	movs	r3, #0
20003baa:	0020      	movs	r0, r4
20003bac:	0039      	movs	r1, r7
20003bae:	f7fd fe83 	bl	200018b8 <__wrap___aeabi_uldivmod>
20003bb2:	b2d2      	uxtb	r2, r2
20003bb4:	1c6e      	adds	r6, r5, #1
20003bb6:	2a09      	cmp	r2, #9
20003bb8:	d9e2      	bls.n	20003b80 <_vsnprintf+0x818>
20003bba:	9b0f      	ldr	r3, [sp, #60]	; 0x3c
20003bbc:	469c      	mov	ip, r3
20003bbe:	4462      	add	r2, ip
20003bc0:	b2d2      	uxtb	r2, r2
20003bc2:	e7df      	b.n	20003b84 <_vsnprintf+0x81c>
20003bc4:	2300      	movs	r3, #0
20003bc6:	ae18      	add	r6, sp, #96	; 0x60
20003bc8:	001a      	movs	r2, r3
20003bca:	e76f      	b.n	20003aac <_vsnprintf+0x744>
20003bcc:	2207      	movs	r2, #7
20003bce:	9b0b      	ldr	r3, [sp, #44]	; 0x2c
20003bd0:	3307      	adds	r3, #7
20003bd2:	4393      	bics	r3, r2
20003bd4:	3201      	adds	r2, #1
20003bd6:	4694      	mov	ip, r2
20003bd8:	449c      	add	ip, r3
20003bda:	4662      	mov	r2, ip
20003bdc:	920b      	str	r2, [sp, #44]	; 0x2c
20003bde:	681a      	ldr	r2, [r3, #0]
20003be0:	685b      	ldr	r3, [r3, #4]
20003be2:	17d9      	asrs	r1, r3, #31
20003be4:	9112      	str	r1, [sp, #72]	; 0x48
20003be6:	9113      	str	r1, [sp, #76]	; 0x4c
20003be8:	9812      	ldr	r0, [sp, #72]	; 0x48
20003bea:	9913      	ldr	r1, [sp, #76]	; 0x4c
20003bec:	0006      	movs	r6, r0
20003bee:	4056      	eors	r6, r2
20003bf0:	9610      	str	r6, [sp, #64]	; 0x40
20003bf2:	000e      	movs	r6, r1
20003bf4:	405e      	eors	r6, r3
20003bf6:	9611      	str	r6, [sp, #68]	; 0x44
20003bf8:	9e10      	ldr	r6, [sp, #64]	; 0x40
20003bfa:	9f11      	ldr	r7, [sp, #68]	; 0x44
20003bfc:	1a36      	subs	r6, r6, r0
20003bfe:	418f      	sbcs	r7, r1
20003c00:	0fd9      	lsrs	r1, r3, #31
20003c02:	9610      	str	r6, [sp, #64]	; 0x40
20003c04:	9711      	str	r7, [sp, #68]	; 0x44
20003c06:	9117      	str	r1, [sp, #92]	; 0x5c
20003c08:	431a      	orrs	r2, r3
20003c0a:	d10b      	bne.n	20003c24 <_vsnprintf+0x8bc>
20003c0c:	990c      	ldr	r1, [sp, #48]	; 0x30
20003c0e:	2310      	movs	r3, #16
20003c10:	000a      	movs	r2, r1
20003c12:	439a      	bics	r2, r3
20003c14:	0013      	movs	r3, r2
20003c16:	000a      	movs	r2, r1
20003c18:	930c      	str	r3, [sp, #48]	; 0x30
20003c1a:	0552      	lsls	r2, r2, #21
20003c1c:	d502      	bpl.n	20003c24 <_vsnprintf+0x8bc>
20003c1e:	2700      	movs	r7, #0
20003c20:	ae18      	add	r6, sp, #96	; 0x60
20003c22:	e041      	b.n	20003ca8 <_vsnprintf+0x940>
20003c24:	9a0c      	ldr	r2, [sp, #48]	; 0x30
20003c26:	2361      	movs	r3, #97	; 0x61
20003c28:	0692      	lsls	r2, r2, #26
20003c2a:	d500      	bpl.n	20003c2e <_vsnprintf+0x8c6>
20003c2c:	e10c      	b.n	20003e48 <_vsnprintf+0xae0>
20003c2e:	b2db      	uxtb	r3, r3
20003c30:	3b0a      	subs	r3, #10
20003c32:	930f      	str	r3, [sp, #60]	; 0x3c
20003c34:	4643      	mov	r3, r8
20003c36:	9316      	str	r3, [sp, #88]	; 0x58
20003c38:	9b0e      	ldr	r3, [sp, #56]	; 0x38
20003c3a:	ae18      	add	r6, sp, #96	; 0x60
20003c3c:	2200      	movs	r2, #0
20003c3e:	4698      	mov	r8, r3
20003c40:	0033      	movs	r3, r6
20003c42:	9514      	str	r5, [sp, #80]	; 0x50
20003c44:	9415      	str	r4, [sp, #84]	; 0x54
20003c46:	0016      	movs	r6, r2
20003c48:	9c10      	ldr	r4, [sp, #64]	; 0x40
20003c4a:	9d11      	ldr	r5, [sp, #68]	; 0x44
20003c4c:	4699      	mov	r9, r3
20003c4e:	e011      	b.n	20003c74 <_vsnprintf+0x90c>
20003c50:	3230      	adds	r2, #48	; 0x30
20003c52:	b2d2      	uxtb	r2, r2
20003c54:	464b      	mov	r3, r9
20003c56:	0020      	movs	r0, r4
20003c58:	559a      	strb	r2, [r3, r6]
20003c5a:	0029      	movs	r1, r5
20003c5c:	2300      	movs	r3, #0
20003c5e:	4642      	mov	r2, r8
20003c60:	f7fd fe2a 	bl	200018b8 <__wrap___aeabi_uldivmod>
20003c64:	0003      	movs	r3, r0
20003c66:	0004      	movs	r4, r0
20003c68:	000d      	movs	r5, r1
20003c6a:	430b      	orrs	r3, r1
20003c6c:	d014      	beq.n	20003c98 <_vsnprintf+0x930>
20003c6e:	003e      	movs	r6, r7
20003c70:	2f20      	cmp	r7, #32
20003c72:	d011      	beq.n	20003c98 <_vsnprintf+0x930>
20003c74:	4642      	mov	r2, r8
20003c76:	2300      	movs	r3, #0
20003c78:	0020      	movs	r0, r4
20003c7a:	0029      	movs	r1, r5
20003c7c:	f7fd fe1c 	bl	200018b8 <__wrap___aeabi_uldivmod>
20003c80:	b2d2      	uxtb	r2, r2
20003c82:	1c77      	adds	r7, r6, #1
20003c84:	2a09      	cmp	r2, #9
20003c86:	d9e3      	bls.n	20003c50 <_vsnprintf+0x8e8>
20003c88:	9b0f      	ldr	r3, [sp, #60]	; 0x3c
20003c8a:	469c      	mov	ip, r3
20003c8c:	4462      	add	r2, ip
20003c8e:	b2d2      	uxtb	r2, r2
20003c90:	e7e0      	b.n	20003c54 <_vsnprintf+0x8ec>
20003c92:	2308      	movs	r3, #8
20003c94:	930e      	str	r3, [sp, #56]	; 0x38
20003c96:	e68c      	b.n	200039b2 <_vsnprintf+0x64a>
20003c98:	464e      	mov	r6, r9
20003c9a:	9b16      	ldr	r3, [sp, #88]	; 0x58
20003c9c:	9410      	str	r4, [sp, #64]	; 0x40
20003c9e:	9511      	str	r5, [sp, #68]	; 0x44
20003ca0:	4698      	mov	r8, r3
20003ca2:	9c15      	ldr	r4, [sp, #84]	; 0x54
20003ca4:	9d14      	ldr	r5, [sp, #80]	; 0x50
20003ca6:	9b0c      	ldr	r3, [sp, #48]	; 0x30
20003ca8:	9306      	str	r3, [sp, #24]
20003caa:	4643      	mov	r3, r8
20003cac:	9305      	str	r3, [sp, #20]
20003cae:	465b      	mov	r3, fp
20003cb0:	9304      	str	r3, [sp, #16]
20003cb2:	9b0e      	ldr	r3, [sp, #56]	; 0x38
20003cb4:	9701      	str	r7, [sp, #4]
20003cb6:	9303      	str	r3, [sp, #12]
20003cb8:	9b17      	ldr	r3, [sp, #92]	; 0x5c
20003cba:	9302      	str	r3, [sp, #8]
20003cbc:	e701      	b.n	20003ac2 <_vsnprintf+0x75a>
20003cbe:	9b16      	ldr	r3, [sp, #88]	; 0x58
20003cc0:	0032      	movs	r2, r6
20003cc2:	9d14      	ldr	r5, [sp, #80]	; 0x50
20003cc4:	9c15      	ldr	r4, [sp, #84]	; 0x54
20003cc6:	4698      	mov	r8, r3
20003cc8:	464e      	mov	r6, r9
20003cca:	e6ef      	b.n	20003aac <_vsnprintf+0x744>
20003ccc:	9b0b      	ldr	r3, [sp, #44]	; 0x2c
20003cce:	1d1a      	adds	r2, r3, #4
20003cd0:	681b      	ldr	r3, [r3, #0]
20003cd2:	9215      	str	r2, [sp, #84]	; 0x54
20003cd4:	4699      	mov	r9, r3
20003cd6:	2b00      	cmp	r3, #0
20003cd8:	d10c      	bne.n	20003cf4 <_vsnprintf+0x98c>
20003cda:	990c      	ldr	r1, [sp, #48]	; 0x30
20003cdc:	3310      	adds	r3, #16
20003cde:	000a      	movs	r2, r1
20003ce0:	439a      	bics	r2, r3
20003ce2:	0013      	movs	r3, r2
20003ce4:	000a      	movs	r2, r1
20003ce6:	930c      	str	r3, [sp, #48]	; 0x30
20003ce8:	0552      	lsls	r2, r2, #21
20003cea:	d503      	bpl.n	20003cf4 <_vsnprintf+0x98c>
20003cec:	2300      	movs	r3, #0
20003cee:	ae18      	add	r6, sp, #96	; 0x60
20003cf0:	001a      	movs	r2, r3
20003cf2:	e06d      	b.n	20003dd0 <_vsnprintf+0xa68>
20003cf4:	9a0c      	ldr	r2, [sp, #48]	; 0x30
20003cf6:	2361      	movs	r3, #97	; 0x61
20003cf8:	0692      	lsls	r2, r2, #26
20003cfa:	d500      	bpl.n	20003cfe <_vsnprintf+0x996>
20003cfc:	e0a6      	b.n	20003e4c <_vsnprintf+0xae4>
20003cfe:	b2db      	uxtb	r3, r3
20003d00:	ae18      	add	r6, sp, #96	; 0x60
20003d02:	3b0a      	subs	r3, #10
20003d04:	9414      	str	r4, [sp, #80]	; 0x50
20003d06:	930b      	str	r3, [sp, #44]	; 0x2c
20003d08:	464c      	mov	r4, r9
20003d0a:	950f      	str	r5, [sp, #60]	; 0x3c
20003d0c:	46b1      	mov	r9, r6
20003d0e:	9e0e      	ldr	r6, [sp, #56]	; 0x38
20003d10:	e00c      	b.n	20003d2c <_vsnprintf+0x9c4>
20003d12:	3330      	adds	r3, #48	; 0x30
20003d14:	b2db      	uxtb	r3, r3
20003d16:	464a      	mov	r2, r9
20003d18:	0020      	movs	r0, r4
20003d1a:	55d3      	strb	r3, [r2, r7]
20003d1c:	0031      	movs	r1, r6
20003d1e:	f7fd fd89 	bl	20001834 <__wrap___aeabi_uidiv>
20003d22:	1e04      	subs	r4, r0, #0
20003d24:	d050      	beq.n	20003dc8 <_vsnprintf+0xa60>
20003d26:	002f      	movs	r7, r5
20003d28:	2d20      	cmp	r5, #32
20003d2a:	d04d      	beq.n	20003dc8 <_vsnprintf+0xa60>
20003d2c:	0031      	movs	r1, r6
20003d2e:	0020      	movs	r0, r4
20003d30:	f7fd fd80 	bl	20001834 <__wrap___aeabi_uidiv>
20003d34:	1c7d      	adds	r5, r7, #1
20003d36:	b2cb      	uxtb	r3, r1
20003d38:	2909      	cmp	r1, #9
20003d3a:	d9ea      	bls.n	20003d12 <_vsnprintf+0x9aa>
20003d3c:	9a0b      	ldr	r2, [sp, #44]	; 0x2c
20003d3e:	4694      	mov	ip, r2
20003d40:	4463      	add	r3, ip
20003d42:	b2db      	uxtb	r3, r3
20003d44:	e7e7      	b.n	20003d16 <_vsnprintf+0x9ae>
20003d46:	9b0b      	ldr	r3, [sp, #44]	; 0x2c
20003d48:	1d1a      	adds	r2, r3, #4
20003d4a:	681b      	ldr	r3, [r3, #0]
20003d4c:	9215      	str	r2, [sp, #84]	; 0x54
20003d4e:	17d9      	asrs	r1, r3, #31
20003d50:	185a      	adds	r2, r3, r1
20003d52:	404a      	eors	r2, r1
20003d54:	4691      	mov	r9, r2
20003d56:	0fda      	lsrs	r2, r3, #31
20003d58:	9216      	str	r2, [sp, #88]	; 0x58
20003d5a:	2b00      	cmp	r3, #0
20003d5c:	d10c      	bne.n	20003d78 <_vsnprintf+0xa10>
20003d5e:	990c      	ldr	r1, [sp, #48]	; 0x30
20003d60:	3310      	adds	r3, #16
20003d62:	000a      	movs	r2, r1
20003d64:	439a      	bics	r2, r3
20003d66:	0013      	movs	r3, r2
20003d68:	000a      	movs	r2, r1
20003d6a:	930c      	str	r3, [sp, #48]	; 0x30
20003d6c:	0552      	lsls	r2, r2, #21
20003d6e:	d503      	bpl.n	20003d78 <_vsnprintf+0xa10>
20003d70:	2300      	movs	r3, #0
20003d72:	ae18      	add	r6, sp, #96	; 0x60
20003d74:	001a      	movs	r2, r3
20003d76:	e052      	b.n	20003e1e <_vsnprintf+0xab6>
20003d78:	9a0c      	ldr	r2, [sp, #48]	; 0x30
20003d7a:	2361      	movs	r3, #97	; 0x61
20003d7c:	0692      	lsls	r2, r2, #26
20003d7e:	d467      	bmi.n	20003e50 <_vsnprintf+0xae8>
20003d80:	b2db      	uxtb	r3, r3
20003d82:	ae18      	add	r6, sp, #96	; 0x60
20003d84:	3b0a      	subs	r3, #10
20003d86:	9414      	str	r4, [sp, #80]	; 0x50
20003d88:	930b      	str	r3, [sp, #44]	; 0x2c
20003d8a:	464c      	mov	r4, r9
20003d8c:	950f      	str	r5, [sp, #60]	; 0x3c
20003d8e:	46b1      	mov	r9, r6
20003d90:	9e0e      	ldr	r6, [sp, #56]	; 0x38
20003d92:	e00c      	b.n	20003dae <_vsnprintf+0xa46>
20003d94:	3330      	adds	r3, #48	; 0x30
20003d96:	b2db      	uxtb	r3, r3
20003d98:	464a      	mov	r2, r9
20003d9a:	0020      	movs	r0, r4
20003d9c:	55d3      	strb	r3, [r2, r7]
20003d9e:	0031      	movs	r1, r6
20003da0:	f7fd fd48 	bl	20001834 <__wrap___aeabi_uidiv>
20003da4:	1e04      	subs	r4, r0, #0
20003da6:	d036      	beq.n	20003e16 <_vsnprintf+0xaae>
20003da8:	002f      	movs	r7, r5
20003daa:	2d20      	cmp	r5, #32
20003dac:	d033      	beq.n	20003e16 <_vsnprintf+0xaae>
20003dae:	0031      	movs	r1, r6
20003db0:	0020      	movs	r0, r4
20003db2:	f7fd fd3f 	bl	20001834 <__wrap___aeabi_uidiv>
20003db6:	1c7d      	adds	r5, r7, #1
20003db8:	b2cb      	uxtb	r3, r1
20003dba:	2909      	cmp	r1, #9
20003dbc:	d9ea      	bls.n	20003d94 <_vsnprintf+0xa2c>
20003dbe:	9a0b      	ldr	r2, [sp, #44]	; 0x2c
20003dc0:	4694      	mov	ip, r2
20003dc2:	4463      	add	r3, ip
20003dc4:	b2db      	uxtb	r3, r3
20003dc6:	e7e7      	b.n	20003d98 <_vsnprintf+0xa30>
20003dc8:	464e      	mov	r6, r9
20003dca:	002a      	movs	r2, r5
20003dcc:	9c14      	ldr	r4, [sp, #80]	; 0x50
20003dce:	9d0f      	ldr	r5, [sp, #60]	; 0x3c
20003dd0:	9b0c      	ldr	r3, [sp, #48]	; 0x30
20003dd2:	9306      	str	r3, [sp, #24]
20003dd4:	4643      	mov	r3, r8
20003dd6:	9305      	str	r3, [sp, #20]
20003dd8:	465b      	mov	r3, fp
20003dda:	9304      	str	r3, [sp, #16]
20003ddc:	9b0e      	ldr	r3, [sp, #56]	; 0x38
20003dde:	9303      	str	r3, [sp, #12]
20003de0:	2300      	movs	r3, #0
20003de2:	9302      	str	r3, [sp, #8]
20003de4:	9201      	str	r2, [sp, #4]
20003de6:	9b09      	ldr	r3, [sp, #36]	; 0x24
20003de8:	002a      	movs	r2, r5
20003dea:	9600      	str	r6, [sp, #0]
20003dec:	9908      	ldr	r1, [sp, #32]
20003dee:	980a      	ldr	r0, [sp, #40]	; 0x28
20003df0:	f7fe fc5e 	bl	200026b0 <_ntoa_format>
20003df4:	9b15      	ldr	r3, [sp, #84]	; 0x54
20003df6:	0005      	movs	r5, r0
20003df8:	930b      	str	r3, [sp, #44]	; 0x2c
20003dfa:	3401      	adds	r4, #1
20003dfc:	f7ff facd 	bl	2000339a <_vsnprintf+0x32>
20003e00:	6813      	ldr	r3, [r2, #0]
20003e02:	3204      	adds	r2, #4
20003e04:	0fd9      	lsrs	r1, r3, #31
20003e06:	9114      	str	r1, [sp, #80]	; 0x50
20003e08:	920b      	str	r2, [sp, #44]	; 0x2c
20003e0a:	e43d      	b.n	20003688 <_vsnprintf+0x320>
20003e0c:	9b0b      	ldr	r3, [sp, #44]	; 0x2c
20003e0e:	681f      	ldr	r7, [r3, #0]
20003e10:	3304      	adds	r3, #4
20003e12:	930b      	str	r3, [sp, #44]	; 0x2c
20003e14:	e5f5      	b.n	20003a02 <_vsnprintf+0x69a>
20003e16:	464e      	mov	r6, r9
20003e18:	002a      	movs	r2, r5
20003e1a:	9c14      	ldr	r4, [sp, #80]	; 0x50
20003e1c:	9d0f      	ldr	r5, [sp, #60]	; 0x3c
20003e1e:	9b0c      	ldr	r3, [sp, #48]	; 0x30
20003e20:	9306      	str	r3, [sp, #24]
20003e22:	4643      	mov	r3, r8
20003e24:	9305      	str	r3, [sp, #20]
20003e26:	465b      	mov	r3, fp
20003e28:	9304      	str	r3, [sp, #16]
20003e2a:	9b0e      	ldr	r3, [sp, #56]	; 0x38
20003e2c:	9303      	str	r3, [sp, #12]
20003e2e:	9b16      	ldr	r3, [sp, #88]	; 0x58
20003e30:	e7d7      	b.n	20003de2 <_vsnprintf+0xa7a>
20003e32:	9b0b      	ldr	r3, [sp, #44]	; 0x2c
20003e34:	781f      	ldrb	r7, [r3, #0]
20003e36:	3304      	adds	r3, #4
20003e38:	930b      	str	r3, [sp, #44]	; 0x2c
20003e3a:	e5e2      	b.n	20003a02 <_vsnprintf+0x69a>
20003e3c:	2300      	movs	r3, #0
20003e3e:	930c      	str	r3, [sp, #48]	; 0x30
20003e40:	f7ff fb62 	bl	20003508 <_vsnprintf+0x1a0>
20003e44:	2341      	movs	r3, #65	; 0x41
20003e46:	e685      	b.n	20003b54 <_vsnprintf+0x7ec>
20003e48:	2341      	movs	r3, #65	; 0x41
20003e4a:	e6f0      	b.n	20003c2e <_vsnprintf+0x8c6>
20003e4c:	2341      	movs	r3, #65	; 0x41
20003e4e:	e756      	b.n	20003cfe <_vsnprintf+0x996>
20003e50:	2341      	movs	r3, #65	; 0x41
20003e52:	e795      	b.n	20003d80 <_vsnprintf+0xa18>
20003e54:	9a0b      	ldr	r2, [sp, #44]	; 0x2c
20003e56:	7813      	ldrb	r3, [r2, #0]
20003e58:	3204      	adds	r2, #4
20003e5a:	920b      	str	r2, [sp, #44]	; 0x2c
20003e5c:	2200      	movs	r2, #0
20003e5e:	9214      	str	r2, [sp, #80]	; 0x50
20003e60:	f7ff fc12 	bl	20003688 <_vsnprintf+0x320>
20003e64:	2300      	movs	r3, #0
20003e66:	ae18      	add	r6, sp, #96	; 0x60
20003e68:	001a      	movs	r2, r3
20003e6a:	e638      	b.n	20003ade <_vsnprintf+0x776>
20003e6c:	002e      	movs	r6, r5
20003e6e:	e485      	b.n	2000377c <_vsnprintf+0x414>
20003e70:	930c      	str	r3, [sp, #48]	; 0x30
20003e72:	e527      	b.n	200038c4 <_vsnprintf+0x55c>
20003e74:	464b      	mov	r3, r9
20003e76:	0035      	movs	r5, r6
20003e78:	930b      	str	r3, [sp, #44]	; 0x2c
20003e7a:	3401      	adds	r4, #1
20003e7c:	f7ff fa8d 	bl	2000339a <_vsnprintf+0x32>
20003e80:	3b06      	subs	r3, #6
20003e82:	0017      	movs	r7, r2
20003e84:	930e      	str	r3, [sp, #56]	; 0x38
20003e86:	2e64      	cmp	r6, #100	; 0x64
20003e88:	d000      	beq.n	20003e8c <_vsnprintf+0xb24>
20003e8a:	e592      	b.n	200039b2 <_vsnprintf+0x64a>
20003e8c:	0553      	lsls	r3, r2, #21
20003e8e:	d500      	bpl.n	20003e92 <_vsnprintf+0xb2a>
20003e90:	e595      	b.n	200039be <_vsnprintf+0x656>
20003e92:	f7ff fbdc 	bl	2000364e <_vsnprintf+0x2e6>
20003e96:	46c0      	nop			; (mov r8, r8)

20003e98 <vfctprintf>:
20003e98:	b500      	push	{lr}
20003e9a:	b085      	sub	sp, #20
20003e9c:	9300      	str	r3, [sp, #0]
20003e9e:	0013      	movs	r3, r2
20003ea0:	2201      	movs	r2, #1
20003ea2:	9002      	str	r0, [sp, #8]
20003ea4:	9103      	str	r1, [sp, #12]
20003ea6:	4252      	negs	r2, r2
20003ea8:	a902      	add	r1, sp, #8
20003eaa:	4802      	ldr	r0, [pc, #8]	; (20003eb4 <vfctprintf+0x1c>)
20003eac:	f7ff fa5c 	bl	20003368 <_vsnprintf>
20003eb0:	b005      	add	sp, #20
20003eb2:	bd00      	pop	{pc}
20003eb4:	20002665 	.word	0x20002665

20003eb8 <weak_raw_vprintf>:
20003eb8:	b510      	push	{r4, lr}
20003eba:	4a09      	ldr	r2, [pc, #36]	; (20003ee0 <weak_raw_vprintf+0x28>)
20003ebc:	b084      	sub	sp, #16
20003ebe:	6814      	ldr	r4, [r2, #0]
20003ec0:	2c00      	cmp	r4, #0
20003ec2:	d009      	beq.n	20003ed8 <weak_raw_vprintf+0x20>
20003ec4:	2201      	movs	r2, #1
20003ec6:	9100      	str	r1, [sp, #0]
20003ec8:	0003      	movs	r3, r0
20003eca:	4252      	negs	r2, r2
20003ecc:	a903      	add	r1, sp, #12
20003ece:	4805      	ldr	r0, [pc, #20]	; (20003ee4 <weak_raw_vprintf+0x2c>)
20003ed0:	47a0      	blx	r4
20003ed2:	2001      	movs	r0, #1
20003ed4:	b004      	add	sp, #16
20003ed6:	bd10      	pop	{r4, pc}
20003ed8:	f000 f896 	bl	20004008 <__wrap_puts>
20003edc:	2000      	movs	r0, #0
20003ede:	e7f9      	b.n	20003ed4 <weak_raw_vprintf+0x1c>
20003ee0:	200067e4 	.word	0x200067e4
20003ee4:	20002675 	.word	0x20002675

20003ee8 <stdio_out_chars_crlf>:
20003ee8:	b5f8      	push	{r3, r4, r5, r6, r7, lr}
20003eea:	4647      	mov	r7, r8
20003eec:	46ce      	mov	lr, r9
20003eee:	b580      	push	{r7, lr}
20003ef0:	7c43      	ldrb	r3, [r0, #17]
20003ef2:	4680      	mov	r8, r0
20003ef4:	000e      	movs	r6, r1
20003ef6:	0017      	movs	r7, r2
20003ef8:	2b00      	cmp	r3, #0
20003efa:	d048      	beq.n	20003f8e <stdio_out_chars_crlf+0xa6>
20003efc:	2a00      	cmp	r2, #0
20003efe:	dd2e      	ble.n	20003f5e <stdio_out_chars_crlf+0x76>
20003f00:	4b27      	ldr	r3, [pc, #156]	; (20003fa0 <stdio_out_chars_crlf+0xb8>)
20003f02:	2501      	movs	r5, #1
20003f04:	2400      	movs	r4, #0
20003f06:	2000      	movs	r0, #0
20003f08:	4699      	mov	r9, r3
20003f0a:	e004      	b.n	20003f16 <stdio_out_chars_crlf+0x2e>
20003f0c:	002b      	movs	r3, r5
20003f0e:	3401      	adds	r4, #1
20003f10:	3501      	adds	r5, #1
20003f12:	429f      	cmp	r7, r3
20003f14:	dd19      	ble.n	20003f4a <stdio_out_chars_crlf+0x62>
20003f16:	2c00      	cmp	r4, #0
20003f18:	d03e      	beq.n	20003f98 <stdio_out_chars_crlf+0xb0>
20003f1a:	1e63      	subs	r3, r4, #1
20003f1c:	5cf3      	ldrb	r3, [r6, r3]
20003f1e:	3b0d      	subs	r3, #13
20003f20:	4259      	negs	r1, r3
20003f22:	4159      	adcs	r1, r3
20003f24:	b2cb      	uxtb	r3, r1
20003f26:	5d32      	ldrb	r2, [r6, r4]
20003f28:	2a0a      	cmp	r2, #10
20003f2a:	d1ef      	bne.n	20003f0c <stdio_out_chars_crlf+0x24>
20003f2c:	2b00      	cmp	r3, #0
20003f2e:	d1ed      	bne.n	20003f0c <stdio_out_chars_crlf+0x24>
20003f30:	4284      	cmp	r4, r0
20003f32:	dc26      	bgt.n	20003f82 <stdio_out_chars_crlf+0x9a>
20003f34:	4643      	mov	r3, r8
20003f36:	4648      	mov	r0, r9
20003f38:	681b      	ldr	r3, [r3, #0]
20003f3a:	2102      	movs	r1, #2
20003f3c:	4798      	blx	r3
20003f3e:	3401      	adds	r4, #1
20003f40:	0028      	movs	r0, r5
20003f42:	002b      	movs	r3, r5
20003f44:	3501      	adds	r5, #1
20003f46:	429f      	cmp	r7, r3
20003f48:	dce5      	bgt.n	20003f16 <stdio_out_chars_crlf+0x2e>
20003f4a:	42b8      	cmp	r0, r7
20003f4c:	db0b      	blt.n	20003f66 <stdio_out_chars_crlf+0x7e>
20003f4e:	19f6      	adds	r6, r6, r7
20003f50:	3e01      	subs	r6, #1
20003f52:	7833      	ldrb	r3, [r6, #0]
20003f54:	3b0d      	subs	r3, #13
20003f56:	4259      	negs	r1, r3
20003f58:	4159      	adcs	r1, r3
20003f5a:	4643      	mov	r3, r8
20003f5c:	7419      	strb	r1, [r3, #16]
20003f5e:	bc0c      	pop	{r2, r3}
20003f60:	4690      	mov	r8, r2
20003f62:	4699      	mov	r9, r3
20003f64:	bdf8      	pop	{r3, r4, r5, r6, r7, pc}
20003f66:	4643      	mov	r3, r8
20003f68:	1a39      	subs	r1, r7, r0
20003f6a:	1830      	adds	r0, r6, r0
20003f6c:	19f6      	adds	r6, r6, r7
20003f6e:	681b      	ldr	r3, [r3, #0]
20003f70:	3e01      	subs	r6, #1
20003f72:	4798      	blx	r3
20003f74:	7833      	ldrb	r3, [r6, #0]
20003f76:	3b0d      	subs	r3, #13
20003f78:	4259      	negs	r1, r3
20003f7a:	4159      	adcs	r1, r3
20003f7c:	4643      	mov	r3, r8
20003f7e:	7419      	strb	r1, [r3, #16]
20003f80:	e7ed      	b.n	20003f5e <stdio_out_chars_crlf+0x76>
20003f82:	4643      	mov	r3, r8
20003f84:	1a21      	subs	r1, r4, r0
20003f86:	681b      	ldr	r3, [r3, #0]
20003f88:	1830      	adds	r0, r6, r0
20003f8a:	4798      	blx	r3
20003f8c:	e7d2      	b.n	20003f34 <stdio_out_chars_crlf+0x4c>
20003f8e:	6803      	ldr	r3, [r0, #0]
20003f90:	0011      	movs	r1, r2
20003f92:	0030      	movs	r0, r6
20003f94:	4798      	blx	r3
20003f96:	e7e2      	b.n	20003f5e <stdio_out_chars_crlf+0x76>
20003f98:	4643      	mov	r3, r8
20003f9a:	7c1b      	ldrb	r3, [r3, #16]
20003f9c:	e7c3      	b.n	20003f26 <stdio_out_chars_crlf+0x3e>
20003f9e:	46c0      	nop			; (mov r8, r8)
20003fa0:	20005b8c 	.word	0x20005b8c

20003fa4 <stdio_buffered_printer>:
20003fa4:	b5f0      	push	{r4, r5, r6, r7, lr}
20003fa6:	46c6      	mov	lr, r8
20003fa8:	680b      	ldr	r3, [r1, #0]
20003faa:	b500      	push	{lr}
20003fac:	0006      	movs	r6, r0
20003fae:	000d      	movs	r5, r1
20003fb0:	1c5a      	adds	r2, r3, #1
20003fb2:	2b80      	cmp	r3, #128	; 0x80
20003fb4:	d005      	beq.n	20003fc2 <stdio_buffered_printer+0x1e>
20003fb6:	602a      	str	r2, [r5, #0]
20003fb8:	18ed      	adds	r5, r5, r3
20003fba:	712e      	strb	r6, [r5, #4]
20003fbc:	bc04      	pop	{r2}
20003fbe:	4690      	mov	r8, r2
20003fc0:	bdf0      	pop	{r4, r5, r6, r7, pc}
20003fc2:	4b0f      	ldr	r3, [pc, #60]	; (20004000 <stdio_buffered_printer+0x5c>)
20003fc4:	681c      	ldr	r4, [r3, #0]
20003fc6:	2c00      	cmp	r4, #0
20003fc8:	d016      	beq.n	20003ff8 <stdio_buffered_printer+0x54>
20003fca:	1d0b      	adds	r3, r1, #4
20003fcc:	4f0d      	ldr	r7, [pc, #52]	; (20004004 <stdio_buffered_printer+0x60>)
20003fce:	4698      	mov	r8, r3
20003fd0:	e002      	b.n	20003fd8 <stdio_buffered_printer+0x34>
20003fd2:	68e4      	ldr	r4, [r4, #12]
20003fd4:	2c00      	cmp	r4, #0
20003fd6:	d00f      	beq.n	20003ff8 <stdio_buffered_printer+0x54>
20003fd8:	6823      	ldr	r3, [r4, #0]
20003fda:	2b00      	cmp	r3, #0
20003fdc:	d0f9      	beq.n	20003fd2 <stdio_buffered_printer+0x2e>
20003fde:	683b      	ldr	r3, [r7, #0]
20003fe0:	2b00      	cmp	r3, #0
20003fe2:	d001      	beq.n	20003fe8 <stdio_buffered_printer+0x44>
20003fe4:	42a3      	cmp	r3, r4
20003fe6:	d1f4      	bne.n	20003fd2 <stdio_buffered_printer+0x2e>
20003fe8:	0020      	movs	r0, r4
20003fea:	682a      	ldr	r2, [r5, #0]
20003fec:	4641      	mov	r1, r8
20003fee:	f7ff ff7b 	bl	20003ee8 <stdio_out_chars_crlf>
20003ff2:	68e4      	ldr	r4, [r4, #12]
20003ff4:	2c00      	cmp	r4, #0
20003ff6:	d1ef      	bne.n	20003fd8 <stdio_buffered_printer+0x34>
20003ff8:	2201      	movs	r2, #1
20003ffa:	2300      	movs	r3, #0
20003ffc:	e7db      	b.n	20003fb6 <stdio_buffered_printer+0x12>
20003ffe:	46c0      	nop			; (mov r8, r8)
20004000:	200067d8 	.word	0x200067d8
20004004:	200067dc 	.word	0x200067dc

20004008 <__wrap_puts>:
20004008:	b5f0      	push	{r4, r5, r6, r7, lr}
2000400a:	46de      	mov	lr, fp
2000400c:	4657      	mov	r7, sl
2000400e:	464e      	mov	r6, r9
20004010:	4645      	mov	r5, r8
20004012:	b5e0      	push	{r5, r6, r7, lr}
20004014:	b083      	sub	sp, #12
20004016:	0006      	movs	r6, r0
20004018:	f000 fcc6 	bl	200049a8 <strlen>
2000401c:	23d0      	movs	r3, #208	; 0xd0
2000401e:	061b      	lsls	r3, r3, #24
20004020:	681c      	ldr	r4, [r3, #0]
20004022:	4b2d      	ldr	r3, [pc, #180]	; (200040d8 <__wrap_puts+0xd0>)
20004024:	0007      	movs	r7, r0
20004026:	a901      	add	r1, sp, #4
20004028:	0018      	movs	r0, r3
2000402a:	469b      	mov	fp, r3
2000402c:	f001 fafc 	bl	20005628 <mutex_try_enter>
20004030:	4680      	mov	r8, r0
20004032:	2800      	cmp	r0, #0
20004034:	d108      	bne.n	20004048 <__wrap_puts+0x40>
20004036:	9b01      	ldr	r3, [sp, #4]
20004038:	b264      	sxtb	r4, r4
2000403a:	429c      	cmp	r4, r3
2000403c:	d004      	beq.n	20004048 <__wrap_puts+0x40>
2000403e:	4658      	mov	r0, fp
20004040:	f001 face 	bl	200055e0 <mutex_enter_blocking>
20004044:	2301      	movs	r3, #1
20004046:	4698      	mov	r8, r3
20004048:	46b9      	mov	r9, r7
2000404a:	1c7b      	adds	r3, r7, #1
2000404c:	d03e      	beq.n	200040cc <__wrap_puts+0xc4>
2000404e:	4b23      	ldr	r3, [pc, #140]	; (200040dc <__wrap_puts+0xd4>)
20004050:	681c      	ldr	r4, [r3, #0]
20004052:	469a      	mov	sl, r3
20004054:	2c00      	cmp	r4, #0
20004056:	d032      	beq.n	200040be <__wrap_puts+0xb6>
20004058:	4d21      	ldr	r5, [pc, #132]	; (200040e0 <__wrap_puts+0xd8>)
2000405a:	e002      	b.n	20004062 <__wrap_puts+0x5a>
2000405c:	68e4      	ldr	r4, [r4, #12]
2000405e:	2c00      	cmp	r4, #0
20004060:	d017      	beq.n	20004092 <__wrap_puts+0x8a>
20004062:	6823      	ldr	r3, [r4, #0]
20004064:	2b00      	cmp	r3, #0
20004066:	d0f9      	beq.n	2000405c <__wrap_puts+0x54>
20004068:	682b      	ldr	r3, [r5, #0]
2000406a:	2b00      	cmp	r3, #0
2000406c:	d001      	beq.n	20004072 <__wrap_puts+0x6a>
2000406e:	429c      	cmp	r4, r3
20004070:	d1f4      	bne.n	2000405c <__wrap_puts+0x54>
20004072:	0020      	movs	r0, r4
20004074:	464a      	mov	r2, r9
20004076:	0031      	movs	r1, r6
20004078:	f7ff ff36 	bl	20003ee8 <stdio_out_chars_crlf>
2000407c:	466b      	mov	r3, sp
2000407e:	220a      	movs	r2, #10
20004080:	0020      	movs	r0, r4
20004082:	711a      	strb	r2, [r3, #4]
20004084:	a901      	add	r1, sp, #4
20004086:	2201      	movs	r2, #1
20004088:	f7ff ff2e 	bl	20003ee8 <stdio_out_chars_crlf>
2000408c:	68e4      	ldr	r4, [r4, #12]
2000408e:	2c00      	cmp	r4, #0
20004090:	d1e7      	bne.n	20004062 <__wrap_puts+0x5a>
20004092:	4643      	mov	r3, r8
20004094:	2b00      	cmp	r3, #0
20004096:	d115      	bne.n	200040c4 <__wrap_puts+0xbc>
20004098:	4653      	mov	r3, sl
2000409a:	681c      	ldr	r4, [r3, #0]
2000409c:	2c00      	cmp	r4, #0
2000409e:	d006      	beq.n	200040ae <__wrap_puts+0xa6>
200040a0:	6863      	ldr	r3, [r4, #4]
200040a2:	2b00      	cmp	r3, #0
200040a4:	d000      	beq.n	200040a8 <__wrap_puts+0xa0>
200040a6:	4798      	blx	r3
200040a8:	68e4      	ldr	r4, [r4, #12]
200040aa:	2c00      	cmp	r4, #0
200040ac:	d1f8      	bne.n	200040a0 <__wrap_puts+0x98>
200040ae:	0038      	movs	r0, r7
200040b0:	b003      	add	sp, #12
200040b2:	bc3c      	pop	{r2, r3, r4, r5}
200040b4:	4690      	mov	r8, r2
200040b6:	4699      	mov	r9, r3
200040b8:	46a2      	mov	sl, r4
200040ba:	46ab      	mov	fp, r5
200040bc:	bdf0      	pop	{r4, r5, r6, r7, pc}
200040be:	4643      	mov	r3, r8
200040c0:	2b00      	cmp	r3, #0
200040c2:	d0f4      	beq.n	200040ae <__wrap_puts+0xa6>
200040c4:	4658      	mov	r0, fp
200040c6:	f001 fafd 	bl	200056c4 <mutex_exit>
200040ca:	e7e5      	b.n	20004098 <__wrap_puts+0x90>
200040cc:	0030      	movs	r0, r6
200040ce:	f000 fc6b 	bl	200049a8 <strlen>
200040d2:	4681      	mov	r9, r0
200040d4:	e7bb      	b.n	2000404e <__wrap_puts+0x46>
200040d6:	46c0      	nop			; (mov r8, r8)
200040d8:	200064e0 	.word	0x200064e0
200040dc:	200067d8 	.word	0x200067d8
200040e0:	200067dc 	.word	0x200067dc

200040e4 <_read>:
200040e4:	b5f0      	push	{r4, r5, r6, r7, lr}
200040e6:	4646      	mov	r6, r8
200040e8:	46de      	mov	lr, fp
200040ea:	4657      	mov	r7, sl
200040ec:	b5c0      	push	{r6, r7, lr}
200040ee:	4690      	mov	r8, r2
200040f0:	b082      	sub	sp, #8
200040f2:	000e      	movs	r6, r1
200040f4:	2800      	cmp	r0, #0
200040f6:	d12c      	bne.n	20004152 <_read+0x6e>
200040f8:	4b1a      	ldr	r3, [pc, #104]	; (20004164 <_read+0x80>)
200040fa:	4d1b      	ldr	r5, [pc, #108]	; (20004168 <_read+0x84>)
200040fc:	681a      	ldr	r2, [r3, #0]
200040fe:	685b      	ldr	r3, [r3, #4]
20004100:	4f1a      	ldr	r7, [pc, #104]	; (2000416c <_read+0x88>)
20004102:	469a      	mov	sl, r3
20004104:	4b1a      	ldr	r3, [pc, #104]	; (20004170 <_read+0x8c>)
20004106:	9201      	str	r2, [sp, #4]
20004108:	469b      	mov	fp, r3
2000410a:	465b      	mov	r3, fp
2000410c:	681c      	ldr	r4, [r3, #0]
2000410e:	2c00      	cmp	r4, #0
20004110:	d105      	bne.n	2000411e <_read+0x3a>
20004112:	e015      	b.n	20004140 <_read+0x5c>
20004114:	42a3      	cmp	r3, r4
20004116:	d005      	beq.n	20004124 <_read+0x40>
20004118:	68e4      	ldr	r4, [r4, #12]
2000411a:	2c00      	cmp	r4, #0
2000411c:	d010      	beq.n	20004140 <_read+0x5c>
2000411e:	682b      	ldr	r3, [r5, #0]
20004120:	2b00      	cmp	r3, #0
20004122:	d1f7      	bne.n	20004114 <_read+0x30>
20004124:	68a3      	ldr	r3, [r4, #8]
20004126:	2b00      	cmp	r3, #0
20004128:	d0f6      	beq.n	20004118 <_read+0x34>
2000412a:	4641      	mov	r1, r8
2000412c:	0030      	movs	r0, r6
2000412e:	4798      	blx	r3
20004130:	2800      	cmp	r0, #0
20004132:	ddf1      	ble.n	20004118 <_read+0x34>
20004134:	b002      	add	sp, #8
20004136:	bc1c      	pop	{r2, r3, r4}
20004138:	4690      	mov	r8, r2
2000413a:	469a      	mov	sl, r3
2000413c:	46a3      	mov	fp, r4
2000413e:	bdf0      	pop	{r4, r5, r6, r7, pc}
20004140:	6a7b      	ldr	r3, [r7, #36]	; 0x24
20004142:	459a      	cmp	sl, r3
20004144:	d808      	bhi.n	20004158 <_read+0x74>
20004146:	6aba      	ldr	r2, [r7, #40]	; 0x28
20004148:	9901      	ldr	r1, [sp, #4]
2000414a:	428a      	cmp	r2, r1
2000414c:	d201      	bcs.n	20004152 <_read+0x6e>
2000414e:	459a      	cmp	sl, r3
20004150:	d002      	beq.n	20004158 <_read+0x74>
20004152:	2001      	movs	r0, #1
20004154:	4240      	negs	r0, r0
20004156:	e7ed      	b.n	20004134 <_read+0x50>
20004158:	2001      	movs	r0, #1
2000415a:	2100      	movs	r1, #0
2000415c:	f7fc fe06 	bl	20000d6c <busy_wait_us>
20004160:	e7d3      	b.n	2000410a <_read+0x26>
20004162:	46c0      	nop			; (mov r8, r8)
20004164:	20005860 	.word	0x20005860
20004168:	200067dc 	.word	0x200067dc
2000416c:	40054000 	.word	0x40054000
20004170:	200067d8 	.word	0x200067d8

20004174 <_write>:
20004174:	b5f0      	push	{r4, r5, r6, r7, lr}
20004176:	4646      	mov	r6, r8
20004178:	46d6      	mov	lr, sl
2000417a:	464f      	mov	r7, r9
2000417c:	b5c0      	push	{r6, r7, lr}
2000417e:	3801      	subs	r0, #1
20004180:	b082      	sub	sp, #8
20004182:	4688      	mov	r8, r1
20004184:	0016      	movs	r6, r2
20004186:	2801      	cmp	r0, #1
20004188:	d840      	bhi.n	2000420c <_write+0x98>
2000418a:	23d0      	movs	r3, #208	; 0xd0
2000418c:	061b      	lsls	r3, r3, #24
2000418e:	681c      	ldr	r4, [r3, #0]
20004190:	4b20      	ldr	r3, [pc, #128]	; (20004214 <_write+0xa0>)
20004192:	a901      	add	r1, sp, #4
20004194:	0018      	movs	r0, r3
20004196:	469a      	mov	sl, r3
20004198:	f001 fa46 	bl	20005628 <mutex_try_enter>
2000419c:	1e07      	subs	r7, r0, #0
2000419e:	d107      	bne.n	200041b0 <_write+0x3c>
200041a0:	9b01      	ldr	r3, [sp, #4]
200041a2:	b264      	sxtb	r4, r4
200041a4:	429c      	cmp	r4, r3
200041a6:	d003      	beq.n	200041b0 <_write+0x3c>
200041a8:	4650      	mov	r0, sl
200041aa:	f001 fa19 	bl	200055e0 <mutex_enter_blocking>
200041ae:	3701      	adds	r7, #1
200041b0:	46b1      	mov	r9, r6
200041b2:	1c73      	adds	r3, r6, #1
200041b4:	d025      	beq.n	20004202 <_write+0x8e>
200041b6:	4b18      	ldr	r3, [pc, #96]	; (20004218 <_write+0xa4>)
200041b8:	681c      	ldr	r4, [r3, #0]
200041ba:	2c00      	cmp	r4, #0
200041bc:	d014      	beq.n	200041e8 <_write+0x74>
200041be:	4d17      	ldr	r5, [pc, #92]	; (2000421c <_write+0xa8>)
200041c0:	e002      	b.n	200041c8 <_write+0x54>
200041c2:	68e4      	ldr	r4, [r4, #12]
200041c4:	2c00      	cmp	r4, #0
200041c6:	d00f      	beq.n	200041e8 <_write+0x74>
200041c8:	6823      	ldr	r3, [r4, #0]
200041ca:	2b00      	cmp	r3, #0
200041cc:	d0f9      	beq.n	200041c2 <_write+0x4e>
200041ce:	682b      	ldr	r3, [r5, #0]
200041d0:	2b00      	cmp	r3, #0
200041d2:	d001      	beq.n	200041d8 <_write+0x64>
200041d4:	429c      	cmp	r4, r3
200041d6:	d1f4      	bne.n	200041c2 <_write+0x4e>
200041d8:	0020      	movs	r0, r4
200041da:	464a      	mov	r2, r9
200041dc:	4641      	mov	r1, r8
200041de:	f7ff fe83 	bl	20003ee8 <stdio_out_chars_crlf>
200041e2:	68e4      	ldr	r4, [r4, #12]
200041e4:	2c00      	cmp	r4, #0
200041e6:	d1ef      	bne.n	200041c8 <_write+0x54>
200041e8:	2f00      	cmp	r7, #0
200041ea:	d106      	bne.n	200041fa <_write+0x86>
200041ec:	0030      	movs	r0, r6
200041ee:	b002      	add	sp, #8
200041f0:	bc1c      	pop	{r2, r3, r4}
200041f2:	4690      	mov	r8, r2
200041f4:	4699      	mov	r9, r3
200041f6:	46a2      	mov	sl, r4
200041f8:	bdf0      	pop	{r4, r5, r6, r7, pc}
200041fa:	4650      	mov	r0, sl
200041fc:	f001 fa62 	bl	200056c4 <mutex_exit>
20004200:	e7f4      	b.n	200041ec <_write+0x78>
20004202:	4640      	mov	r0, r8
20004204:	f000 fbd0 	bl	200049a8 <strlen>
20004208:	4681      	mov	r9, r0
2000420a:	e7d4      	b.n	200041b6 <_write+0x42>
2000420c:	2601      	movs	r6, #1
2000420e:	4276      	negs	r6, r6
20004210:	e7ec      	b.n	200041ec <_write+0x78>
20004212:	46c0      	nop			; (mov r8, r8)
20004214:	200064e0 	.word	0x200064e0
20004218:	200067d8 	.word	0x200067d8
2000421c:	200067dc 	.word	0x200067dc

20004220 <stdio_set_driver_enabled>:
20004220:	4a0a      	ldr	r2, [pc, #40]	; (2000424c <stdio_set_driver_enabled+0x2c>)
20004222:	6813      	ldr	r3, [r2, #0]
20004224:	2b00      	cmp	r3, #0
20004226:	d105      	bne.n	20004234 <stdio_set_driver_enabled+0x14>
20004228:	e00c      	b.n	20004244 <stdio_set_driver_enabled+0x24>
2000422a:	001a      	movs	r2, r3
2000422c:	68db      	ldr	r3, [r3, #12]
2000422e:	320c      	adds	r2, #12
20004230:	2b00      	cmp	r3, #0
20004232:	d007      	beq.n	20004244 <stdio_set_driver_enabled+0x24>
20004234:	4298      	cmp	r0, r3
20004236:	d1f8      	bne.n	2000422a <stdio_set_driver_enabled+0xa>
20004238:	2900      	cmp	r1, #0
2000423a:	d102      	bne.n	20004242 <stdio_set_driver_enabled+0x22>
2000423c:	68c3      	ldr	r3, [r0, #12]
2000423e:	6013      	str	r3, [r2, #0]
20004240:	60c1      	str	r1, [r0, #12]
20004242:	4770      	bx	lr
20004244:	2900      	cmp	r1, #0
20004246:	d0fc      	beq.n	20004242 <stdio_set_driver_enabled+0x22>
20004248:	6010      	str	r0, [r2, #0]
2000424a:	e7fa      	b.n	20004242 <stdio_set_driver_enabled+0x22>
2000424c:	200067d8 	.word	0x200067d8

20004250 <__wrap_vprintf>:
20004250:	b5f0      	push	{r4, r5, r6, r7, lr}
20004252:	4647      	mov	r7, r8
20004254:	46ce      	mov	lr, r9
20004256:	23d0      	movs	r3, #208	; 0xd0
20004258:	b580      	push	{r7, lr}
2000425a:	4e2d      	ldr	r6, [pc, #180]	; (20004310 <__wrap_vprintf+0xc0>)
2000425c:	b0a5      	sub	sp, #148	; 0x94
2000425e:	061b      	lsls	r3, r3, #24
20004260:	0007      	movs	r7, r0
20004262:	4688      	mov	r8, r1
20004264:	0030      	movs	r0, r6
20004266:	a903      	add	r1, sp, #12
20004268:	681c      	ldr	r4, [r3, #0]
2000426a:	f001 f9dd 	bl	20005628 <mutex_try_enter>
2000426e:	1e05      	subs	r5, r0, #0
20004270:	d107      	bne.n	20004282 <__wrap_vprintf+0x32>
20004272:	9b03      	ldr	r3, [sp, #12]
20004274:	b264      	sxtb	r4, r4
20004276:	429c      	cmp	r4, r3
20004278:	d003      	beq.n	20004282 <__wrap_vprintf+0x32>
2000427a:	0030      	movs	r0, r6
2000427c:	f001 f9b0 	bl	200055e0 <mutex_enter_blocking>
20004280:	3501      	adds	r5, #1
20004282:	2284      	movs	r2, #132	; 0x84
20004284:	2100      	movs	r1, #0
20004286:	a803      	add	r0, sp, #12
20004288:	f7fe f92a 	bl	200024e0 <__wrap_memset>
2000428c:	4643      	mov	r3, r8
2000428e:	003a      	movs	r2, r7
20004290:	a903      	add	r1, sp, #12
20004292:	4820      	ldr	r0, [pc, #128]	; (20004314 <__wrap_vprintf+0xc4>)
20004294:	f7ff fe00 	bl	20003e98 <vfctprintf>
20004298:	9b03      	ldr	r3, [sp, #12]
2000429a:	4680      	mov	r8, r0
2000429c:	2b00      	cmp	r3, #0
2000429e:	d115      	bne.n	200042cc <__wrap_vprintf+0x7c>
200042a0:	4b1d      	ldr	r3, [pc, #116]	; (20004318 <__wrap_vprintf+0xc8>)
200042a2:	681c      	ldr	r4, [r3, #0]
200042a4:	2c00      	cmp	r4, #0
200042a6:	d006      	beq.n	200042b6 <__wrap_vprintf+0x66>
200042a8:	6863      	ldr	r3, [r4, #4]
200042aa:	2b00      	cmp	r3, #0
200042ac:	d000      	beq.n	200042b0 <__wrap_vprintf+0x60>
200042ae:	4798      	blx	r3
200042b0:	68e4      	ldr	r4, [r4, #12]
200042b2:	2c00      	cmp	r4, #0
200042b4:	d1f8      	bne.n	200042a8 <__wrap_vprintf+0x58>
200042b6:	2d00      	cmp	r5, #0
200042b8:	d002      	beq.n	200042c0 <__wrap_vprintf+0x70>
200042ba:	0030      	movs	r0, r6
200042bc:	f001 fa02 	bl	200056c4 <mutex_exit>
200042c0:	4640      	mov	r0, r8
200042c2:	b025      	add	sp, #148	; 0x94
200042c4:	bc0c      	pop	{r2, r3}
200042c6:	4690      	mov	r8, r2
200042c8:	4699      	mov	r9, r3
200042ca:	bdf0      	pop	{r4, r5, r6, r7, pc}
200042cc:	4b12      	ldr	r3, [pc, #72]	; (20004318 <__wrap_vprintf+0xc8>)
200042ce:	681c      	ldr	r4, [r3, #0]
200042d0:	4699      	mov	r9, r3
200042d2:	2c00      	cmp	r4, #0
200042d4:	d018      	beq.n	20004308 <__wrap_vprintf+0xb8>
200042d6:	4f11      	ldr	r7, [pc, #68]	; (2000431c <__wrap_vprintf+0xcc>)
200042d8:	e002      	b.n	200042e0 <__wrap_vprintf+0x90>
200042da:	68e4      	ldr	r4, [r4, #12]
200042dc:	2c00      	cmp	r4, #0
200042de:	d011      	beq.n	20004304 <__wrap_vprintf+0xb4>
200042e0:	6823      	ldr	r3, [r4, #0]
200042e2:	2b00      	cmp	r3, #0
200042e4:	d0f9      	beq.n	200042da <__wrap_vprintf+0x8a>
200042e6:	683b      	ldr	r3, [r7, #0]
200042e8:	2b00      	cmp	r3, #0
200042ea:	d001      	beq.n	200042f0 <__wrap_vprintf+0xa0>
200042ec:	42a3      	cmp	r3, r4
200042ee:	d1f4      	bne.n	200042da <__wrap_vprintf+0x8a>
200042f0:	9b03      	ldr	r3, [sp, #12]
200042f2:	0020      	movs	r0, r4
200042f4:	001a      	movs	r2, r3
200042f6:	a904      	add	r1, sp, #16
200042f8:	9301      	str	r3, [sp, #4]
200042fa:	f7ff fdf5 	bl	20003ee8 <stdio_out_chars_crlf>
200042fe:	68e4      	ldr	r4, [r4, #12]
20004300:	2c00      	cmp	r4, #0
20004302:	d1ed      	bne.n	200042e0 <__wrap_vprintf+0x90>
20004304:	464b      	mov	r3, r9
20004306:	681c      	ldr	r4, [r3, #0]
20004308:	2300      	movs	r3, #0
2000430a:	9303      	str	r3, [sp, #12]
2000430c:	e7ca      	b.n	200042a4 <__wrap_vprintf+0x54>
2000430e:	46c0      	nop			; (mov r8, r8)
20004310:	200064e0 	.word	0x200064e0
20004314:	20003fa5 	.word	0x20003fa5
20004318:	200067d8 	.word	0x200067d8
2000431c:	200067dc 	.word	0x200067dc

20004320 <__wrap_printf>:
20004320:	b40f      	push	{r0, r1, r2, r3}
20004322:	b500      	push	{lr}
20004324:	b083      	sub	sp, #12
20004326:	a904      	add	r1, sp, #16
20004328:	c901      	ldmia	r1!, {r0}
2000432a:	9101      	str	r1, [sp, #4]
2000432c:	f7ff ff90 	bl	20004250 <__wrap_vprintf>
20004330:	b003      	add	sp, #12
20004332:	bc08      	pop	{r3}
20004334:	b004      	add	sp, #16
20004336:	4718      	bx	r3

20004338 <stdio_init_all>:
20004338:	b510      	push	{r4, lr}
2000433a:	f000 f845 	bl	200043c8 <stdio_uart_init>
2000433e:	bd10      	pop	{r4, pc}

20004340 <stdio_uart_out_chars>:
20004340:	b5f0      	push	{r4, r5, r6, r7, lr}
20004342:	2900      	cmp	r1, #0
20004344:	dd15      	ble.n	20004372 <stdio_uart_out_chars+0x32>
20004346:	4b0e      	ldr	r3, [pc, #56]	; (20004380 <stdio_uart_out_chars+0x40>)
20004348:	270d      	movs	r7, #13
2000434a:	681a      	ldr	r2, [r3, #0]
2000434c:	4b0d      	ldr	r3, [pc, #52]	; (20004384 <stdio_uart_out_chars+0x44>)
2000434e:	1841      	adds	r1, r0, r1
20004350:	18d3      	adds	r3, r2, r3
20004352:	425c      	negs	r4, r3
20004354:	4163      	adcs	r3, r4
20004356:	4c0c      	ldr	r4, [pc, #48]	; (20004388 <stdio_uart_out_chars+0x48>)
20004358:	005b      	lsls	r3, r3, #1
2000435a:	5f1e      	ldrsh	r6, [r3, r4]
2000435c:	2420      	movs	r4, #32
2000435e:	7805      	ldrb	r5, [r0, #0]
20004360:	42b5      	cmp	r5, r6
20004362:	d007      	beq.n	20004374 <stdio_uart_out_chars+0x34>
20004364:	6993      	ldr	r3, [r2, #24]
20004366:	421c      	tst	r4, r3
20004368:	d1fc      	bne.n	20004364 <stdio_uart_out_chars+0x24>
2000436a:	3001      	adds	r0, #1
2000436c:	6015      	str	r5, [r2, #0]
2000436e:	4288      	cmp	r0, r1
20004370:	d1f5      	bne.n	2000435e <stdio_uart_out_chars+0x1e>
20004372:	bdf0      	pop	{r4, r5, r6, r7, pc}
20004374:	6993      	ldr	r3, [r2, #24]
20004376:	421c      	tst	r4, r3
20004378:	d1fc      	bne.n	20004374 <stdio_uart_out_chars+0x34>
2000437a:	6017      	str	r7, [r2, #0]
2000437c:	e7f2      	b.n	20004364 <stdio_uart_out_chars+0x24>
2000437e:	46c0      	nop			; (mov r8, r8)
20004380:	20006818 	.word	0x20006818
20004384:	bffc8000 	.word	0xbffc8000
20004388:	20006820 	.word	0x20006820

2000438c <stdio_uart_in_chars>:
2000438c:	b530      	push	{r4, r5, lr}
2000438e:	2900      	cmp	r1, #0
20004390:	dd14      	ble.n	200043bc <stdio_uart_in_chars+0x30>
20004392:	4b0c      	ldr	r3, [pc, #48]	; (200043c4 <stdio_uart_in_chars+0x38>)
20004394:	681a      	ldr	r2, [r3, #0]
20004396:	6993      	ldr	r3, [r2, #24]
20004398:	06db      	lsls	r3, r3, #27
2000439a:	d40f      	bmi.n	200043bc <stdio_uart_in_chars+0x30>
2000439c:	0005      	movs	r5, r0
2000439e:	2410      	movs	r4, #16
200043a0:	2000      	movs	r0, #0
200043a2:	3001      	adds	r0, #1
200043a4:	6993      	ldr	r3, [r2, #24]
200043a6:	421c      	tst	r4, r3
200043a8:	d1fc      	bne.n	200043a4 <stdio_uart_in_chars+0x18>
200043aa:	6813      	ldr	r3, [r2, #0]
200043ac:	702b      	strb	r3, [r5, #0]
200043ae:	4281      	cmp	r1, r0
200043b0:	d003      	beq.n	200043ba <stdio_uart_in_chars+0x2e>
200043b2:	6993      	ldr	r3, [r2, #24]
200043b4:	3501      	adds	r5, #1
200043b6:	421c      	tst	r4, r3
200043b8:	d0f3      	beq.n	200043a2 <stdio_uart_in_chars+0x16>
200043ba:	bd30      	pop	{r4, r5, pc}
200043bc:	2003      	movs	r0, #3
200043be:	4240      	negs	r0, r0
200043c0:	e7fb      	b.n	200043ba <stdio_uart_in_chars+0x2e>
200043c2:	46c0      	nop			; (mov r8, r8)
200043c4:	20006818 	.word	0x20006818

200043c8 <stdio_uart_init>:
200043c8:	21e1      	movs	r1, #225	; 0xe1
200043ca:	b510      	push	{r4, lr}
200043cc:	4b0b      	ldr	r3, [pc, #44]	; (200043fc <stdio_uart_init+0x34>)
200043ce:	480c      	ldr	r0, [pc, #48]	; (20004400 <stdio_uart_init+0x38>)
200043d0:	781b      	ldrb	r3, [r3, #0]
200043d2:	4b0c      	ldr	r3, [pc, #48]	; (20004404 <stdio_uart_init+0x3c>)
200043d4:	0249      	lsls	r1, r1, #9
200043d6:	781b      	ldrb	r3, [r3, #0]
200043d8:	4b0b      	ldr	r3, [pc, #44]	; (20004408 <stdio_uart_init+0x40>)
200043da:	6018      	str	r0, [r3, #0]
200043dc:	f7fd f958 	bl	20001690 <uart_init>
200043e0:	2102      	movs	r1, #2
200043e2:	2000      	movs	r0, #0
200043e4:	f7fc f8d0 	bl	20000588 <gpio_set_function>
200043e8:	2102      	movs	r1, #2
200043ea:	2001      	movs	r0, #1
200043ec:	f7fc f8cc 	bl	20000588 <gpio_set_function>
200043f0:	2101      	movs	r1, #1
200043f2:	4806      	ldr	r0, [pc, #24]	; (2000440c <stdio_uart_init+0x44>)
200043f4:	f7ff ff14 	bl	20004220 <stdio_set_driver_enabled>
200043f8:	bd10      	pop	{r4, pc}
200043fa:	46c0      	nop			; (mov r8, r8)
200043fc:	10000304 	.word	0x10000304
20004400:	40034000 	.word	0x40034000
20004404:	10000308 	.word	0x10000308
20004408:	20006818 	.word	0x20006818
2000440c:	20005c70 	.word	0x20005c70

20004410 <_retrieve_unique_id_on_boot>:
20004410:	b510      	push	{r4, lr}
20004412:	4802      	ldr	r0, [pc, #8]	; (2000441c <_retrieve_unique_id_on_boot+0xc>)
20004414:	f7fd f8ec 	bl	200015f0 <flash_get_unique_id>
20004418:	bd10      	pop	{r4, pc}
2000441a:	46c0      	nop			; (mov r8, r8)
2000441c:	200067f8 	.word	0x200067f8

20004420 <__aeabi_idiv0>:
20004420:	4770      	bx	lr
20004422:	46c0      	nop			; (mov r8, r8)

20004424 <_malloc_r>:
20004424:	b5f0      	push	{r4, r5, r6, r7, lr}
20004426:	4657      	mov	r7, sl
20004428:	4645      	mov	r5, r8
2000442a:	46de      	mov	lr, fp
2000442c:	464e      	mov	r6, r9
2000442e:	b5e0      	push	{r5, r6, r7, lr}
20004430:	000d      	movs	r5, r1
20004432:	350b      	adds	r5, #11
20004434:	b083      	sub	sp, #12
20004436:	0007      	movs	r7, r0
20004438:	2d16      	cmp	r5, #22
2000443a:	d800      	bhi.n	2000443e <_malloc_r+0x1a>
2000443c:	e09f      	b.n	2000457e <_malloc_r+0x15a>
2000443e:	2307      	movs	r3, #7
20004440:	439d      	bics	r5, r3
20004442:	d500      	bpl.n	20004446 <_malloc_r+0x22>
20004444:	e0c4      	b.n	200045d0 <_malloc_r+0x1ac>
20004446:	42a9      	cmp	r1, r5
20004448:	d900      	bls.n	2000444c <_malloc_r+0x28>
2000444a:	e0c1      	b.n	200045d0 <_malloc_r+0x1ac>
2000444c:	f000 fa96 	bl	2000497c <__malloc_lock>
20004450:	23f8      	movs	r3, #248	; 0xf8
20004452:	33ff      	adds	r3, #255	; 0xff
20004454:	429d      	cmp	r5, r3
20004456:	d800      	bhi.n	2000445a <_malloc_r+0x36>
20004458:	e289      	b.n	2000496e <_malloc_r+0x54a>
2000445a:	0a68      	lsrs	r0, r5, #9
2000445c:	d100      	bne.n	20004460 <_malloc_r+0x3c>
2000445e:	e0bb      	b.n	200045d8 <_malloc_r+0x1b4>
20004460:	2804      	cmp	r0, #4
20004462:	d900      	bls.n	20004466 <_malloc_r+0x42>
20004464:	e164      	b.n	20004730 <_malloc_r+0x30c>
20004466:	2338      	movs	r3, #56	; 0x38
20004468:	4698      	mov	r8, r3
2000446a:	09a8      	lsrs	r0, r5, #6
2000446c:	4480      	add	r8, r0
2000446e:	3039      	adds	r0, #57	; 0x39
20004470:	00c1      	lsls	r1, r0, #3
20004472:	4ec9      	ldr	r6, [pc, #804]	; (20004798 <_malloc_r+0x374>)
20004474:	1871      	adds	r1, r6, r1
20004476:	3908      	subs	r1, #8
20004478:	68cc      	ldr	r4, [r1, #12]
2000447a:	42a1      	cmp	r1, r4
2000447c:	d019      	beq.n	200044b2 <_malloc_r+0x8e>
2000447e:	2303      	movs	r3, #3
20004480:	6862      	ldr	r2, [r4, #4]
20004482:	439a      	bics	r2, r3
20004484:	0013      	movs	r3, r2
20004486:	1b52      	subs	r2, r2, r5
20004488:	2a0f      	cmp	r2, #15
2000448a:	dd00      	ble.n	2000448e <_malloc_r+0x6a>
2000448c:	e0aa      	b.n	200045e4 <_malloc_r+0x1c0>
2000448e:	2a00      	cmp	r2, #0
20004490:	db00      	blt.n	20004494 <_malloc_r+0x70>
20004492:	e088      	b.n	200045a6 <_malloc_r+0x182>
20004494:	2303      	movs	r3, #3
20004496:	469c      	mov	ip, r3
20004498:	e008      	b.n	200044ac <_malloc_r+0x88>
2000449a:	4662      	mov	r2, ip
2000449c:	6863      	ldr	r3, [r4, #4]
2000449e:	4393      	bics	r3, r2
200044a0:	1b5a      	subs	r2, r3, r5
200044a2:	2a0f      	cmp	r2, #15
200044a4:	dd00      	ble.n	200044a8 <_malloc_r+0x84>
200044a6:	e09d      	b.n	200045e4 <_malloc_r+0x1c0>
200044a8:	2a00      	cmp	r2, #0
200044aa:	da7c      	bge.n	200045a6 <_malloc_r+0x182>
200044ac:	68e4      	ldr	r4, [r4, #12]
200044ae:	42a1      	cmp	r1, r4
200044b0:	d1f3      	bne.n	2000449a <_malloc_r+0x76>
200044b2:	0032      	movs	r2, r6
200044b4:	6934      	ldr	r4, [r6, #16]
200044b6:	3208      	adds	r2, #8
200044b8:	4294      	cmp	r4, r2
200044ba:	d100      	bne.n	200044be <_malloc_r+0x9a>
200044bc:	e18b      	b.n	200047d6 <_malloc_r+0x3b2>
200044be:	2303      	movs	r3, #3
200044c0:	6861      	ldr	r1, [r4, #4]
200044c2:	4399      	bics	r1, r3
200044c4:	4689      	mov	r9, r1
200044c6:	1b49      	subs	r1, r1, r5
200044c8:	290f      	cmp	r1, #15
200044ca:	dd00      	ble.n	200044ce <_malloc_r+0xaa>
200044cc:	e170      	b.n	200047b0 <_malloc_r+0x38c>
200044ce:	6172      	str	r2, [r6, #20]
200044d0:	6132      	str	r2, [r6, #16]
200044d2:	2900      	cmp	r1, #0
200044d4:	db00      	blt.n	200044d8 <_malloc_r+0xb4>
200044d6:	e087      	b.n	200045e8 <_malloc_r+0x1c4>
200044d8:	4ab0      	ldr	r2, [pc, #704]	; (2000479c <_malloc_r+0x378>)
200044da:	464b      	mov	r3, r9
200044dc:	4591      	cmp	r9, r2
200044de:	d900      	bls.n	200044e2 <_malloc_r+0xbe>
200044e0:	e132      	b.n	20004748 <_malloc_r+0x324>
200044e2:	08db      	lsrs	r3, r3, #3
200044e4:	3aff      	subs	r2, #255	; 0xff
200044e6:	1099      	asrs	r1, r3, #2
200044e8:	3aff      	subs	r2, #255	; 0xff
200044ea:	408a      	lsls	r2, r1
200044ec:	00db      	lsls	r3, r3, #3
200044ee:	6871      	ldr	r1, [r6, #4]
200044f0:	199b      	adds	r3, r3, r6
200044f2:	430a      	orrs	r2, r1
200044f4:	6899      	ldr	r1, [r3, #8]
200044f6:	6072      	str	r2, [r6, #4]
200044f8:	60e3      	str	r3, [r4, #12]
200044fa:	60a1      	str	r1, [r4, #8]
200044fc:	609c      	str	r4, [r3, #8]
200044fe:	0013      	movs	r3, r2
20004500:	60cc      	str	r4, [r1, #12]
20004502:	2101      	movs	r1, #1
20004504:	1082      	asrs	r2, r0, #2
20004506:	4091      	lsls	r1, r2
20004508:	4299      	cmp	r1, r3
2000450a:	d86f      	bhi.n	200045ec <_malloc_r+0x1c8>
2000450c:	420b      	tst	r3, r1
2000450e:	d105      	bne.n	2000451c <_malloc_r+0xf8>
20004510:	2203      	movs	r2, #3
20004512:	4390      	bics	r0, r2
20004514:	0049      	lsls	r1, r1, #1
20004516:	3004      	adds	r0, #4
20004518:	420b      	tst	r3, r1
2000451a:	d0fb      	beq.n	20004514 <_malloc_r+0xf0>
2000451c:	2303      	movs	r3, #3
2000451e:	4698      	mov	r8, r3
20004520:	00c3      	lsls	r3, r0, #3
20004522:	4699      	mov	r9, r3
20004524:	44b1      	add	r9, r6
20004526:	46cc      	mov	ip, r9
20004528:	4682      	mov	sl, r0
2000452a:	4663      	mov	r3, ip
2000452c:	68dc      	ldr	r4, [r3, #12]
2000452e:	45a4      	cmp	ip, r4
20004530:	d107      	bne.n	20004542 <_malloc_r+0x11e>
20004532:	e152      	b.n	200047da <_malloc_r+0x3b6>
20004534:	2a00      	cmp	r2, #0
20004536:	db00      	blt.n	2000453a <_malloc_r+0x116>
20004538:	e161      	b.n	200047fe <_malloc_r+0x3da>
2000453a:	68e4      	ldr	r4, [r4, #12]
2000453c:	45a4      	cmp	ip, r4
2000453e:	d100      	bne.n	20004542 <_malloc_r+0x11e>
20004540:	e14b      	b.n	200047da <_malloc_r+0x3b6>
20004542:	4642      	mov	r2, r8
20004544:	6863      	ldr	r3, [r4, #4]
20004546:	4393      	bics	r3, r2
20004548:	1b5a      	subs	r2, r3, r5
2000454a:	2a0f      	cmp	r2, #15
2000454c:	ddf2      	ble.n	20004534 <_malloc_r+0x110>
2000454e:	2001      	movs	r0, #1
20004550:	4680      	mov	r8, r0
20004552:	1961      	adds	r1, r4, r5
20004554:	4305      	orrs	r5, r0
20004556:	6065      	str	r5, [r4, #4]
20004558:	68a0      	ldr	r0, [r4, #8]
2000455a:	68e5      	ldr	r5, [r4, #12]
2000455c:	3608      	adds	r6, #8
2000455e:	60c5      	str	r5, [r0, #12]
20004560:	60a8      	str	r0, [r5, #8]
20004562:	4640      	mov	r0, r8
20004564:	60f1      	str	r1, [r6, #12]
20004566:	60b1      	str	r1, [r6, #8]
20004568:	4310      	orrs	r0, r2
2000456a:	6048      	str	r0, [r1, #4]
2000456c:	60ce      	str	r6, [r1, #12]
2000456e:	608e      	str	r6, [r1, #8]
20004570:	0038      	movs	r0, r7
20004572:	50e2      	str	r2, [r4, r3]
20004574:	f000 fa04 	bl	20004980 <__malloc_unlock>
20004578:	0020      	movs	r0, r4
2000457a:	3008      	adds	r0, #8
2000457c:	e021      	b.n	200045c2 <_malloc_r+0x19e>
2000457e:	2910      	cmp	r1, #16
20004580:	d826      	bhi.n	200045d0 <_malloc_r+0x1ac>
20004582:	0038      	movs	r0, r7
20004584:	f000 f9fa 	bl	2000497c <__malloc_lock>
20004588:	2510      	movs	r5, #16
2000458a:	2318      	movs	r3, #24
2000458c:	2002      	movs	r0, #2
2000458e:	4e82      	ldr	r6, [pc, #520]	; (20004798 <_malloc_r+0x374>)
20004590:	18f3      	adds	r3, r6, r3
20004592:	001a      	movs	r2, r3
20004594:	685c      	ldr	r4, [r3, #4]
20004596:	3a08      	subs	r2, #8
20004598:	4294      	cmp	r4, r2
2000459a:	d100      	bne.n	2000459e <_malloc_r+0x17a>
2000459c:	e129      	b.n	200047f2 <_malloc_r+0x3ce>
2000459e:	2303      	movs	r3, #3
200045a0:	6862      	ldr	r2, [r4, #4]
200045a2:	439a      	bics	r2, r3
200045a4:	0013      	movs	r3, r2
200045a6:	68e2      	ldr	r2, [r4, #12]
200045a8:	68a1      	ldr	r1, [r4, #8]
200045aa:	60ca      	str	r2, [r1, #12]
200045ac:	6091      	str	r1, [r2, #8]
200045ae:	2201      	movs	r2, #1
200045b0:	18e3      	adds	r3, r4, r3
200045b2:	6859      	ldr	r1, [r3, #4]
200045b4:	0038      	movs	r0, r7
200045b6:	430a      	orrs	r2, r1
200045b8:	605a      	str	r2, [r3, #4]
200045ba:	f000 f9e1 	bl	20004980 <__malloc_unlock>
200045be:	0020      	movs	r0, r4
200045c0:	3008      	adds	r0, #8
200045c2:	b003      	add	sp, #12
200045c4:	bc3c      	pop	{r2, r3, r4, r5}
200045c6:	4690      	mov	r8, r2
200045c8:	4699      	mov	r9, r3
200045ca:	46a2      	mov	sl, r4
200045cc:	46ab      	mov	fp, r5
200045ce:	bdf0      	pop	{r4, r5, r6, r7, pc}
200045d0:	230c      	movs	r3, #12
200045d2:	2000      	movs	r0, #0
200045d4:	603b      	str	r3, [r7, #0]
200045d6:	e7f4      	b.n	200045c2 <_malloc_r+0x19e>
200045d8:	2180      	movs	r1, #128	; 0x80
200045da:	233f      	movs	r3, #63	; 0x3f
200045dc:	2040      	movs	r0, #64	; 0x40
200045de:	0089      	lsls	r1, r1, #2
200045e0:	4698      	mov	r8, r3
200045e2:	e746      	b.n	20004472 <_malloc_r+0x4e>
200045e4:	4640      	mov	r0, r8
200045e6:	e764      	b.n	200044b2 <_malloc_r+0x8e>
200045e8:	464b      	mov	r3, r9
200045ea:	e7e0      	b.n	200045ae <_malloc_r+0x18a>
200045ec:	2303      	movs	r3, #3
200045ee:	68b4      	ldr	r4, [r6, #8]
200045f0:	6862      	ldr	r2, [r4, #4]
200045f2:	439a      	bics	r2, r3
200045f4:	4690      	mov	r8, r2
200045f6:	42aa      	cmp	r2, r5
200045f8:	d303      	bcc.n	20004602 <_malloc_r+0x1de>
200045fa:	1b53      	subs	r3, r2, r5
200045fc:	2b0f      	cmp	r3, #15
200045fe:	dd00      	ble.n	20004602 <_malloc_r+0x1de>
20004600:	e088      	b.n	20004714 <_malloc_r+0x2f0>
20004602:	0023      	movs	r3, r4
20004604:	4443      	add	r3, r8
20004606:	4a66      	ldr	r2, [pc, #408]	; (200047a0 <_malloc_r+0x37c>)
20004608:	9301      	str	r3, [sp, #4]
2000460a:	4b66      	ldr	r3, [pc, #408]	; (200047a4 <_malloc_r+0x380>)
2000460c:	4693      	mov	fp, r2
2000460e:	469a      	mov	sl, r3
20004610:	6892      	ldr	r2, [r2, #8]
20004612:	681b      	ldr	r3, [r3, #0]
20004614:	18eb      	adds	r3, r5, r3
20004616:	3201      	adds	r2, #1
20004618:	d100      	bne.n	2000461c <_malloc_r+0x1f8>
2000461a:	e161      	b.n	200048e0 <_malloc_r+0x4bc>
2000461c:	4a62      	ldr	r2, [pc, #392]	; (200047a8 <_malloc_r+0x384>)
2000461e:	4694      	mov	ip, r2
20004620:	4463      	add	r3, ip
20004622:	0b1b      	lsrs	r3, r3, #12
20004624:	031b      	lsls	r3, r3, #12
20004626:	9300      	str	r3, [sp, #0]
20004628:	9900      	ldr	r1, [sp, #0]
2000462a:	0038      	movs	r0, r7
2000462c:	f000 f9aa 	bl	20004984 <_sbrk_r>
20004630:	0003      	movs	r3, r0
20004632:	4681      	mov	r9, r0
20004634:	3301      	adds	r3, #1
20004636:	d062      	beq.n	200046fe <_malloc_r+0x2da>
20004638:	9b01      	ldr	r3, [sp, #4]
2000463a:	4283      	cmp	r3, r0
2000463c:	d900      	bls.n	20004640 <_malloc_r+0x21c>
2000463e:	e0f9      	b.n	20004834 <_malloc_r+0x410>
20004640:	4653      	mov	r3, sl
20004642:	685b      	ldr	r3, [r3, #4]
20004644:	9a00      	ldr	r2, [sp, #0]
20004646:	469c      	mov	ip, r3
20004648:	4653      	mov	r3, sl
2000464a:	4462      	add	r2, ip
2000464c:	605a      	str	r2, [r3, #4]
2000464e:	9b01      	ldr	r3, [sp, #4]
20004650:	0011      	movs	r1, r2
20004652:	4283      	cmp	r3, r0
20004654:	d100      	bne.n	20004658 <_malloc_r+0x234>
20004656:	e14f      	b.n	200048f8 <_malloc_r+0x4d4>
20004658:	465b      	mov	r3, fp
2000465a:	689b      	ldr	r3, [r3, #8]
2000465c:	3301      	adds	r3, #1
2000465e:	d100      	bne.n	20004662 <_malloc_r+0x23e>
20004660:	e166      	b.n	20004930 <_malloc_r+0x50c>
20004662:	464b      	mov	r3, r9
20004664:	9a01      	ldr	r2, [sp, #4]
20004666:	1a9b      	subs	r3, r3, r2
20004668:	1859      	adds	r1, r3, r1
2000466a:	4653      	mov	r3, sl
2000466c:	6059      	str	r1, [r3, #4]
2000466e:	2307      	movs	r3, #7
20004670:	464a      	mov	r2, r9
20004672:	4013      	ands	r3, r2
20004674:	d100      	bne.n	20004678 <_malloc_r+0x254>
20004676:	e11e      	b.n	200048b6 <_malloc_r+0x492>
20004678:	2108      	movs	r1, #8
2000467a:	4689      	mov	r9, r1
2000467c:	494b      	ldr	r1, [pc, #300]	; (200047ac <_malloc_r+0x388>)
2000467e:	1ad2      	subs	r2, r2, r3
20004680:	4491      	add	r9, r2
20004682:	1acb      	subs	r3, r1, r3
20004684:	9a00      	ldr	r2, [sp, #0]
20004686:	0038      	movs	r0, r7
20004688:	444a      	add	r2, r9
2000468a:	0511      	lsls	r1, r2, #20
2000468c:	0d09      	lsrs	r1, r1, #20
2000468e:	1a5b      	subs	r3, r3, r1
20004690:	0019      	movs	r1, r3
20004692:	469b      	mov	fp, r3
20004694:	f000 f976 	bl	20004984 <_sbrk_r>
20004698:	1c43      	adds	r3, r0, #1
2000469a:	d100      	bne.n	2000469e <_malloc_r+0x27a>
2000469c:	e13c      	b.n	20004918 <_malloc_r+0x4f4>
2000469e:	464b      	mov	r3, r9
200046a0:	1ac0      	subs	r0, r0, r3
200046a2:	2301      	movs	r3, #1
200046a4:	4458      	add	r0, fp
200046a6:	4318      	orrs	r0, r3
200046a8:	4653      	mov	r3, sl
200046aa:	685b      	ldr	r3, [r3, #4]
200046ac:	445b      	add	r3, fp
200046ae:	0019      	movs	r1, r3
200046b0:	4653      	mov	r3, sl
200046b2:	6059      	str	r1, [r3, #4]
200046b4:	464b      	mov	r3, r9
200046b6:	60b3      	str	r3, [r6, #8]
200046b8:	6058      	str	r0, [r3, #4]
200046ba:	42b4      	cmp	r4, r6
200046bc:	d013      	beq.n	200046e6 <_malloc_r+0x2c2>
200046be:	4643      	mov	r3, r8
200046c0:	2b0f      	cmp	r3, #15
200046c2:	d800      	bhi.n	200046c6 <_malloc_r+0x2a2>
200046c4:	e0e2      	b.n	2000488c <_malloc_r+0x468>
200046c6:	4643      	mov	r3, r8
200046c8:	2207      	movs	r2, #7
200046ca:	6860      	ldr	r0, [r4, #4]
200046cc:	3b0c      	subs	r3, #12
200046ce:	4393      	bics	r3, r2
200046d0:	3a06      	subs	r2, #6
200046d2:	4002      	ands	r2, r0
200046d4:	2005      	movs	r0, #5
200046d6:	431a      	orrs	r2, r3
200046d8:	6062      	str	r2, [r4, #4]
200046da:	18e2      	adds	r2, r4, r3
200046dc:	6050      	str	r0, [r2, #4]
200046de:	6090      	str	r0, [r2, #8]
200046e0:	2b0f      	cmp	r3, #15
200046e2:	d900      	bls.n	200046e6 <_malloc_r+0x2c2>
200046e4:	e11c      	b.n	20004920 <_malloc_r+0x4fc>
200046e6:	4653      	mov	r3, sl
200046e8:	6adb      	ldr	r3, [r3, #44]	; 0x2c
200046ea:	4299      	cmp	r1, r3
200046ec:	d901      	bls.n	200046f2 <_malloc_r+0x2ce>
200046ee:	4653      	mov	r3, sl
200046f0:	62d9      	str	r1, [r3, #44]	; 0x2c
200046f2:	4653      	mov	r3, sl
200046f4:	6b1b      	ldr	r3, [r3, #48]	; 0x30
200046f6:	4299      	cmp	r1, r3
200046f8:	d901      	bls.n	200046fe <_malloc_r+0x2da>
200046fa:	4653      	mov	r3, sl
200046fc:	6319      	str	r1, [r3, #48]	; 0x30
200046fe:	2303      	movs	r3, #3
20004700:	68b4      	ldr	r4, [r6, #8]
20004702:	6862      	ldr	r2, [r4, #4]
20004704:	439a      	bics	r2, r3
20004706:	1b53      	subs	r3, r2, r5
20004708:	4295      	cmp	r5, r2
2000470a:	d900      	bls.n	2000470e <_malloc_r+0x2ea>
2000470c:	e0c1      	b.n	20004892 <_malloc_r+0x46e>
2000470e:	2b0f      	cmp	r3, #15
20004710:	dc00      	bgt.n	20004714 <_malloc_r+0x2f0>
20004712:	e0be      	b.n	20004892 <_malloc_r+0x46e>
20004714:	2201      	movs	r2, #1
20004716:	0029      	movs	r1, r5
20004718:	4313      	orrs	r3, r2
2000471a:	4311      	orrs	r1, r2
2000471c:	1965      	adds	r5, r4, r5
2000471e:	6061      	str	r1, [r4, #4]
20004720:	0038      	movs	r0, r7
20004722:	60b5      	str	r5, [r6, #8]
20004724:	606b      	str	r3, [r5, #4]
20004726:	f000 f92b 	bl	20004980 <__malloc_unlock>
2000472a:	0020      	movs	r0, r4
2000472c:	3008      	adds	r0, #8
2000472e:	e748      	b.n	200045c2 <_malloc_r+0x19e>
20004730:	2814      	cmp	r0, #20
20004732:	d973      	bls.n	2000481c <_malloc_r+0x3f8>
20004734:	2854      	cmp	r0, #84	; 0x54
20004736:	d900      	bls.n	2000473a <_malloc_r+0x316>
20004738:	e0b2      	b.n	200048a0 <_malloc_r+0x47c>
2000473a:	236e      	movs	r3, #110	; 0x6e
2000473c:	4698      	mov	r8, r3
2000473e:	0b28      	lsrs	r0, r5, #12
20004740:	4480      	add	r8, r0
20004742:	306f      	adds	r0, #111	; 0x6f
20004744:	00c1      	lsls	r1, r0, #3
20004746:	e694      	b.n	20004472 <_malloc_r+0x4e>
20004748:	0a5a      	lsrs	r2, r3, #9
2000474a:	2a04      	cmp	r2, #4
2000474c:	d96c      	bls.n	20004828 <_malloc_r+0x404>
2000474e:	2a14      	cmp	r2, #20
20004750:	d900      	bls.n	20004754 <_malloc_r+0x330>
20004752:	e0c8      	b.n	200048e6 <_malloc_r+0x4c2>
20004754:	0011      	movs	r1, r2
20004756:	325c      	adds	r2, #92	; 0x5c
20004758:	315b      	adds	r1, #91	; 0x5b
2000475a:	00d2      	lsls	r2, r2, #3
2000475c:	2308      	movs	r3, #8
2000475e:	425b      	negs	r3, r3
20004760:	469c      	mov	ip, r3
20004762:	18b2      	adds	r2, r6, r2
20004764:	4494      	add	ip, r2
20004766:	4663      	mov	r3, ip
20004768:	689a      	ldr	r2, [r3, #8]
2000476a:	2303      	movs	r3, #3
2000476c:	4698      	mov	r8, r3
2000476e:	4594      	cmp	ip, r2
20004770:	d100      	bne.n	20004774 <_malloc_r+0x350>
20004772:	e0a3      	b.n	200048bc <_malloc_r+0x498>
20004774:	4643      	mov	r3, r8
20004776:	6851      	ldr	r1, [r2, #4]
20004778:	4399      	bics	r1, r3
2000477a:	4589      	cmp	r9, r1
2000477c:	d300      	bcc.n	20004780 <_malloc_r+0x35c>
2000477e:	e08d      	b.n	2000489c <_malloc_r+0x478>
20004780:	6892      	ldr	r2, [r2, #8]
20004782:	4594      	cmp	ip, r2
20004784:	d1f6      	bne.n	20004774 <_malloc_r+0x350>
20004786:	4663      	mov	r3, ip
20004788:	68da      	ldr	r2, [r3, #12]
2000478a:	6873      	ldr	r3, [r6, #4]
2000478c:	4661      	mov	r1, ip
2000478e:	60e2      	str	r2, [r4, #12]
20004790:	60a1      	str	r1, [r4, #8]
20004792:	6094      	str	r4, [r2, #8]
20004794:	60cc      	str	r4, [r1, #12]
20004796:	e6b4      	b.n	20004502 <_malloc_r+0xde>
20004798:	200060b8 	.word	0x200060b8
2000479c:	000001ff 	.word	0x000001ff
200047a0:	200064b8 	.word	0x200064b8
200047a4:	2000662c 	.word	0x2000662c
200047a8:	0000100f 	.word	0x0000100f
200047ac:	00001008 	.word	0x00001008
200047b0:	2301      	movs	r3, #1
200047b2:	1960      	adds	r0, r4, r5
200047b4:	431d      	orrs	r5, r3
200047b6:	6065      	str	r5, [r4, #4]
200047b8:	6170      	str	r0, [r6, #20]
200047ba:	6130      	str	r0, [r6, #16]
200047bc:	60c2      	str	r2, [r0, #12]
200047be:	6082      	str	r2, [r0, #8]
200047c0:	001a      	movs	r2, r3
200047c2:	464b      	mov	r3, r9
200047c4:	430a      	orrs	r2, r1
200047c6:	6042      	str	r2, [r0, #4]
200047c8:	0038      	movs	r0, r7
200047ca:	50e1      	str	r1, [r4, r3]
200047cc:	f000 f8d8 	bl	20004980 <__malloc_unlock>
200047d0:	0020      	movs	r0, r4
200047d2:	3008      	adds	r0, #8
200047d4:	e6f5      	b.n	200045c2 <_malloc_r+0x19e>
200047d6:	6873      	ldr	r3, [r6, #4]
200047d8:	e693      	b.n	20004502 <_malloc_r+0xde>
200047da:	2308      	movs	r3, #8
200047dc:	469b      	mov	fp, r3
200047de:	3b07      	subs	r3, #7
200047e0:	44dc      	add	ip, fp
200047e2:	469b      	mov	fp, r3
200047e4:	44da      	add	sl, fp
200047e6:	4643      	mov	r3, r8
200047e8:	4652      	mov	r2, sl
200047ea:	4213      	tst	r3, r2
200047ec:	d000      	beq.n	200047f0 <_malloc_r+0x3cc>
200047ee:	e69c      	b.n	2000452a <_malloc_r+0x106>
200047f0:	e036      	b.n	20004860 <_malloc_r+0x43c>
200047f2:	68dc      	ldr	r4, [r3, #12]
200047f4:	3002      	adds	r0, #2
200047f6:	42a3      	cmp	r3, r4
200047f8:	d100      	bne.n	200047fc <_malloc_r+0x3d8>
200047fa:	e65a      	b.n	200044b2 <_malloc_r+0x8e>
200047fc:	e6cf      	b.n	2000459e <_malloc_r+0x17a>
200047fe:	2201      	movs	r2, #1
20004800:	18e3      	adds	r3, r4, r3
20004802:	6859      	ldr	r1, [r3, #4]
20004804:	0038      	movs	r0, r7
20004806:	430a      	orrs	r2, r1
20004808:	605a      	str	r2, [r3, #4]
2000480a:	68e3      	ldr	r3, [r4, #12]
2000480c:	68a2      	ldr	r2, [r4, #8]
2000480e:	60d3      	str	r3, [r2, #12]
20004810:	609a      	str	r2, [r3, #8]
20004812:	f000 f8b5 	bl	20004980 <__malloc_unlock>
20004816:	0020      	movs	r0, r4
20004818:	3008      	adds	r0, #8
2000481a:	e6d2      	b.n	200045c2 <_malloc_r+0x19e>
2000481c:	235b      	movs	r3, #91	; 0x5b
2000481e:	4698      	mov	r8, r3
20004820:	4480      	add	r8, r0
20004822:	305c      	adds	r0, #92	; 0x5c
20004824:	00c1      	lsls	r1, r0, #3
20004826:	e624      	b.n	20004472 <_malloc_r+0x4e>
20004828:	099a      	lsrs	r2, r3, #6
2000482a:	0011      	movs	r1, r2
2000482c:	3239      	adds	r2, #57	; 0x39
2000482e:	3138      	adds	r1, #56	; 0x38
20004830:	00d2      	lsls	r2, r2, #3
20004832:	e793      	b.n	2000475c <_malloc_r+0x338>
20004834:	42b4      	cmp	r4, r6
20004836:	d000      	beq.n	2000483a <_malloc_r+0x416>
20004838:	e761      	b.n	200046fe <_malloc_r+0x2da>
2000483a:	4653      	mov	r3, sl
2000483c:	685b      	ldr	r3, [r3, #4]
2000483e:	9a00      	ldr	r2, [sp, #0]
20004840:	469c      	mov	ip, r3
20004842:	4653      	mov	r3, sl
20004844:	4462      	add	r2, ip
20004846:	0011      	movs	r1, r2
20004848:	605a      	str	r2, [r3, #4]
2000484a:	e705      	b.n	20004658 <_malloc_r+0x234>
2000484c:	2308      	movs	r3, #8
2000484e:	425b      	negs	r3, r3
20004850:	469c      	mov	ip, r3
20004852:	44e1      	add	r9, ip
20004854:	464b      	mov	r3, r9
20004856:	689b      	ldr	r3, [r3, #8]
20004858:	3801      	subs	r0, #1
2000485a:	4599      	cmp	r9, r3
2000485c:	d000      	beq.n	20004860 <_malloc_r+0x43c>
2000485e:	e084      	b.n	2000496a <_malloc_r+0x546>
20004860:	4643      	mov	r3, r8
20004862:	4203      	tst	r3, r0
20004864:	d1f2      	bne.n	2000484c <_malloc_r+0x428>
20004866:	6873      	ldr	r3, [r6, #4]
20004868:	438b      	bics	r3, r1
2000486a:	6073      	str	r3, [r6, #4]
2000486c:	0049      	lsls	r1, r1, #1
2000486e:	4299      	cmp	r1, r3
20004870:	d900      	bls.n	20004874 <_malloc_r+0x450>
20004872:	e6bb      	b.n	200045ec <_malloc_r+0x1c8>
20004874:	2900      	cmp	r1, #0
20004876:	d100      	bne.n	2000487a <_malloc_r+0x456>
20004878:	e6b8      	b.n	200045ec <_malloc_r+0x1c8>
2000487a:	4650      	mov	r0, sl
2000487c:	420b      	tst	r3, r1
2000487e:	d000      	beq.n	20004882 <_malloc_r+0x45e>
20004880:	e64e      	b.n	20004520 <_malloc_r+0xfc>
20004882:	0049      	lsls	r1, r1, #1
20004884:	3004      	adds	r0, #4
20004886:	420b      	tst	r3, r1
20004888:	d0fb      	beq.n	20004882 <_malloc_r+0x45e>
2000488a:	e649      	b.n	20004520 <_malloc_r+0xfc>
2000488c:	2301      	movs	r3, #1
2000488e:	464a      	mov	r2, r9
20004890:	6053      	str	r3, [r2, #4]
20004892:	0038      	movs	r0, r7
20004894:	f000 f874 	bl	20004980 <__malloc_unlock>
20004898:	2000      	movs	r0, #0
2000489a:	e692      	b.n	200045c2 <_malloc_r+0x19e>
2000489c:	4694      	mov	ip, r2
2000489e:	e772      	b.n	20004786 <_malloc_r+0x362>
200048a0:	23aa      	movs	r3, #170	; 0xaa
200048a2:	005b      	lsls	r3, r3, #1
200048a4:	4298      	cmp	r0, r3
200048a6:	d811      	bhi.n	200048cc <_malloc_r+0x4a8>
200048a8:	3bdd      	subs	r3, #221	; 0xdd
200048aa:	4698      	mov	r8, r3
200048ac:	0be8      	lsrs	r0, r5, #15
200048ae:	4480      	add	r8, r0
200048b0:	3078      	adds	r0, #120	; 0x78
200048b2:	00c1      	lsls	r1, r0, #3
200048b4:	e5dd      	b.n	20004472 <_malloc_r+0x4e>
200048b6:	2380      	movs	r3, #128	; 0x80
200048b8:	015b      	lsls	r3, r3, #5
200048ba:	e6e3      	b.n	20004684 <_malloc_r+0x260>
200048bc:	1089      	asrs	r1, r1, #2
200048be:	3b02      	subs	r3, #2
200048c0:	408b      	lsls	r3, r1
200048c2:	6872      	ldr	r2, [r6, #4]
200048c4:	4313      	orrs	r3, r2
200048c6:	6073      	str	r3, [r6, #4]
200048c8:	4662      	mov	r2, ip
200048ca:	e75f      	b.n	2000478c <_malloc_r+0x368>
200048cc:	4b2a      	ldr	r3, [pc, #168]	; (20004978 <_malloc_r+0x554>)
200048ce:	4298      	cmp	r0, r3
200048d0:	d81c      	bhi.n	2000490c <_malloc_r+0x4e8>
200048d2:	237c      	movs	r3, #124	; 0x7c
200048d4:	4698      	mov	r8, r3
200048d6:	0ca8      	lsrs	r0, r5, #18
200048d8:	4480      	add	r8, r0
200048da:	307d      	adds	r0, #125	; 0x7d
200048dc:	00c1      	lsls	r1, r0, #3
200048de:	e5c8      	b.n	20004472 <_malloc_r+0x4e>
200048e0:	3310      	adds	r3, #16
200048e2:	9300      	str	r3, [sp, #0]
200048e4:	e6a0      	b.n	20004628 <_malloc_r+0x204>
200048e6:	2a54      	cmp	r2, #84	; 0x54
200048e8:	d826      	bhi.n	20004938 <_malloc_r+0x514>
200048ea:	464b      	mov	r3, r9
200048ec:	0b1a      	lsrs	r2, r3, #12
200048ee:	0011      	movs	r1, r2
200048f0:	326f      	adds	r2, #111	; 0x6f
200048f2:	316e      	adds	r1, #110	; 0x6e
200048f4:	00d2      	lsls	r2, r2, #3
200048f6:	e731      	b.n	2000475c <_malloc_r+0x338>
200048f8:	051b      	lsls	r3, r3, #20
200048fa:	d000      	beq.n	200048fe <_malloc_r+0x4da>
200048fc:	e6ac      	b.n	20004658 <_malloc_r+0x234>
200048fe:	2001      	movs	r0, #1
20004900:	9b00      	ldr	r3, [sp, #0]
20004902:	68b2      	ldr	r2, [r6, #8]
20004904:	4443      	add	r3, r8
20004906:	4303      	orrs	r3, r0
20004908:	6053      	str	r3, [r2, #4]
2000490a:	e6ec      	b.n	200046e6 <_malloc_r+0x2c2>
2000490c:	21fe      	movs	r1, #254	; 0xfe
2000490e:	237e      	movs	r3, #126	; 0x7e
20004910:	207f      	movs	r0, #127	; 0x7f
20004912:	0089      	lsls	r1, r1, #2
20004914:	4698      	mov	r8, r3
20004916:	e5ac      	b.n	20004472 <_malloc_r+0x4e>
20004918:	2300      	movs	r3, #0
2000491a:	2001      	movs	r0, #1
2000491c:	469b      	mov	fp, r3
2000491e:	e6c3      	b.n	200046a8 <_malloc_r+0x284>
20004920:	0021      	movs	r1, r4
20004922:	0038      	movs	r0, r7
20004924:	3108      	adds	r1, #8
20004926:	f000 fb7d 	bl	20005024 <_free_r>
2000492a:	4653      	mov	r3, sl
2000492c:	6859      	ldr	r1, [r3, #4]
2000492e:	e6da      	b.n	200046e6 <_malloc_r+0x2c2>
20004930:	465b      	mov	r3, fp
20004932:	464a      	mov	r2, r9
20004934:	609a      	str	r2, [r3, #8]
20004936:	e69a      	b.n	2000466e <_malloc_r+0x24a>
20004938:	21aa      	movs	r1, #170	; 0xaa
2000493a:	0049      	lsls	r1, r1, #1
2000493c:	428a      	cmp	r2, r1
2000493e:	d806      	bhi.n	2000494e <_malloc_r+0x52a>
20004940:	464b      	mov	r3, r9
20004942:	0bda      	lsrs	r2, r3, #15
20004944:	0011      	movs	r1, r2
20004946:	3278      	adds	r2, #120	; 0x78
20004948:	3177      	adds	r1, #119	; 0x77
2000494a:	00d2      	lsls	r2, r2, #3
2000494c:	e706      	b.n	2000475c <_malloc_r+0x338>
2000494e:	490a      	ldr	r1, [pc, #40]	; (20004978 <_malloc_r+0x554>)
20004950:	428a      	cmp	r2, r1
20004952:	d806      	bhi.n	20004962 <_malloc_r+0x53e>
20004954:	464b      	mov	r3, r9
20004956:	0c9a      	lsrs	r2, r3, #18
20004958:	0011      	movs	r1, r2
2000495a:	327d      	adds	r2, #125	; 0x7d
2000495c:	317c      	adds	r1, #124	; 0x7c
2000495e:	00d2      	lsls	r2, r2, #3
20004960:	e6fc      	b.n	2000475c <_malloc_r+0x338>
20004962:	22fe      	movs	r2, #254	; 0xfe
20004964:	217e      	movs	r1, #126	; 0x7e
20004966:	0092      	lsls	r2, r2, #2
20004968:	e6f8      	b.n	2000475c <_malloc_r+0x338>
2000496a:	6873      	ldr	r3, [r6, #4]
2000496c:	e77e      	b.n	2000486c <_malloc_r+0x448>
2000496e:	002b      	movs	r3, r5
20004970:	08e8      	lsrs	r0, r5, #3
20004972:	3308      	adds	r3, #8
20004974:	e60b      	b.n	2000458e <_malloc_r+0x16a>
20004976:	46c0      	nop			; (mov r8, r8)
20004978:	00000554 	.word	0x00000554

2000497c <__malloc_lock>:
2000497c:	4770      	bx	lr
2000497e:	46c0      	nop			; (mov r8, r8)

20004980 <__malloc_unlock>:
20004980:	4770      	bx	lr
20004982:	46c0      	nop			; (mov r8, r8)

20004984 <_sbrk_r>:
20004984:	2300      	movs	r3, #0
20004986:	b570      	push	{r4, r5, r6, lr}
20004988:	4c06      	ldr	r4, [pc, #24]	; (200049a4 <_sbrk_r+0x20>)
2000498a:	0005      	movs	r5, r0
2000498c:	0008      	movs	r0, r1
2000498e:	6023      	str	r3, [r4, #0]
20004990:	f7fd fe2c 	bl	200025ec <_sbrk>
20004994:	1c43      	adds	r3, r0, #1
20004996:	d000      	beq.n	2000499a <_sbrk_r+0x16>
20004998:	bd70      	pop	{r4, r5, r6, pc}
2000499a:	6823      	ldr	r3, [r4, #0]
2000499c:	2b00      	cmp	r3, #0
2000499e:	d0fb      	beq.n	20004998 <_sbrk_r+0x14>
200049a0:	602b      	str	r3, [r5, #0]
200049a2:	e7f9      	b.n	20004998 <_sbrk_r+0x14>
200049a4:	20006a24 	.word	0x20006a24

200049a8 <strlen>:
200049a8:	b510      	push	{r4, lr}
200049aa:	0783      	lsls	r3, r0, #30
200049ac:	d025      	beq.n	200049fa <strlen+0x52>
200049ae:	7803      	ldrb	r3, [r0, #0]
200049b0:	2b00      	cmp	r3, #0
200049b2:	d024      	beq.n	200049fe <strlen+0x56>
200049b4:	0003      	movs	r3, r0
200049b6:	2103      	movs	r1, #3
200049b8:	e002      	b.n	200049c0 <strlen+0x18>
200049ba:	781a      	ldrb	r2, [r3, #0]
200049bc:	2a00      	cmp	r2, #0
200049be:	d01a      	beq.n	200049f6 <strlen+0x4e>
200049c0:	3301      	adds	r3, #1
200049c2:	420b      	tst	r3, r1
200049c4:	d1f9      	bne.n	200049ba <strlen+0x12>
200049c6:	6819      	ldr	r1, [r3, #0]
200049c8:	4a0e      	ldr	r2, [pc, #56]	; (20004a04 <strlen+0x5c>)
200049ca:	4c0f      	ldr	r4, [pc, #60]	; (20004a08 <strlen+0x60>)
200049cc:	188a      	adds	r2, r1, r2
200049ce:	438a      	bics	r2, r1
200049d0:	4222      	tst	r2, r4
200049d2:	d106      	bne.n	200049e2 <strlen+0x3a>
200049d4:	3304      	adds	r3, #4
200049d6:	6819      	ldr	r1, [r3, #0]
200049d8:	4a0a      	ldr	r2, [pc, #40]	; (20004a04 <strlen+0x5c>)
200049da:	188a      	adds	r2, r1, r2
200049dc:	438a      	bics	r2, r1
200049de:	4222      	tst	r2, r4
200049e0:	d0f8      	beq.n	200049d4 <strlen+0x2c>
200049e2:	001a      	movs	r2, r3
200049e4:	781b      	ldrb	r3, [r3, #0]
200049e6:	2b00      	cmp	r3, #0
200049e8:	d003      	beq.n	200049f2 <strlen+0x4a>
200049ea:	3201      	adds	r2, #1
200049ec:	7811      	ldrb	r1, [r2, #0]
200049ee:	2900      	cmp	r1, #0
200049f0:	d1fb      	bne.n	200049ea <strlen+0x42>
200049f2:	1a10      	subs	r0, r2, r0
200049f4:	bd10      	pop	{r4, pc}
200049f6:	1a18      	subs	r0, r3, r0
200049f8:	e7fc      	b.n	200049f4 <strlen+0x4c>
200049fa:	0003      	movs	r3, r0
200049fc:	e7e3      	b.n	200049c6 <strlen+0x1e>
200049fe:	2000      	movs	r0, #0
20004a00:	e7f8      	b.n	200049f4 <strlen+0x4c>
20004a02:	46c0      	nop			; (mov r8, r8)
20004a04:	fefefeff 	.word	0xfefefeff
20004a08:	80808080 	.word	0x80808080

20004a0c <__swbuf_r>:
20004a0c:	b5f8      	push	{r3, r4, r5, r6, r7, lr}
20004a0e:	0006      	movs	r6, r0
20004a10:	000d      	movs	r5, r1
20004a12:	0014      	movs	r4, r2
20004a14:	2800      	cmp	r0, #0
20004a16:	d002      	beq.n	20004a1e <__swbuf_r+0x12>
20004a18:	6b83      	ldr	r3, [r0, #56]	; 0x38
20004a1a:	2b00      	cmp	r3, #0
20004a1c:	d04e      	beq.n	20004abc <__swbuf_r+0xb0>
20004a1e:	69a3      	ldr	r3, [r4, #24]
20004a20:	60a3      	str	r3, [r4, #8]
20004a22:	230c      	movs	r3, #12
20004a24:	5ee0      	ldrsh	r0, [r4, r3]
20004a26:	b281      	uxth	r1, r0
20004a28:	070b      	lsls	r3, r1, #28
20004a2a:	d53c      	bpl.n	20004aa6 <__swbuf_r+0x9a>
20004a2c:	6923      	ldr	r3, [r4, #16]
20004a2e:	2b00      	cmp	r3, #0
20004a30:	d039      	beq.n	20004aa6 <__swbuf_r+0x9a>
20004a32:	22ff      	movs	r2, #255	; 0xff
20004a34:	b2ef      	uxtb	r7, r5
20004a36:	4015      	ands	r5, r2
20004a38:	2280      	movs	r2, #128	; 0x80
20004a3a:	0192      	lsls	r2, r2, #6
20004a3c:	4211      	tst	r1, r2
20004a3e:	d015      	beq.n	20004a6c <__swbuf_r+0x60>
20004a40:	6822      	ldr	r2, [r4, #0]
20004a42:	6961      	ldr	r1, [r4, #20]
20004a44:	1ad3      	subs	r3, r2, r3
20004a46:	428b      	cmp	r3, r1
20004a48:	da1b      	bge.n	20004a82 <__swbuf_r+0x76>
20004a4a:	3301      	adds	r3, #1
20004a4c:	68a1      	ldr	r1, [r4, #8]
20004a4e:	3901      	subs	r1, #1
20004a50:	60a1      	str	r1, [r4, #8]
20004a52:	1c51      	adds	r1, r2, #1
20004a54:	6021      	str	r1, [r4, #0]
20004a56:	7017      	strb	r7, [r2, #0]
20004a58:	6962      	ldr	r2, [r4, #20]
20004a5a:	429a      	cmp	r2, r3
20004a5c:	d01a      	beq.n	20004a94 <__swbuf_r+0x88>
20004a5e:	89a3      	ldrh	r3, [r4, #12]
20004a60:	07db      	lsls	r3, r3, #31
20004a62:	d501      	bpl.n	20004a68 <__swbuf_r+0x5c>
20004a64:	2d0a      	cmp	r5, #10
20004a66:	d015      	beq.n	20004a94 <__swbuf_r+0x88>
20004a68:	0028      	movs	r0, r5
20004a6a:	bdf8      	pop	{r3, r4, r5, r6, r7, pc}
20004a6c:	4302      	orrs	r2, r0
20004a6e:	6e61      	ldr	r1, [r4, #100]	; 0x64
20004a70:	81a2      	strh	r2, [r4, #12]
20004a72:	4a14      	ldr	r2, [pc, #80]	; (20004ac4 <__swbuf_r+0xb8>)
20004a74:	400a      	ands	r2, r1
20004a76:	6662      	str	r2, [r4, #100]	; 0x64
20004a78:	6961      	ldr	r1, [r4, #20]
20004a7a:	6822      	ldr	r2, [r4, #0]
20004a7c:	1ad3      	subs	r3, r2, r3
20004a7e:	428b      	cmp	r3, r1
20004a80:	dbe3      	blt.n	20004a4a <__swbuf_r+0x3e>
20004a82:	0021      	movs	r1, r4
20004a84:	0030      	movs	r0, r6
20004a86:	f000 f93d 	bl	20004d04 <_fflush_r>
20004a8a:	2800      	cmp	r0, #0
20004a8c:	d108      	bne.n	20004aa0 <__swbuf_r+0x94>
20004a8e:	6822      	ldr	r2, [r4, #0]
20004a90:	2301      	movs	r3, #1
20004a92:	e7db      	b.n	20004a4c <__swbuf_r+0x40>
20004a94:	0021      	movs	r1, r4
20004a96:	0030      	movs	r0, r6
20004a98:	f000 f934 	bl	20004d04 <_fflush_r>
20004a9c:	2800      	cmp	r0, #0
20004a9e:	d0e3      	beq.n	20004a68 <__swbuf_r+0x5c>
20004aa0:	2501      	movs	r5, #1
20004aa2:	426d      	negs	r5, r5
20004aa4:	e7e0      	b.n	20004a68 <__swbuf_r+0x5c>
20004aa6:	0021      	movs	r1, r4
20004aa8:	0030      	movs	r0, r6
20004aaa:	f000 f819 	bl	20004ae0 <__swsetup_r>
20004aae:	2800      	cmp	r0, #0
20004ab0:	d1f6      	bne.n	20004aa0 <__swbuf_r+0x94>
20004ab2:	230c      	movs	r3, #12
20004ab4:	5ee0      	ldrsh	r0, [r4, r3]
20004ab6:	6923      	ldr	r3, [r4, #16]
20004ab8:	b281      	uxth	r1, r0
20004aba:	e7ba      	b.n	20004a32 <__swbuf_r+0x26>
20004abc:	f000 fa3a 	bl	20004f34 <__sinit>
20004ac0:	e7ad      	b.n	20004a1e <__swbuf_r+0x12>
20004ac2:	46c0      	nop			; (mov r8, r8)
20004ac4:	ffffdfff 	.word	0xffffdfff

20004ac8 <__swbuf>:
20004ac8:	b510      	push	{r4, lr}
20004aca:	4b04      	ldr	r3, [pc, #16]	; (20004adc <__swbuf+0x14>)
20004acc:	000a      	movs	r2, r1
20004ace:	681b      	ldr	r3, [r3, #0]
20004ad0:	0001      	movs	r1, r0
20004ad2:	0018      	movs	r0, r3
20004ad4:	f7ff ff9a 	bl	20004a0c <__swbuf_r>
20004ad8:	bd10      	pop	{r4, pc}
20004ada:	46c0      	nop			; (mov r8, r8)
20004adc:	20005c88 	.word	0x20005c88

20004ae0 <__swsetup_r>:
20004ae0:	4b33      	ldr	r3, [pc, #204]	; (20004bb0 <__swsetup_r+0xd0>)
20004ae2:	b570      	push	{r4, r5, r6, lr}
20004ae4:	0005      	movs	r5, r0
20004ae6:	6818      	ldr	r0, [r3, #0]
20004ae8:	000c      	movs	r4, r1
20004aea:	2800      	cmp	r0, #0
20004aec:	d002      	beq.n	20004af4 <__swsetup_r+0x14>
20004aee:	6b83      	ldr	r3, [r0, #56]	; 0x38
20004af0:	2b00      	cmp	r3, #0
20004af2:	d03c      	beq.n	20004b6e <__swsetup_r+0x8e>
20004af4:	230c      	movs	r3, #12
20004af6:	5ee2      	ldrsh	r2, [r4, r3]
20004af8:	b293      	uxth	r3, r2
20004afa:	0719      	lsls	r1, r3, #28
20004afc:	d50d      	bpl.n	20004b1a <__swsetup_r+0x3a>
20004afe:	6921      	ldr	r1, [r4, #16]
20004b00:	2900      	cmp	r1, #0
20004b02:	d015      	beq.n	20004b30 <__swsetup_r+0x50>
20004b04:	07da      	lsls	r2, r3, #31
20004b06:	d521      	bpl.n	20004b4c <__swsetup_r+0x6c>
20004b08:	2300      	movs	r3, #0
20004b0a:	60a3      	str	r3, [r4, #8]
20004b0c:	6963      	ldr	r3, [r4, #20]
20004b0e:	2000      	movs	r0, #0
20004b10:	425b      	negs	r3, r3
20004b12:	61a3      	str	r3, [r4, #24]
20004b14:	2900      	cmp	r1, #0
20004b16:	d021      	beq.n	20004b5c <__swsetup_r+0x7c>
20004b18:	bd70      	pop	{r4, r5, r6, pc}
20004b1a:	06d9      	lsls	r1, r3, #27
20004b1c:	d53f      	bpl.n	20004b9e <__swsetup_r+0xbe>
20004b1e:	075b      	lsls	r3, r3, #29
20004b20:	d428      	bmi.n	20004b74 <__swsetup_r+0x94>
20004b22:	6921      	ldr	r1, [r4, #16]
20004b24:	2308      	movs	r3, #8
20004b26:	4313      	orrs	r3, r2
20004b28:	81a3      	strh	r3, [r4, #12]
20004b2a:	b29b      	uxth	r3, r3
20004b2c:	2900      	cmp	r1, #0
20004b2e:	d1e9      	bne.n	20004b04 <__swsetup_r+0x24>
20004b30:	22a0      	movs	r2, #160	; 0xa0
20004b32:	2080      	movs	r0, #128	; 0x80
20004b34:	0092      	lsls	r2, r2, #2
20004b36:	0080      	lsls	r0, r0, #2
20004b38:	401a      	ands	r2, r3
20004b3a:	4282      	cmp	r2, r0
20004b3c:	d0e2      	beq.n	20004b04 <__swsetup_r+0x24>
20004b3e:	0021      	movs	r1, r4
20004b40:	0028      	movs	r0, r5
20004b42:	f000 fbc5 	bl	200052d0 <__smakebuf_r>
20004b46:	89a3      	ldrh	r3, [r4, #12]
20004b48:	6921      	ldr	r1, [r4, #16]
20004b4a:	e7db      	b.n	20004b04 <__swsetup_r+0x24>
20004b4c:	2200      	movs	r2, #0
20004b4e:	079b      	lsls	r3, r3, #30
20004b50:	d400      	bmi.n	20004b54 <__swsetup_r+0x74>
20004b52:	6962      	ldr	r2, [r4, #20]
20004b54:	60a2      	str	r2, [r4, #8]
20004b56:	2000      	movs	r0, #0
20004b58:	2900      	cmp	r1, #0
20004b5a:	d1dd      	bne.n	20004b18 <__swsetup_r+0x38>
20004b5c:	220c      	movs	r2, #12
20004b5e:	5ea3      	ldrsh	r3, [r4, r2]
20004b60:	061a      	lsls	r2, r3, #24
20004b62:	d5d9      	bpl.n	20004b18 <__swsetup_r+0x38>
20004b64:	2240      	movs	r2, #64	; 0x40
20004b66:	4313      	orrs	r3, r2
20004b68:	81a3      	strh	r3, [r4, #12]
20004b6a:	3801      	subs	r0, #1
20004b6c:	e7d4      	b.n	20004b18 <__swsetup_r+0x38>
20004b6e:	f000 f9e1 	bl	20004f34 <__sinit>
20004b72:	e7bf      	b.n	20004af4 <__swsetup_r+0x14>
20004b74:	6b21      	ldr	r1, [r4, #48]	; 0x30
20004b76:	2900      	cmp	r1, #0
20004b78:	d00a      	beq.n	20004b90 <__swsetup_r+0xb0>
20004b7a:	0023      	movs	r3, r4
20004b7c:	3340      	adds	r3, #64	; 0x40
20004b7e:	4299      	cmp	r1, r3
20004b80:	d004      	beq.n	20004b8c <__swsetup_r+0xac>
20004b82:	0028      	movs	r0, r5
20004b84:	f000 fa4e 	bl	20005024 <_free_r>
20004b88:	230c      	movs	r3, #12
20004b8a:	5ee2      	ldrsh	r2, [r4, r3]
20004b8c:	2300      	movs	r3, #0
20004b8e:	6323      	str	r3, [r4, #48]	; 0x30
20004b90:	2324      	movs	r3, #36	; 0x24
20004b92:	439a      	bics	r2, r3
20004b94:	2300      	movs	r3, #0
20004b96:	6921      	ldr	r1, [r4, #16]
20004b98:	6063      	str	r3, [r4, #4]
20004b9a:	6021      	str	r1, [r4, #0]
20004b9c:	e7c2      	b.n	20004b24 <__swsetup_r+0x44>
20004b9e:	2309      	movs	r3, #9
20004ba0:	602b      	str	r3, [r5, #0]
20004ba2:	2340      	movs	r3, #64	; 0x40
20004ba4:	2001      	movs	r0, #1
20004ba6:	431a      	orrs	r2, r3
20004ba8:	81a2      	strh	r2, [r4, #12]
20004baa:	4240      	negs	r0, r0
20004bac:	e7b4      	b.n	20004b18 <__swsetup_r+0x38>
20004bae:	46c0      	nop			; (mov r8, r8)
20004bb0:	20005c88 	.word	0x20005c88

20004bb4 <__sflush_r>:
20004bb4:	b5f0      	push	{r4, r5, r6, r7, lr}
20004bb6:	46c6      	mov	lr, r8
20004bb8:	b500      	push	{lr}
20004bba:	230c      	movs	r3, #12
20004bbc:	5eca      	ldrsh	r2, [r1, r3]
20004bbe:	4680      	mov	r8, r0
20004bc0:	b293      	uxth	r3, r2
20004bc2:	000c      	movs	r4, r1
20004bc4:	0719      	lsls	r1, r3, #28
20004bc6:	d440      	bmi.n	20004c4a <__sflush_r+0x96>
20004bc8:	2380      	movs	r3, #128	; 0x80
20004bca:	011b      	lsls	r3, r3, #4
20004bcc:	4313      	orrs	r3, r2
20004bce:	6862      	ldr	r2, [r4, #4]
20004bd0:	81a3      	strh	r3, [r4, #12]
20004bd2:	2a00      	cmp	r2, #0
20004bd4:	dc00      	bgt.n	20004bd8 <__sflush_r+0x24>
20004bd6:	e070      	b.n	20004cba <__sflush_r+0x106>
20004bd8:	6aa6      	ldr	r6, [r4, #40]	; 0x28
20004bda:	2e00      	cmp	r6, #0
20004bdc:	d031      	beq.n	20004c42 <__sflush_r+0x8e>
20004bde:	4642      	mov	r2, r8
20004be0:	4641      	mov	r1, r8
20004be2:	6815      	ldr	r5, [r2, #0]
20004be4:	2200      	movs	r2, #0
20004be6:	b29b      	uxth	r3, r3
20004be8:	600a      	str	r2, [r1, #0]
20004bea:	04da      	lsls	r2, r3, #19
20004bec:	d400      	bmi.n	20004bf0 <__sflush_r+0x3c>
20004bee:	e069      	b.n	20004cc4 <__sflush_r+0x110>
20004bf0:	6d22      	ldr	r2, [r4, #80]	; 0x50
20004bf2:	075b      	lsls	r3, r3, #29
20004bf4:	d506      	bpl.n	20004c04 <__sflush_r+0x50>
20004bf6:	6863      	ldr	r3, [r4, #4]
20004bf8:	1ad2      	subs	r2, r2, r3
20004bfa:	6b23      	ldr	r3, [r4, #48]	; 0x30
20004bfc:	2b00      	cmp	r3, #0
20004bfe:	d001      	beq.n	20004c04 <__sflush_r+0x50>
20004c00:	6be3      	ldr	r3, [r4, #60]	; 0x3c
20004c02:	1ad2      	subs	r2, r2, r3
20004c04:	2300      	movs	r3, #0
20004c06:	69e1      	ldr	r1, [r4, #28]
20004c08:	4640      	mov	r0, r8
20004c0a:	47b0      	blx	r6
20004c0c:	1c43      	adds	r3, r0, #1
20004c0e:	d03d      	beq.n	20004c8c <__sflush_r+0xd8>
20004c10:	89a3      	ldrh	r3, [r4, #12]
20004c12:	4a3a      	ldr	r2, [pc, #232]	; (20004cfc <__sflush_r+0x148>)
20004c14:	4013      	ands	r3, r2
20004c16:	2200      	movs	r2, #0
20004c18:	6062      	str	r2, [r4, #4]
20004c1a:	6922      	ldr	r2, [r4, #16]
20004c1c:	b21b      	sxth	r3, r3
20004c1e:	81a3      	strh	r3, [r4, #12]
20004c20:	6022      	str	r2, [r4, #0]
20004c22:	04db      	lsls	r3, r3, #19
20004c24:	d447      	bmi.n	20004cb6 <__sflush_r+0x102>
20004c26:	4643      	mov	r3, r8
20004c28:	6b21      	ldr	r1, [r4, #48]	; 0x30
20004c2a:	601d      	str	r5, [r3, #0]
20004c2c:	2900      	cmp	r1, #0
20004c2e:	d008      	beq.n	20004c42 <__sflush_r+0x8e>
20004c30:	0023      	movs	r3, r4
20004c32:	3340      	adds	r3, #64	; 0x40
20004c34:	4299      	cmp	r1, r3
20004c36:	d002      	beq.n	20004c3e <__sflush_r+0x8a>
20004c38:	4640      	mov	r0, r8
20004c3a:	f000 f9f3 	bl	20005024 <_free_r>
20004c3e:	2300      	movs	r3, #0
20004c40:	6323      	str	r3, [r4, #48]	; 0x30
20004c42:	2000      	movs	r0, #0
20004c44:	bc04      	pop	{r2}
20004c46:	4690      	mov	r8, r2
20004c48:	bdf0      	pop	{r4, r5, r6, r7, pc}
20004c4a:	6926      	ldr	r6, [r4, #16]
20004c4c:	2e00      	cmp	r6, #0
20004c4e:	d0f8      	beq.n	20004c42 <__sflush_r+0x8e>
20004c50:	6822      	ldr	r2, [r4, #0]
20004c52:	6026      	str	r6, [r4, #0]
20004c54:	1b95      	subs	r5, r2, r6
20004c56:	2200      	movs	r2, #0
20004c58:	079b      	lsls	r3, r3, #30
20004c5a:	d100      	bne.n	20004c5e <__sflush_r+0xaa>
20004c5c:	6962      	ldr	r2, [r4, #20]
20004c5e:	60a2      	str	r2, [r4, #8]
20004c60:	2d00      	cmp	r5, #0
20004c62:	dc04      	bgt.n	20004c6e <__sflush_r+0xba>
20004c64:	e7ed      	b.n	20004c42 <__sflush_r+0x8e>
20004c66:	1836      	adds	r6, r6, r0
20004c68:	1a2d      	subs	r5, r5, r0
20004c6a:	2d00      	cmp	r5, #0
20004c6c:	dde9      	ble.n	20004c42 <__sflush_r+0x8e>
20004c6e:	002b      	movs	r3, r5
20004c70:	0032      	movs	r2, r6
20004c72:	69e1      	ldr	r1, [r4, #28]
20004c74:	4640      	mov	r0, r8
20004c76:	6a67      	ldr	r7, [r4, #36]	; 0x24
20004c78:	47b8      	blx	r7
20004c7a:	2800      	cmp	r0, #0
20004c7c:	dcf3      	bgt.n	20004c66 <__sflush_r+0xb2>
20004c7e:	2240      	movs	r2, #64	; 0x40
20004c80:	2001      	movs	r0, #1
20004c82:	89a3      	ldrh	r3, [r4, #12]
20004c84:	4240      	negs	r0, r0
20004c86:	4313      	orrs	r3, r2
20004c88:	81a3      	strh	r3, [r4, #12]
20004c8a:	e7db      	b.n	20004c44 <__sflush_r+0x90>
20004c8c:	4643      	mov	r3, r8
20004c8e:	6819      	ldr	r1, [r3, #0]
20004c90:	291d      	cmp	r1, #29
20004c92:	d8f4      	bhi.n	20004c7e <__sflush_r+0xca>
20004c94:	4b1a      	ldr	r3, [pc, #104]	; (20004d00 <__sflush_r+0x14c>)
20004c96:	2201      	movs	r2, #1
20004c98:	40cb      	lsrs	r3, r1
20004c9a:	439a      	bics	r2, r3
20004c9c:	d1ef      	bne.n	20004c7e <__sflush_r+0xca>
20004c9e:	89a3      	ldrh	r3, [r4, #12]
20004ca0:	4e16      	ldr	r6, [pc, #88]	; (20004cfc <__sflush_r+0x148>)
20004ca2:	6062      	str	r2, [r4, #4]
20004ca4:	4033      	ands	r3, r6
20004ca6:	6922      	ldr	r2, [r4, #16]
20004ca8:	b21b      	sxth	r3, r3
20004caa:	81a3      	strh	r3, [r4, #12]
20004cac:	6022      	str	r2, [r4, #0]
20004cae:	04db      	lsls	r3, r3, #19
20004cb0:	d5b9      	bpl.n	20004c26 <__sflush_r+0x72>
20004cb2:	2900      	cmp	r1, #0
20004cb4:	d1b7      	bne.n	20004c26 <__sflush_r+0x72>
20004cb6:	6520      	str	r0, [r4, #80]	; 0x50
20004cb8:	e7b5      	b.n	20004c26 <__sflush_r+0x72>
20004cba:	6be2      	ldr	r2, [r4, #60]	; 0x3c
20004cbc:	2a00      	cmp	r2, #0
20004cbe:	dd00      	ble.n	20004cc2 <__sflush_r+0x10e>
20004cc0:	e78a      	b.n	20004bd8 <__sflush_r+0x24>
20004cc2:	e7be      	b.n	20004c42 <__sflush_r+0x8e>
20004cc4:	2200      	movs	r2, #0
20004cc6:	2301      	movs	r3, #1
20004cc8:	69e1      	ldr	r1, [r4, #28]
20004cca:	4640      	mov	r0, r8
20004ccc:	47b0      	blx	r6
20004cce:	0002      	movs	r2, r0
20004cd0:	1c43      	adds	r3, r0, #1
20004cd2:	d002      	beq.n	20004cda <__sflush_r+0x126>
20004cd4:	89a3      	ldrh	r3, [r4, #12]
20004cd6:	6aa6      	ldr	r6, [r4, #40]	; 0x28
20004cd8:	e78b      	b.n	20004bf2 <__sflush_r+0x3e>
20004cda:	4643      	mov	r3, r8
20004cdc:	681b      	ldr	r3, [r3, #0]
20004cde:	2b00      	cmp	r3, #0
20004ce0:	d0f8      	beq.n	20004cd4 <__sflush_r+0x120>
20004ce2:	2b1d      	cmp	r3, #29
20004ce4:	d001      	beq.n	20004cea <__sflush_r+0x136>
20004ce6:	2b16      	cmp	r3, #22
20004ce8:	d103      	bne.n	20004cf2 <__sflush_r+0x13e>
20004cea:	4643      	mov	r3, r8
20004cec:	2000      	movs	r0, #0
20004cee:	601d      	str	r5, [r3, #0]
20004cf0:	e7a8      	b.n	20004c44 <__sflush_r+0x90>
20004cf2:	2140      	movs	r1, #64	; 0x40
20004cf4:	89a3      	ldrh	r3, [r4, #12]
20004cf6:	430b      	orrs	r3, r1
20004cf8:	81a3      	strh	r3, [r4, #12]
20004cfa:	e7a3      	b.n	20004c44 <__sflush_r+0x90>
20004cfc:	fffff7ff 	.word	0xfffff7ff
20004d00:	20400001 	.word	0x20400001

20004d04 <_fflush_r>:
20004d04:	b570      	push	{r4, r5, r6, lr}
20004d06:	0004      	movs	r4, r0
20004d08:	000d      	movs	r5, r1
20004d0a:	2800      	cmp	r0, #0
20004d0c:	d002      	beq.n	20004d14 <_fflush_r+0x10>
20004d0e:	6b83      	ldr	r3, [r0, #56]	; 0x38
20004d10:	2b00      	cmp	r3, #0
20004d12:	d009      	beq.n	20004d28 <_fflush_r+0x24>
20004d14:	220c      	movs	r2, #12
20004d16:	5eab      	ldrsh	r3, [r5, r2]
20004d18:	2000      	movs	r0, #0
20004d1a:	2b00      	cmp	r3, #0
20004d1c:	d003      	beq.n	20004d26 <_fflush_r+0x22>
20004d1e:	0029      	movs	r1, r5
20004d20:	0020      	movs	r0, r4
20004d22:	f7ff ff47 	bl	20004bb4 <__sflush_r>
20004d26:	bd70      	pop	{r4, r5, r6, pc}
20004d28:	f000 f904 	bl	20004f34 <__sinit>
20004d2c:	e7f2      	b.n	20004d14 <_fflush_r+0x10>
20004d2e:	46c0      	nop			; (mov r8, r8)

20004d30 <fflush>:
20004d30:	b510      	push	{r4, lr}
20004d32:	1e01      	subs	r1, r0, #0
20004d34:	d004      	beq.n	20004d40 <fflush+0x10>
20004d36:	4b05      	ldr	r3, [pc, #20]	; (20004d4c <fflush+0x1c>)
20004d38:	6818      	ldr	r0, [r3, #0]
20004d3a:	f7ff ffe3 	bl	20004d04 <_fflush_r>
20004d3e:	bd10      	pop	{r4, pc}
20004d40:	4b03      	ldr	r3, [pc, #12]	; (20004d50 <fflush+0x20>)
20004d42:	4904      	ldr	r1, [pc, #16]	; (20004d54 <fflush+0x24>)
20004d44:	6818      	ldr	r0, [r3, #0]
20004d46:	f000 fa6d 	bl	20005224 <_fwalk_reent>
20004d4a:	e7f8      	b.n	20004d3e <fflush+0xe>
20004d4c:	20005c88 	.word	0x20005c88
20004d50:	20005bd0 	.word	0x20005bd0
20004d54:	20004d05 	.word	0x20004d05

20004d58 <__fp_unlock>:
20004d58:	2000      	movs	r0, #0
20004d5a:	4770      	bx	lr

20004d5c <_cleanup_r>:
20004d5c:	b510      	push	{r4, lr}
20004d5e:	4902      	ldr	r1, [pc, #8]	; (20004d68 <_cleanup_r+0xc>)
20004d60:	f000 fa60 	bl	20005224 <_fwalk_reent>
20004d64:	bd10      	pop	{r4, pc}
20004d66:	46c0      	nop			; (mov r8, r8)
20004d68:	20005445 	.word	0x20005445

20004d6c <__sinit.part.1>:
20004d6c:	b5f8      	push	{r3, r4, r5, r6, r7, lr}
20004d6e:	46de      	mov	lr, fp
20004d70:	4657      	mov	r7, sl
20004d72:	464e      	mov	r6, r9
20004d74:	4645      	mov	r5, r8
20004d76:	4b34      	ldr	r3, [pc, #208]	; (20004e48 <__sinit.part.1+0xdc>)
20004d78:	b5e0      	push	{r5, r6, r7, lr}
20004d7a:	63c3      	str	r3, [r0, #60]	; 0x3c
20004d7c:	23b8      	movs	r3, #184	; 0xb8
20004d7e:	2400      	movs	r4, #0
20004d80:	2203      	movs	r2, #3
20004d82:	009b      	lsls	r3, r3, #2
20004d84:	50c4      	str	r4, [r0, r3]
20004d86:	3304      	adds	r3, #4
20004d88:	6845      	ldr	r5, [r0, #4]
20004d8a:	50c2      	str	r2, [r0, r3]
20004d8c:	3308      	adds	r3, #8
20004d8e:	18c2      	adds	r2, r0, r3
20004d90:	3b04      	subs	r3, #4
20004d92:	50c2      	str	r2, [r0, r3]
20004d94:	0006      	movs	r6, r0
20004d96:	2304      	movs	r3, #4
20004d98:	0028      	movs	r0, r5
20004d9a:	602c      	str	r4, [r5, #0]
20004d9c:	606c      	str	r4, [r5, #4]
20004d9e:	60ac      	str	r4, [r5, #8]
20004da0:	81ab      	strh	r3, [r5, #12]
20004da2:	666c      	str	r4, [r5, #100]	; 0x64
20004da4:	81ec      	strh	r4, [r5, #14]
20004da6:	612c      	str	r4, [r5, #16]
20004da8:	616c      	str	r4, [r5, #20]
20004daa:	61ac      	str	r4, [r5, #24]
20004dac:	2208      	movs	r2, #8
20004dae:	2100      	movs	r1, #0
20004db0:	305c      	adds	r0, #92	; 0x5c
20004db2:	f7fd fb95 	bl	200024e0 <__wrap_memset>
20004db6:	4b25      	ldr	r3, [pc, #148]	; (20004e4c <__sinit.part.1+0xe0>)
20004db8:	4f25      	ldr	r7, [pc, #148]	; (20004e50 <__sinit.part.1+0xe4>)
20004dba:	469a      	mov	sl, r3
20004dbc:	622b      	str	r3, [r5, #32]
20004dbe:	4b25      	ldr	r3, [pc, #148]	; (20004e54 <__sinit.part.1+0xe8>)
20004dc0:	62ef      	str	r7, [r5, #44]	; 0x2c
20004dc2:	4699      	mov	r9, r3
20004dc4:	626b      	str	r3, [r5, #36]	; 0x24
20004dc6:	4b24      	ldr	r3, [pc, #144]	; (20004e58 <__sinit.part.1+0xec>)
20004dc8:	61ed      	str	r5, [r5, #28]
20004dca:	62ab      	str	r3, [r5, #40]	; 0x28
20004dcc:	68b5      	ldr	r5, [r6, #8]
20004dce:	4698      	mov	r8, r3
20004dd0:	2309      	movs	r3, #9
20004dd2:	0028      	movs	r0, r5
20004dd4:	81ab      	strh	r3, [r5, #12]
20004dd6:	3b08      	subs	r3, #8
20004dd8:	602c      	str	r4, [r5, #0]
20004dda:	606c      	str	r4, [r5, #4]
20004ddc:	60ac      	str	r4, [r5, #8]
20004dde:	666c      	str	r4, [r5, #100]	; 0x64
20004de0:	81eb      	strh	r3, [r5, #14]
20004de2:	612c      	str	r4, [r5, #16]
20004de4:	616c      	str	r4, [r5, #20]
20004de6:	61ac      	str	r4, [r5, #24]
20004de8:	2208      	movs	r2, #8
20004dea:	2100      	movs	r1, #0
20004dec:	305c      	adds	r0, #92	; 0x5c
20004dee:	469b      	mov	fp, r3
20004df0:	f7fd fb76 	bl	200024e0 <__wrap_memset>
20004df4:	4653      	mov	r3, sl
20004df6:	622b      	str	r3, [r5, #32]
20004df8:	464b      	mov	r3, r9
20004dfa:	626b      	str	r3, [r5, #36]	; 0x24
20004dfc:	4643      	mov	r3, r8
20004dfe:	62ef      	str	r7, [r5, #44]	; 0x2c
20004e00:	62ab      	str	r3, [r5, #40]	; 0x28
20004e02:	61ed      	str	r5, [r5, #28]
20004e04:	68f5      	ldr	r5, [r6, #12]
20004e06:	2312      	movs	r3, #18
20004e08:	0028      	movs	r0, r5
20004e0a:	81ab      	strh	r3, [r5, #12]
20004e0c:	3b10      	subs	r3, #16
20004e0e:	81eb      	strh	r3, [r5, #14]
20004e10:	602c      	str	r4, [r5, #0]
20004e12:	606c      	str	r4, [r5, #4]
20004e14:	60ac      	str	r4, [r5, #8]
20004e16:	666c      	str	r4, [r5, #100]	; 0x64
20004e18:	612c      	str	r4, [r5, #16]
20004e1a:	616c      	str	r4, [r5, #20]
20004e1c:	61ac      	str	r4, [r5, #24]
20004e1e:	2208      	movs	r2, #8
20004e20:	2100      	movs	r1, #0
20004e22:	305c      	adds	r0, #92	; 0x5c
20004e24:	f7fd fb5c 	bl	200024e0 <__wrap_memset>
20004e28:	4653      	mov	r3, sl
20004e2a:	622b      	str	r3, [r5, #32]
20004e2c:	464b      	mov	r3, r9
20004e2e:	626b      	str	r3, [r5, #36]	; 0x24
20004e30:	4643      	mov	r3, r8
20004e32:	62ab      	str	r3, [r5, #40]	; 0x28
20004e34:	465b      	mov	r3, fp
20004e36:	62ef      	str	r7, [r5, #44]	; 0x2c
20004e38:	61ed      	str	r5, [r5, #28]
20004e3a:	63b3      	str	r3, [r6, #56]	; 0x38
20004e3c:	bc3c      	pop	{r2, r3, r4, r5}
20004e3e:	4690      	mov	r8, r2
20004e40:	4699      	mov	r9, r3
20004e42:	46a2      	mov	sl, r4
20004e44:	46ab      	mov	fp, r5
20004e46:	bdf8      	pop	{r3, r4, r5, r6, r7, pc}
20004e48:	20004d5d 	.word	0x20004d5d
20004e4c:	20005359 	.word	0x20005359
20004e50:	200053ed 	.word	0x200053ed
20004e54:	20005385 	.word	0x20005385
20004e58:	200053c1 	.word	0x200053c1

20004e5c <__fp_lock>:
20004e5c:	2000      	movs	r0, #0
20004e5e:	4770      	bx	lr

20004e60 <__sfmoreglue>:
20004e60:	b570      	push	{r4, r5, r6, lr}
20004e62:	2468      	movs	r4, #104	; 0x68
20004e64:	1e4a      	subs	r2, r1, #1
20004e66:	4354      	muls	r4, r2
20004e68:	000e      	movs	r6, r1
20004e6a:	0021      	movs	r1, r4
20004e6c:	3174      	adds	r1, #116	; 0x74
20004e6e:	f7ff fad9 	bl	20004424 <_malloc_r>
20004e72:	1e05      	subs	r5, r0, #0
20004e74:	d009      	beq.n	20004e8a <__sfmoreglue+0x2a>
20004e76:	2300      	movs	r3, #0
20004e78:	0022      	movs	r2, r4
20004e7a:	6003      	str	r3, [r0, #0]
20004e7c:	6046      	str	r6, [r0, #4]
20004e7e:	300c      	adds	r0, #12
20004e80:	60a8      	str	r0, [r5, #8]
20004e82:	3268      	adds	r2, #104	; 0x68
20004e84:	2100      	movs	r1, #0
20004e86:	f7fd fb2b 	bl	200024e0 <__wrap_memset>
20004e8a:	0028      	movs	r0, r5
20004e8c:	bd70      	pop	{r4, r5, r6, pc}
20004e8e:	46c0      	nop			; (mov r8, r8)

20004e90 <__sfp>:
20004e90:	4b21      	ldr	r3, [pc, #132]	; (20004f18 <__sfp+0x88>)
20004e92:	b570      	push	{r4, r5, r6, lr}
20004e94:	681d      	ldr	r5, [r3, #0]
20004e96:	0006      	movs	r6, r0
20004e98:	6bab      	ldr	r3, [r5, #56]	; 0x38
20004e9a:	2b00      	cmp	r3, #0
20004e9c:	d02d      	beq.n	20004efa <__sfp+0x6a>
20004e9e:	23b8      	movs	r3, #184	; 0xb8
20004ea0:	009b      	lsls	r3, r3, #2
20004ea2:	469c      	mov	ip, r3
20004ea4:	4465      	add	r5, ip
20004ea6:	686b      	ldr	r3, [r5, #4]
20004ea8:	68ac      	ldr	r4, [r5, #8]
20004eaa:	3b01      	subs	r3, #1
20004eac:	d503      	bpl.n	20004eb6 <__sfp+0x26>
20004eae:	e01f      	b.n	20004ef0 <__sfp+0x60>
20004eb0:	3468      	adds	r4, #104	; 0x68
20004eb2:	3b01      	subs	r3, #1
20004eb4:	d31c      	bcc.n	20004ef0 <__sfp+0x60>
20004eb6:	210c      	movs	r1, #12
20004eb8:	5e62      	ldrsh	r2, [r4, r1]
20004eba:	2a00      	cmp	r2, #0
20004ebc:	d1f8      	bne.n	20004eb0 <__sfp+0x20>
20004ebe:	2301      	movs	r3, #1
20004ec0:	2500      	movs	r5, #0
20004ec2:	0020      	movs	r0, r4
20004ec4:	425b      	negs	r3, r3
20004ec6:	81e3      	strh	r3, [r4, #14]
20004ec8:	3302      	adds	r3, #2
20004eca:	81a3      	strh	r3, [r4, #12]
20004ecc:	6665      	str	r5, [r4, #100]	; 0x64
20004ece:	6025      	str	r5, [r4, #0]
20004ed0:	60a5      	str	r5, [r4, #8]
20004ed2:	6065      	str	r5, [r4, #4]
20004ed4:	6125      	str	r5, [r4, #16]
20004ed6:	6165      	str	r5, [r4, #20]
20004ed8:	61a5      	str	r5, [r4, #24]
20004eda:	2208      	movs	r2, #8
20004edc:	2100      	movs	r1, #0
20004ede:	305c      	adds	r0, #92	; 0x5c
20004ee0:	f7fd fafe 	bl	200024e0 <__wrap_memset>
20004ee4:	6325      	str	r5, [r4, #48]	; 0x30
20004ee6:	6365      	str	r5, [r4, #52]	; 0x34
20004ee8:	6465      	str	r5, [r4, #68]	; 0x44
20004eea:	64a5      	str	r5, [r4, #72]	; 0x48
20004eec:	0020      	movs	r0, r4
20004eee:	bd70      	pop	{r4, r5, r6, pc}
20004ef0:	6828      	ldr	r0, [r5, #0]
20004ef2:	2800      	cmp	r0, #0
20004ef4:	d005      	beq.n	20004f02 <__sfp+0x72>
20004ef6:	0005      	movs	r5, r0
20004ef8:	e7d5      	b.n	20004ea6 <__sfp+0x16>
20004efa:	0028      	movs	r0, r5
20004efc:	f7ff ff36 	bl	20004d6c <__sinit.part.1>
20004f00:	e7cd      	b.n	20004e9e <__sfp+0xe>
20004f02:	2104      	movs	r1, #4
20004f04:	0030      	movs	r0, r6
20004f06:	f7ff ffab 	bl	20004e60 <__sfmoreglue>
20004f0a:	6028      	str	r0, [r5, #0]
20004f0c:	2800      	cmp	r0, #0
20004f0e:	d1f2      	bne.n	20004ef6 <__sfp+0x66>
20004f10:	230c      	movs	r3, #12
20004f12:	2400      	movs	r4, #0
20004f14:	6033      	str	r3, [r6, #0]
20004f16:	e7e9      	b.n	20004eec <__sfp+0x5c>
20004f18:	20005bd0 	.word	0x20005bd0

20004f1c <_cleanup>:
20004f1c:	b510      	push	{r4, lr}
20004f1e:	4b03      	ldr	r3, [pc, #12]	; (20004f2c <_cleanup+0x10>)
20004f20:	4903      	ldr	r1, [pc, #12]	; (20004f30 <_cleanup+0x14>)
20004f22:	6818      	ldr	r0, [r3, #0]
20004f24:	f000 f97e 	bl	20005224 <_fwalk_reent>
20004f28:	bd10      	pop	{r4, pc}
20004f2a:	46c0      	nop			; (mov r8, r8)
20004f2c:	20005bd0 	.word	0x20005bd0
20004f30:	20005445 	.word	0x20005445

20004f34 <__sinit>:
20004f34:	6b83      	ldr	r3, [r0, #56]	; 0x38
20004f36:	b510      	push	{r4, lr}
20004f38:	2b00      	cmp	r3, #0
20004f3a:	d101      	bne.n	20004f40 <__sinit+0xc>
20004f3c:	f7ff ff16 	bl	20004d6c <__sinit.part.1>
20004f40:	bd10      	pop	{r4, pc}
20004f42:	46c0      	nop			; (mov r8, r8)

20004f44 <__sfp_lock_acquire>:
20004f44:	4770      	bx	lr
20004f46:	46c0      	nop			; (mov r8, r8)

20004f48 <__sfp_lock_release>:
20004f48:	4770      	bx	lr
20004f4a:	46c0      	nop			; (mov r8, r8)

20004f4c <__sinit_lock_acquire>:
20004f4c:	4770      	bx	lr
20004f4e:	46c0      	nop			; (mov r8, r8)

20004f50 <__sinit_lock_release>:
20004f50:	4770      	bx	lr
20004f52:	46c0      	nop			; (mov r8, r8)

20004f54 <__fp_lock_all>:
20004f54:	b510      	push	{r4, lr}
20004f56:	4b03      	ldr	r3, [pc, #12]	; (20004f64 <__fp_lock_all+0x10>)
20004f58:	4903      	ldr	r1, [pc, #12]	; (20004f68 <__fp_lock_all+0x14>)
20004f5a:	6818      	ldr	r0, [r3, #0]
20004f5c:	f000 f940 	bl	200051e0 <_fwalk>
20004f60:	bd10      	pop	{r4, pc}
20004f62:	46c0      	nop			; (mov r8, r8)
20004f64:	20005c88 	.word	0x20005c88
20004f68:	20004e5d 	.word	0x20004e5d

20004f6c <__fp_unlock_all>:
20004f6c:	b510      	push	{r4, lr}
20004f6e:	4b03      	ldr	r3, [pc, #12]	; (20004f7c <__fp_unlock_all+0x10>)
20004f70:	4903      	ldr	r1, [pc, #12]	; (20004f80 <__fp_unlock_all+0x14>)
20004f72:	6818      	ldr	r0, [r3, #0]
20004f74:	f000 f934 	bl	200051e0 <_fwalk>
20004f78:	bd10      	pop	{r4, pc}
20004f7a:	46c0      	nop			; (mov r8, r8)
20004f7c:	20005c88 	.word	0x20005c88
20004f80:	20004d59 	.word	0x20004d59

20004f84 <_malloc_trim_r>:
20004f84:	b5f8      	push	{r3, r4, r5, r6, r7, lr}
20004f86:	000c      	movs	r4, r1
20004f88:	0006      	movs	r6, r0
20004f8a:	f7ff fcf7 	bl	2000497c <__malloc_lock>
20004f8e:	4f20      	ldr	r7, [pc, #128]	; (20005010 <_malloc_trim_r+0x8c>)
20004f90:	68bb      	ldr	r3, [r7, #8]
20004f92:	685d      	ldr	r5, [r3, #4]
20004f94:	2303      	movs	r3, #3
20004f96:	439d      	bics	r5, r3
20004f98:	4b1e      	ldr	r3, [pc, #120]	; (20005014 <_malloc_trim_r+0x90>)
20004f9a:	1b2c      	subs	r4, r5, r4
20004f9c:	469c      	mov	ip, r3
20004f9e:	4464      	add	r4, ip
20004fa0:	0b24      	lsrs	r4, r4, #12
20004fa2:	4b1d      	ldr	r3, [pc, #116]	; (20005018 <_malloc_trim_r+0x94>)
20004fa4:	3c01      	subs	r4, #1
20004fa6:	0324      	lsls	r4, r4, #12
20004fa8:	429c      	cmp	r4, r3
20004faa:	dd07      	ble.n	20004fbc <_malloc_trim_r+0x38>
20004fac:	2100      	movs	r1, #0
20004fae:	0030      	movs	r0, r6
20004fb0:	f7ff fce8 	bl	20004984 <_sbrk_r>
20004fb4:	68bb      	ldr	r3, [r7, #8]
20004fb6:	195b      	adds	r3, r3, r5
20004fb8:	4298      	cmp	r0, r3
20004fba:	d004      	beq.n	20004fc6 <_malloc_trim_r+0x42>
20004fbc:	0030      	movs	r0, r6
20004fbe:	f7ff fcdf 	bl	20004980 <__malloc_unlock>
20004fc2:	2000      	movs	r0, #0
20004fc4:	bdf8      	pop	{r3, r4, r5, r6, r7, pc}
20004fc6:	4261      	negs	r1, r4
20004fc8:	0030      	movs	r0, r6
20004fca:	f7ff fcdb 	bl	20004984 <_sbrk_r>
20004fce:	1c43      	adds	r3, r0, #1
20004fd0:	d00d      	beq.n	20004fee <_malloc_trim_r+0x6a>
20004fd2:	2201      	movs	r2, #1
20004fd4:	68bb      	ldr	r3, [r7, #8]
20004fd6:	1b2d      	subs	r5, r5, r4
20004fd8:	4315      	orrs	r5, r2
20004fda:	605d      	str	r5, [r3, #4]
20004fdc:	4b0f      	ldr	r3, [pc, #60]	; (2000501c <_malloc_trim_r+0x98>)
20004fde:	0030      	movs	r0, r6
20004fe0:	681a      	ldr	r2, [r3, #0]
20004fe2:	1b14      	subs	r4, r2, r4
20004fe4:	601c      	str	r4, [r3, #0]
20004fe6:	f7ff fccb 	bl	20004980 <__malloc_unlock>
20004fea:	2001      	movs	r0, #1
20004fec:	e7ea      	b.n	20004fc4 <_malloc_trim_r+0x40>
20004fee:	2100      	movs	r1, #0
20004ff0:	0030      	movs	r0, r6
20004ff2:	f7ff fcc7 	bl	20004984 <_sbrk_r>
20004ff6:	68ba      	ldr	r2, [r7, #8]
20004ff8:	1a83      	subs	r3, r0, r2
20004ffa:	2b0f      	cmp	r3, #15
20004ffc:	ddde      	ble.n	20004fbc <_malloc_trim_r+0x38>
20004ffe:	4908      	ldr	r1, [pc, #32]	; (20005020 <_malloc_trim_r+0x9c>)
20005000:	6809      	ldr	r1, [r1, #0]
20005002:	1a40      	subs	r0, r0, r1
20005004:	4905      	ldr	r1, [pc, #20]	; (2000501c <_malloc_trim_r+0x98>)
20005006:	6008      	str	r0, [r1, #0]
20005008:	2101      	movs	r1, #1
2000500a:	430b      	orrs	r3, r1
2000500c:	6053      	str	r3, [r2, #4]
2000500e:	e7d5      	b.n	20004fbc <_malloc_trim_r+0x38>
20005010:	200060b8 	.word	0x200060b8
20005014:	00000fef 	.word	0x00000fef
20005018:	00000fff 	.word	0x00000fff
2000501c:	20006630 	.word	0x20006630
20005020:	200064c0 	.word	0x200064c0

20005024 <_free_r>:
20005024:	b5f8      	push	{r3, r4, r5, r6, r7, lr}
20005026:	0004      	movs	r4, r0
20005028:	1e0d      	subs	r5, r1, #0
2000502a:	d03c      	beq.n	200050a6 <_free_r+0x82>
2000502c:	f7ff fca6 	bl	2000497c <__malloc_lock>
20005030:	0029      	movs	r1, r5
20005032:	3908      	subs	r1, #8
20005034:	6848      	ldr	r0, [r1, #4]
20005036:	2301      	movs	r3, #1
20005038:	0005      	movs	r5, r0
2000503a:	2603      	movs	r6, #3
2000503c:	439d      	bics	r5, r3
2000503e:	194a      	adds	r2, r1, r5
20005040:	469c      	mov	ip, r3
20005042:	4f61      	ldr	r7, [pc, #388]	; (200051c8 <_free_r+0x1a4>)
20005044:	6853      	ldr	r3, [r2, #4]
20005046:	43b3      	bics	r3, r6
20005048:	68be      	ldr	r6, [r7, #8]
2000504a:	42b2      	cmp	r2, r6
2000504c:	d056      	beq.n	200050fc <_free_r+0xd8>
2000504e:	4666      	mov	r6, ip
20005050:	6053      	str	r3, [r2, #4]
20005052:	4206      	tst	r6, r0
20005054:	d10a      	bne.n	2000506c <_free_r+0x48>
20005056:	003e      	movs	r6, r7
20005058:	6808      	ldr	r0, [r1, #0]
2000505a:	3608      	adds	r6, #8
2000505c:	1a09      	subs	r1, r1, r0
2000505e:	182d      	adds	r5, r5, r0
20005060:	6888      	ldr	r0, [r1, #8]
20005062:	42b0      	cmp	r0, r6
20005064:	d065      	beq.n	20005132 <_free_r+0x10e>
20005066:	68ce      	ldr	r6, [r1, #12]
20005068:	60c6      	str	r6, [r0, #12]
2000506a:	60b0      	str	r0, [r6, #8]
2000506c:	2001      	movs	r0, #1
2000506e:	18d6      	adds	r6, r2, r3
20005070:	6876      	ldr	r6, [r6, #4]
20005072:	4206      	tst	r6, r0
20005074:	d033      	beq.n	200050de <_free_r+0xba>
20005076:	4b55      	ldr	r3, [pc, #340]	; (200051cc <_free_r+0x1a8>)
20005078:	4328      	orrs	r0, r5
2000507a:	6048      	str	r0, [r1, #4]
2000507c:	514d      	str	r5, [r1, r5]
2000507e:	429d      	cmp	r5, r3
20005080:	d812      	bhi.n	200050a8 <_free_r+0x84>
20005082:	08ed      	lsrs	r5, r5, #3
20005084:	3bff      	subs	r3, #255	; 0xff
20005086:	10aa      	asrs	r2, r5, #2
20005088:	3bff      	subs	r3, #255	; 0xff
2000508a:	4093      	lsls	r3, r2
2000508c:	687a      	ldr	r2, [r7, #4]
2000508e:	00ed      	lsls	r5, r5, #3
20005090:	4313      	orrs	r3, r2
20005092:	607b      	str	r3, [r7, #4]
20005094:	19ef      	adds	r7, r5, r7
20005096:	68bb      	ldr	r3, [r7, #8]
20005098:	60cf      	str	r7, [r1, #12]
2000509a:	608b      	str	r3, [r1, #8]
2000509c:	60b9      	str	r1, [r7, #8]
2000509e:	60d9      	str	r1, [r3, #12]
200050a0:	0020      	movs	r0, r4
200050a2:	f7ff fc6d 	bl	20004980 <__malloc_unlock>
200050a6:	bdf8      	pop	{r3, r4, r5, r6, r7, pc}
200050a8:	0a68      	lsrs	r0, r5, #9
200050aa:	2804      	cmp	r0, #4
200050ac:	d850      	bhi.n	20005150 <_free_r+0x12c>
200050ae:	09a8      	lsrs	r0, r5, #6
200050b0:	0002      	movs	r2, r0
200050b2:	3039      	adds	r0, #57	; 0x39
200050b4:	3238      	adds	r2, #56	; 0x38
200050b6:	00c0      	lsls	r0, r0, #3
200050b8:	1838      	adds	r0, r7, r0
200050ba:	3808      	subs	r0, #8
200050bc:	6883      	ldr	r3, [r0, #8]
200050be:	2603      	movs	r6, #3
200050c0:	4298      	cmp	r0, r3
200050c2:	d04c      	beq.n	2000515e <_free_r+0x13a>
200050c4:	685a      	ldr	r2, [r3, #4]
200050c6:	43b2      	bics	r2, r6
200050c8:	4295      	cmp	r5, r2
200050ca:	d230      	bcs.n	2000512e <_free_r+0x10a>
200050cc:	689b      	ldr	r3, [r3, #8]
200050ce:	4298      	cmp	r0, r3
200050d0:	d1f8      	bne.n	200050c4 <_free_r+0xa0>
200050d2:	68c3      	ldr	r3, [r0, #12]
200050d4:	60cb      	str	r3, [r1, #12]
200050d6:	6088      	str	r0, [r1, #8]
200050d8:	6099      	str	r1, [r3, #8]
200050da:	60c1      	str	r1, [r0, #12]
200050dc:	e7e0      	b.n	200050a0 <_free_r+0x7c>
200050de:	18ed      	adds	r5, r5, r3
200050e0:	4e3b      	ldr	r6, [pc, #236]	; (200051d0 <_free_r+0x1ac>)
200050e2:	6893      	ldr	r3, [r2, #8]
200050e4:	42b3      	cmp	r3, r6
200050e6:	d042      	beq.n	2000516e <_free_r+0x14a>
200050e8:	68d2      	ldr	r2, [r2, #12]
200050ea:	4328      	orrs	r0, r5
200050ec:	60da      	str	r2, [r3, #12]
200050ee:	6093      	str	r3, [r2, #8]
200050f0:	4b36      	ldr	r3, [pc, #216]	; (200051cc <_free_r+0x1a8>)
200050f2:	6048      	str	r0, [r1, #4]
200050f4:	514d      	str	r5, [r1, r5]
200050f6:	429d      	cmp	r5, r3
200050f8:	d8d6      	bhi.n	200050a8 <_free_r+0x84>
200050fa:	e7c2      	b.n	20005082 <_free_r+0x5e>
200050fc:	4662      	mov	r2, ip
200050fe:	18eb      	adds	r3, r5, r3
20005100:	4202      	tst	r2, r0
20005102:	d106      	bne.n	20005112 <_free_r+0xee>
20005104:	680a      	ldr	r2, [r1, #0]
20005106:	1a89      	subs	r1, r1, r2
20005108:	6888      	ldr	r0, [r1, #8]
2000510a:	189b      	adds	r3, r3, r2
2000510c:	68ca      	ldr	r2, [r1, #12]
2000510e:	60c2      	str	r2, [r0, #12]
20005110:	6090      	str	r0, [r2, #8]
20005112:	2201      	movs	r2, #1
20005114:	431a      	orrs	r2, r3
20005116:	604a      	str	r2, [r1, #4]
20005118:	4a2e      	ldr	r2, [pc, #184]	; (200051d4 <_free_r+0x1b0>)
2000511a:	60b9      	str	r1, [r7, #8]
2000511c:	6812      	ldr	r2, [r2, #0]
2000511e:	4293      	cmp	r3, r2
20005120:	d3be      	bcc.n	200050a0 <_free_r+0x7c>
20005122:	4b2d      	ldr	r3, [pc, #180]	; (200051d8 <_free_r+0x1b4>)
20005124:	0020      	movs	r0, r4
20005126:	6819      	ldr	r1, [r3, #0]
20005128:	f7ff ff2c 	bl	20004f84 <_malloc_trim_r>
2000512c:	e7b8      	b.n	200050a0 <_free_r+0x7c>
2000512e:	0018      	movs	r0, r3
20005130:	e7cf      	b.n	200050d2 <_free_r+0xae>
20005132:	4666      	mov	r6, ip
20005134:	18d0      	adds	r0, r2, r3
20005136:	6840      	ldr	r0, [r0, #4]
20005138:	4230      	tst	r0, r6
2000513a:	d13f      	bne.n	200051bc <_free_r+0x198>
2000513c:	6890      	ldr	r0, [r2, #8]
2000513e:	195d      	adds	r5, r3, r5
20005140:	68d3      	ldr	r3, [r2, #12]
20005142:	60c3      	str	r3, [r0, #12]
20005144:	6098      	str	r0, [r3, #8]
20005146:	4663      	mov	r3, ip
20005148:	432b      	orrs	r3, r5
2000514a:	604b      	str	r3, [r1, #4]
2000514c:	514d      	str	r5, [r1, r5]
2000514e:	e7a7      	b.n	200050a0 <_free_r+0x7c>
20005150:	2814      	cmp	r0, #20
20005152:	d814      	bhi.n	2000517e <_free_r+0x15a>
20005154:	0002      	movs	r2, r0
20005156:	305c      	adds	r0, #92	; 0x5c
20005158:	325b      	adds	r2, #91	; 0x5b
2000515a:	00c0      	lsls	r0, r0, #3
2000515c:	e7ac      	b.n	200050b8 <_free_r+0x94>
2000515e:	2301      	movs	r3, #1
20005160:	1092      	asrs	r2, r2, #2
20005162:	4093      	lsls	r3, r2
20005164:	687a      	ldr	r2, [r7, #4]
20005166:	4313      	orrs	r3, r2
20005168:	607b      	str	r3, [r7, #4]
2000516a:	0003      	movs	r3, r0
2000516c:	e7b2      	b.n	200050d4 <_free_r+0xb0>
2000516e:	4328      	orrs	r0, r5
20005170:	60d9      	str	r1, [r3, #12]
20005172:	6099      	str	r1, [r3, #8]
20005174:	60cb      	str	r3, [r1, #12]
20005176:	608b      	str	r3, [r1, #8]
20005178:	6048      	str	r0, [r1, #4]
2000517a:	514d      	str	r5, [r1, r5]
2000517c:	e790      	b.n	200050a0 <_free_r+0x7c>
2000517e:	2854      	cmp	r0, #84	; 0x54
20005180:	d805      	bhi.n	2000518e <_free_r+0x16a>
20005182:	0b28      	lsrs	r0, r5, #12
20005184:	0002      	movs	r2, r0
20005186:	306f      	adds	r0, #111	; 0x6f
20005188:	326e      	adds	r2, #110	; 0x6e
2000518a:	00c0      	lsls	r0, r0, #3
2000518c:	e794      	b.n	200050b8 <_free_r+0x94>
2000518e:	22aa      	movs	r2, #170	; 0xaa
20005190:	0052      	lsls	r2, r2, #1
20005192:	4290      	cmp	r0, r2
20005194:	d805      	bhi.n	200051a2 <_free_r+0x17e>
20005196:	0be8      	lsrs	r0, r5, #15
20005198:	0002      	movs	r2, r0
2000519a:	3078      	adds	r0, #120	; 0x78
2000519c:	3277      	adds	r2, #119	; 0x77
2000519e:	00c0      	lsls	r0, r0, #3
200051a0:	e78a      	b.n	200050b8 <_free_r+0x94>
200051a2:	4a0e      	ldr	r2, [pc, #56]	; (200051dc <_free_r+0x1b8>)
200051a4:	4290      	cmp	r0, r2
200051a6:	d805      	bhi.n	200051b4 <_free_r+0x190>
200051a8:	0ca8      	lsrs	r0, r5, #18
200051aa:	0002      	movs	r2, r0
200051ac:	307d      	adds	r0, #125	; 0x7d
200051ae:	327c      	adds	r2, #124	; 0x7c
200051b0:	00c0      	lsls	r0, r0, #3
200051b2:	e781      	b.n	200050b8 <_free_r+0x94>
200051b4:	20fe      	movs	r0, #254	; 0xfe
200051b6:	227e      	movs	r2, #126	; 0x7e
200051b8:	0080      	lsls	r0, r0, #2
200051ba:	e77d      	b.n	200050b8 <_free_r+0x94>
200051bc:	4663      	mov	r3, ip
200051be:	432b      	orrs	r3, r5
200051c0:	604b      	str	r3, [r1, #4]
200051c2:	6015      	str	r5, [r2, #0]
200051c4:	e76c      	b.n	200050a0 <_free_r+0x7c>
200051c6:	46c0      	nop			; (mov r8, r8)
200051c8:	200060b8 	.word	0x200060b8
200051cc:	000001ff 	.word	0x000001ff
200051d0:	200060c0 	.word	0x200060c0
200051d4:	200064c4 	.word	0x200064c4
200051d8:	2000662c 	.word	0x2000662c
200051dc:	00000554 	.word	0x00000554

200051e0 <_fwalk>:
200051e0:	23b8      	movs	r3, #184	; 0xb8
200051e2:	b5f0      	push	{r4, r5, r6, r7, lr}
200051e4:	46c6      	mov	lr, r8
200051e6:	009b      	lsls	r3, r3, #2
200051e8:	18c7      	adds	r7, r0, r3
200051ea:	b500      	push	{lr}
200051ec:	4688      	mov	r8, r1
200051ee:	2600      	movs	r6, #0
200051f0:	2f00      	cmp	r7, #0
200051f2:	d013      	beq.n	2000521c <_fwalk+0x3c>
200051f4:	687b      	ldr	r3, [r7, #4]
200051f6:	68bc      	ldr	r4, [r7, #8]
200051f8:	1e5d      	subs	r5, r3, #1
200051fa:	d40c      	bmi.n	20005216 <_fwalk+0x36>
200051fc:	89a3      	ldrh	r3, [r4, #12]
200051fe:	2b01      	cmp	r3, #1
20005200:	d906      	bls.n	20005210 <_fwalk+0x30>
20005202:	220e      	movs	r2, #14
20005204:	5ea3      	ldrsh	r3, [r4, r2]
20005206:	3301      	adds	r3, #1
20005208:	d002      	beq.n	20005210 <_fwalk+0x30>
2000520a:	0020      	movs	r0, r4
2000520c:	47c0      	blx	r8
2000520e:	4306      	orrs	r6, r0
20005210:	3468      	adds	r4, #104	; 0x68
20005212:	3d01      	subs	r5, #1
20005214:	d2f2      	bcs.n	200051fc <_fwalk+0x1c>
20005216:	683f      	ldr	r7, [r7, #0]
20005218:	2f00      	cmp	r7, #0
2000521a:	d1eb      	bne.n	200051f4 <_fwalk+0x14>
2000521c:	0030      	movs	r0, r6
2000521e:	bc04      	pop	{r2}
20005220:	4690      	mov	r8, r2
20005222:	bdf0      	pop	{r4, r5, r6, r7, pc}

20005224 <_fwalk_reent>:
20005224:	b5f8      	push	{r3, r4, r5, r6, r7, lr}
20005226:	4647      	mov	r7, r8
20005228:	46ce      	mov	lr, r9
2000522a:	b580      	push	{r7, lr}
2000522c:	27b8      	movs	r7, #184	; 0xb8
2000522e:	4680      	mov	r8, r0
20005230:	00bf      	lsls	r7, r7, #2
20005232:	4447      	add	r7, r8
20005234:	4689      	mov	r9, r1
20005236:	2600      	movs	r6, #0
20005238:	2f00      	cmp	r7, #0
2000523a:	d014      	beq.n	20005266 <_fwalk_reent+0x42>
2000523c:	687b      	ldr	r3, [r7, #4]
2000523e:	68bc      	ldr	r4, [r7, #8]
20005240:	1e5d      	subs	r5, r3, #1
20005242:	d40d      	bmi.n	20005260 <_fwalk_reent+0x3c>
20005244:	89a3      	ldrh	r3, [r4, #12]
20005246:	2b01      	cmp	r3, #1
20005248:	d907      	bls.n	2000525a <_fwalk_reent+0x36>
2000524a:	220e      	movs	r2, #14
2000524c:	5ea3      	ldrsh	r3, [r4, r2]
2000524e:	3301      	adds	r3, #1
20005250:	d003      	beq.n	2000525a <_fwalk_reent+0x36>
20005252:	0021      	movs	r1, r4
20005254:	4640      	mov	r0, r8
20005256:	47c8      	blx	r9
20005258:	4306      	orrs	r6, r0
2000525a:	3468      	adds	r4, #104	; 0x68
2000525c:	3d01      	subs	r5, #1
2000525e:	d2f1      	bcs.n	20005244 <_fwalk_reent+0x20>
20005260:	683f      	ldr	r7, [r7, #0]
20005262:	2f00      	cmp	r7, #0
20005264:	d1ea      	bne.n	2000523c <_fwalk_reent+0x18>
20005266:	0030      	movs	r0, r6
20005268:	bc0c      	pop	{r2, r3}
2000526a:	4690      	mov	r8, r2
2000526c:	4699      	mov	r9, r3
2000526e:	bdf8      	pop	{r3, r4, r5, r6, r7, pc}

20005270 <__swhatbuf_r>:
20005270:	b570      	push	{r4, r5, r6, lr}
20005272:	000c      	movs	r4, r1
20005274:	001e      	movs	r6, r3
20005276:	230e      	movs	r3, #14
20005278:	5ec9      	ldrsh	r1, [r1, r3]
2000527a:	b090      	sub	sp, #64	; 0x40
2000527c:	0015      	movs	r5, r2
2000527e:	2900      	cmp	r1, #0
20005280:	db15      	blt.n	200052ae <__swhatbuf_r+0x3e>
20005282:	aa01      	add	r2, sp, #4
20005284:	f000 f92e 	bl	200054e4 <_fstat_r>
20005288:	2800      	cmp	r0, #0
2000528a:	db10      	blt.n	200052ae <__swhatbuf_r+0x3e>
2000528c:	22f0      	movs	r2, #240	; 0xf0
2000528e:	9b02      	ldr	r3, [sp, #8]
20005290:	0212      	lsls	r2, r2, #8
20005292:	4013      	ands	r3, r2
20005294:	4a0d      	ldr	r2, [pc, #52]	; (200052cc <__swhatbuf_r+0x5c>)
20005296:	2080      	movs	r0, #128	; 0x80
20005298:	4694      	mov	ip, r2
2000529a:	4463      	add	r3, ip
2000529c:	425a      	negs	r2, r3
2000529e:	4153      	adcs	r3, r2
200052a0:	6033      	str	r3, [r6, #0]
200052a2:	2380      	movs	r3, #128	; 0x80
200052a4:	00db      	lsls	r3, r3, #3
200052a6:	602b      	str	r3, [r5, #0]
200052a8:	0100      	lsls	r0, r0, #4
200052aa:	b010      	add	sp, #64	; 0x40
200052ac:	bd70      	pop	{r4, r5, r6, pc}
200052ae:	2300      	movs	r3, #0
200052b0:	6033      	str	r3, [r6, #0]
200052b2:	89a3      	ldrh	r3, [r4, #12]
200052b4:	061b      	lsls	r3, r3, #24
200052b6:	d503      	bpl.n	200052c0 <__swhatbuf_r+0x50>
200052b8:	2340      	movs	r3, #64	; 0x40
200052ba:	2000      	movs	r0, #0
200052bc:	602b      	str	r3, [r5, #0]
200052be:	e7f4      	b.n	200052aa <__swhatbuf_r+0x3a>
200052c0:	2380      	movs	r3, #128	; 0x80
200052c2:	00db      	lsls	r3, r3, #3
200052c4:	602b      	str	r3, [r5, #0]
200052c6:	2000      	movs	r0, #0
200052c8:	e7ef      	b.n	200052aa <__swhatbuf_r+0x3a>
200052ca:	46c0      	nop			; (mov r8, r8)
200052cc:	ffffe000 	.word	0xffffe000

200052d0 <__smakebuf_r>:
200052d0:	b570      	push	{r4, r5, r6, lr}
200052d2:	898b      	ldrh	r3, [r1, #12]
200052d4:	b082      	sub	sp, #8
200052d6:	0005      	movs	r5, r0
200052d8:	000c      	movs	r4, r1
200052da:	079b      	lsls	r3, r3, #30
200052dc:	d507      	bpl.n	200052ee <__smakebuf_r+0x1e>
200052de:	0023      	movs	r3, r4
200052e0:	3343      	adds	r3, #67	; 0x43
200052e2:	6023      	str	r3, [r4, #0]
200052e4:	6123      	str	r3, [r4, #16]
200052e6:	2301      	movs	r3, #1
200052e8:	6163      	str	r3, [r4, #20]
200052ea:	b002      	add	sp, #8
200052ec:	bd70      	pop	{r4, r5, r6, pc}
200052ee:	ab01      	add	r3, sp, #4
200052f0:	466a      	mov	r2, sp
200052f2:	f7ff ffbd 	bl	20005270 <__swhatbuf_r>
200052f6:	9900      	ldr	r1, [sp, #0]
200052f8:	0006      	movs	r6, r0
200052fa:	0028      	movs	r0, r5
200052fc:	f7ff f892 	bl	20004424 <_malloc_r>
20005300:	2800      	cmp	r0, #0
20005302:	d01c      	beq.n	2000533e <__smakebuf_r+0x6e>
20005304:	2280      	movs	r2, #128	; 0x80
20005306:	4b13      	ldr	r3, [pc, #76]	; (20005354 <__smakebuf_r+0x84>)
20005308:	63eb      	str	r3, [r5, #60]	; 0x3c
2000530a:	89a3      	ldrh	r3, [r4, #12]
2000530c:	6020      	str	r0, [r4, #0]
2000530e:	4313      	orrs	r3, r2
20005310:	9a00      	ldr	r2, [sp, #0]
20005312:	b21b      	sxth	r3, r3
20005314:	6162      	str	r2, [r4, #20]
20005316:	9a01      	ldr	r2, [sp, #4]
20005318:	81a3      	strh	r3, [r4, #12]
2000531a:	6120      	str	r0, [r4, #16]
2000531c:	2a00      	cmp	r2, #0
2000531e:	d102      	bne.n	20005326 <__smakebuf_r+0x56>
20005320:	4333      	orrs	r3, r6
20005322:	81a3      	strh	r3, [r4, #12]
20005324:	e7e1      	b.n	200052ea <__smakebuf_r+0x1a>
20005326:	230e      	movs	r3, #14
20005328:	5ee1      	ldrsh	r1, [r4, r3]
2000532a:	0028      	movs	r0, r5
2000532c:	f000 f8ee 	bl	2000550c <_isatty_r>
20005330:	2800      	cmp	r0, #0
20005332:	d00c      	beq.n	2000534e <__smakebuf_r+0x7e>
20005334:	2201      	movs	r2, #1
20005336:	89a3      	ldrh	r3, [r4, #12]
20005338:	4313      	orrs	r3, r2
2000533a:	b21b      	sxth	r3, r3
2000533c:	e7f0      	b.n	20005320 <__smakebuf_r+0x50>
2000533e:	220c      	movs	r2, #12
20005340:	5ea3      	ldrsh	r3, [r4, r2]
20005342:	059a      	lsls	r2, r3, #22
20005344:	d4d1      	bmi.n	200052ea <__smakebuf_r+0x1a>
20005346:	2202      	movs	r2, #2
20005348:	4313      	orrs	r3, r2
2000534a:	81a3      	strh	r3, [r4, #12]
2000534c:	e7c7      	b.n	200052de <__smakebuf_r+0xe>
2000534e:	220c      	movs	r2, #12
20005350:	5ea3      	ldrsh	r3, [r4, r2]
20005352:	e7e5      	b.n	20005320 <__smakebuf_r+0x50>
20005354:	20004d5d 	.word	0x20004d5d

20005358 <__sread>:
20005358:	b570      	push	{r4, r5, r6, lr}
2000535a:	000c      	movs	r4, r1
2000535c:	250e      	movs	r5, #14
2000535e:	5f49      	ldrsh	r1, [r1, r5]
20005360:	f000 f8fa 	bl	20005558 <_read_r>
20005364:	2800      	cmp	r0, #0
20005366:	db03      	blt.n	20005370 <__sread+0x18>
20005368:	6d23      	ldr	r3, [r4, #80]	; 0x50
2000536a:	181b      	adds	r3, r3, r0
2000536c:	6523      	str	r3, [r4, #80]	; 0x50
2000536e:	bd70      	pop	{r4, r5, r6, pc}
20005370:	89a3      	ldrh	r3, [r4, #12]
20005372:	4a02      	ldr	r2, [pc, #8]	; (2000537c <__sread+0x24>)
20005374:	4013      	ands	r3, r2
20005376:	81a3      	strh	r3, [r4, #12]
20005378:	e7f9      	b.n	2000536e <__sread+0x16>
2000537a:	46c0      	nop			; (mov r8, r8)
2000537c:	ffffefff 	.word	0xffffefff

20005380 <__seofread>:
20005380:	2000      	movs	r0, #0
20005382:	4770      	bx	lr

20005384 <__swrite>:
20005384:	b5f8      	push	{r3, r4, r5, r6, r7, lr}
20005386:	0016      	movs	r6, r2
20005388:	001f      	movs	r7, r3
2000538a:	220c      	movs	r2, #12
2000538c:	5e8b      	ldrsh	r3, [r1, r2]
2000538e:	0005      	movs	r5, r0
20005390:	000c      	movs	r4, r1
20005392:	05da      	lsls	r2, r3, #23
20005394:	d507      	bpl.n	200053a6 <__swrite+0x22>
20005396:	230e      	movs	r3, #14
20005398:	5ec9      	ldrsh	r1, [r1, r3]
2000539a:	2200      	movs	r2, #0
2000539c:	2302      	movs	r3, #2
2000539e:	f000 f8c7 	bl	20005530 <_lseek_r>
200053a2:	220c      	movs	r2, #12
200053a4:	5ea3      	ldrsh	r3, [r4, r2]
200053a6:	4a05      	ldr	r2, [pc, #20]	; (200053bc <__swrite+0x38>)
200053a8:	0028      	movs	r0, r5
200053aa:	4013      	ands	r3, r2
200053ac:	81a3      	strh	r3, [r4, #12]
200053ae:	0032      	movs	r2, r6
200053b0:	230e      	movs	r3, #14
200053b2:	5ee1      	ldrsh	r1, [r4, r3]
200053b4:	003b      	movs	r3, r7
200053b6:	f000 f81f 	bl	200053f8 <_write_r>
200053ba:	bdf8      	pop	{r3, r4, r5, r6, r7, pc}
200053bc:	ffffefff 	.word	0xffffefff

200053c0 <__sseek>:
200053c0:	b570      	push	{r4, r5, r6, lr}
200053c2:	000c      	movs	r4, r1
200053c4:	250e      	movs	r5, #14
200053c6:	5f49      	ldrsh	r1, [r1, r5]
200053c8:	f000 f8b2 	bl	20005530 <_lseek_r>
200053cc:	1c43      	adds	r3, r0, #1
200053ce:	d006      	beq.n	200053de <__sseek+0x1e>
200053d0:	2380      	movs	r3, #128	; 0x80
200053d2:	89a2      	ldrh	r2, [r4, #12]
200053d4:	015b      	lsls	r3, r3, #5
200053d6:	4313      	orrs	r3, r2
200053d8:	81a3      	strh	r3, [r4, #12]
200053da:	6520      	str	r0, [r4, #80]	; 0x50
200053dc:	bd70      	pop	{r4, r5, r6, pc}
200053de:	89a3      	ldrh	r3, [r4, #12]
200053e0:	4a01      	ldr	r2, [pc, #4]	; (200053e8 <__sseek+0x28>)
200053e2:	4013      	ands	r3, r2
200053e4:	81a3      	strh	r3, [r4, #12]
200053e6:	e7f9      	b.n	200053dc <__sseek+0x1c>
200053e8:	ffffefff 	.word	0xffffefff

200053ec <__sclose>:
200053ec:	b510      	push	{r4, lr}
200053ee:	230e      	movs	r3, #14
200053f0:	5ec9      	ldrsh	r1, [r1, r3]
200053f2:	f000 f815 	bl	20005420 <_close_r>
200053f6:	bd10      	pop	{r4, pc}

200053f8 <_write_r>:
200053f8:	b570      	push	{r4, r5, r6, lr}
200053fa:	0005      	movs	r5, r0
200053fc:	0008      	movs	r0, r1
200053fe:	0011      	movs	r1, r2
20005400:	2200      	movs	r2, #0
20005402:	4c06      	ldr	r4, [pc, #24]	; (2000541c <_write_r+0x24>)
20005404:	6022      	str	r2, [r4, #0]
20005406:	001a      	movs	r2, r3
20005408:	f7fe feb4 	bl	20004174 <_write>
2000540c:	1c43      	adds	r3, r0, #1
2000540e:	d000      	beq.n	20005412 <_write_r+0x1a>
20005410:	bd70      	pop	{r4, r5, r6, pc}
20005412:	6823      	ldr	r3, [r4, #0]
20005414:	2b00      	cmp	r3, #0
20005416:	d0fb      	beq.n	20005410 <_write_r+0x18>
20005418:	602b      	str	r3, [r5, #0]
2000541a:	e7f9      	b.n	20005410 <_write_r+0x18>
2000541c:	20006a24 	.word	0x20006a24

20005420 <_close_r>:
20005420:	2300      	movs	r3, #0
20005422:	b570      	push	{r4, r5, r6, lr}
20005424:	4c06      	ldr	r4, [pc, #24]	; (20005440 <_close_r+0x20>)
20005426:	0005      	movs	r5, r0
20005428:	0008      	movs	r0, r1
2000542a:	6023      	str	r3, [r4, #0]
2000542c:	f000 f8a8 	bl	20005580 <_close>
20005430:	1c43      	adds	r3, r0, #1
20005432:	d000      	beq.n	20005436 <_close_r+0x16>
20005434:	bd70      	pop	{r4, r5, r6, pc}
20005436:	6823      	ldr	r3, [r4, #0]
20005438:	2b00      	cmp	r3, #0
2000543a:	d0fb      	beq.n	20005434 <_close_r+0x14>
2000543c:	602b      	str	r3, [r5, #0]
2000543e:	e7f9      	b.n	20005434 <_close_r+0x14>
20005440:	20006a24 	.word	0x20006a24

20005444 <_fclose_r>:
20005444:	b570      	push	{r4, r5, r6, lr}
20005446:	0005      	movs	r5, r0
20005448:	1e0c      	subs	r4, r1, #0
2000544a:	d008      	beq.n	2000545e <_fclose_r+0x1a>
2000544c:	2800      	cmp	r0, #0
2000544e:	d002      	beq.n	20005456 <_fclose_r+0x12>
20005450:	6b83      	ldr	r3, [r0, #56]	; 0x38
20005452:	2b00      	cmp	r3, #0
20005454:	d031      	beq.n	200054ba <_fclose_r+0x76>
20005456:	220c      	movs	r2, #12
20005458:	5ea3      	ldrsh	r3, [r4, r2]
2000545a:	2b00      	cmp	r3, #0
2000545c:	d102      	bne.n	20005464 <_fclose_r+0x20>
2000545e:	2600      	movs	r6, #0
20005460:	0030      	movs	r0, r6
20005462:	bd70      	pop	{r4, r5, r6, pc}
20005464:	0021      	movs	r1, r4
20005466:	0028      	movs	r0, r5
20005468:	f7ff fba4 	bl	20004bb4 <__sflush_r>
2000546c:	6ae3      	ldr	r3, [r4, #44]	; 0x2c
2000546e:	0006      	movs	r6, r0
20005470:	2b00      	cmp	r3, #0
20005472:	d004      	beq.n	2000547e <_fclose_r+0x3a>
20005474:	69e1      	ldr	r1, [r4, #28]
20005476:	0028      	movs	r0, r5
20005478:	4798      	blx	r3
2000547a:	2800      	cmp	r0, #0
2000547c:	db20      	blt.n	200054c0 <_fclose_r+0x7c>
2000547e:	89a3      	ldrh	r3, [r4, #12]
20005480:	061b      	lsls	r3, r3, #24
20005482:	d420      	bmi.n	200054c6 <_fclose_r+0x82>
20005484:	6b21      	ldr	r1, [r4, #48]	; 0x30
20005486:	2900      	cmp	r1, #0
20005488:	d008      	beq.n	2000549c <_fclose_r+0x58>
2000548a:	0023      	movs	r3, r4
2000548c:	3340      	adds	r3, #64	; 0x40
2000548e:	4299      	cmp	r1, r3
20005490:	d002      	beq.n	20005498 <_fclose_r+0x54>
20005492:	0028      	movs	r0, r5
20005494:	f7ff fdc6 	bl	20005024 <_free_r>
20005498:	2300      	movs	r3, #0
2000549a:	6323      	str	r3, [r4, #48]	; 0x30
2000549c:	6c61      	ldr	r1, [r4, #68]	; 0x44
2000549e:	2900      	cmp	r1, #0
200054a0:	d004      	beq.n	200054ac <_fclose_r+0x68>
200054a2:	0028      	movs	r0, r5
200054a4:	f7ff fdbe 	bl	20005024 <_free_r>
200054a8:	2300      	movs	r3, #0
200054aa:	6463      	str	r3, [r4, #68]	; 0x44
200054ac:	f7ff fd4a 	bl	20004f44 <__sfp_lock_acquire>
200054b0:	2300      	movs	r3, #0
200054b2:	81a3      	strh	r3, [r4, #12]
200054b4:	f7ff fd48 	bl	20004f48 <__sfp_lock_release>
200054b8:	e7d2      	b.n	20005460 <_fclose_r+0x1c>
200054ba:	f7ff fd3b 	bl	20004f34 <__sinit>
200054be:	e7ca      	b.n	20005456 <_fclose_r+0x12>
200054c0:	2601      	movs	r6, #1
200054c2:	4276      	negs	r6, r6
200054c4:	e7db      	b.n	2000547e <_fclose_r+0x3a>
200054c6:	6921      	ldr	r1, [r4, #16]
200054c8:	0028      	movs	r0, r5
200054ca:	f7ff fdab 	bl	20005024 <_free_r>
200054ce:	e7d9      	b.n	20005484 <_fclose_r+0x40>

200054d0 <fclose>:
200054d0:	b510      	push	{r4, lr}
200054d2:	4b03      	ldr	r3, [pc, #12]	; (200054e0 <fclose+0x10>)
200054d4:	0001      	movs	r1, r0
200054d6:	6818      	ldr	r0, [r3, #0]
200054d8:	f7ff ffb4 	bl	20005444 <_fclose_r>
200054dc:	bd10      	pop	{r4, pc}
200054de:	46c0      	nop			; (mov r8, r8)
200054e0:	20005c88 	.word	0x20005c88

200054e4 <_fstat_r>:
200054e4:	2300      	movs	r3, #0
200054e6:	b570      	push	{r4, r5, r6, lr}
200054e8:	4c07      	ldr	r4, [pc, #28]	; (20005508 <_fstat_r+0x24>)
200054ea:	0005      	movs	r5, r0
200054ec:	0008      	movs	r0, r1
200054ee:	0011      	movs	r1, r2
200054f0:	6023      	str	r3, [r4, #0]
200054f2:	f000 f84d 	bl	20005590 <_fstat>
200054f6:	1c43      	adds	r3, r0, #1
200054f8:	d000      	beq.n	200054fc <_fstat_r+0x18>
200054fa:	bd70      	pop	{r4, r5, r6, pc}
200054fc:	6823      	ldr	r3, [r4, #0]
200054fe:	2b00      	cmp	r3, #0
20005500:	d0fb      	beq.n	200054fa <_fstat_r+0x16>
20005502:	602b      	str	r3, [r5, #0]
20005504:	e7f9      	b.n	200054fa <_fstat_r+0x16>
20005506:	46c0      	nop			; (mov r8, r8)
20005508:	20006a24 	.word	0x20006a24

2000550c <_isatty_r>:
2000550c:	2300      	movs	r3, #0
2000550e:	b570      	push	{r4, r5, r6, lr}
20005510:	4c06      	ldr	r4, [pc, #24]	; (2000552c <_isatty_r+0x20>)
20005512:	0005      	movs	r5, r0
20005514:	0008      	movs	r0, r1
20005516:	6023      	str	r3, [r4, #0]
20005518:	f000 f842 	bl	200055a0 <_isatty>
2000551c:	1c43      	adds	r3, r0, #1
2000551e:	d000      	beq.n	20005522 <_isatty_r+0x16>
20005520:	bd70      	pop	{r4, r5, r6, pc}
20005522:	6823      	ldr	r3, [r4, #0]
20005524:	2b00      	cmp	r3, #0
20005526:	d0fb      	beq.n	20005520 <_isatty_r+0x14>
20005528:	602b      	str	r3, [r5, #0]
2000552a:	e7f9      	b.n	20005520 <_isatty_r+0x14>
2000552c:	20006a24 	.word	0x20006a24

20005530 <_lseek_r>:
20005530:	b570      	push	{r4, r5, r6, lr}
20005532:	0005      	movs	r5, r0
20005534:	0008      	movs	r0, r1
20005536:	0011      	movs	r1, r2
20005538:	2200      	movs	r2, #0
2000553a:	4c06      	ldr	r4, [pc, #24]	; (20005554 <_lseek_r+0x24>)
2000553c:	6022      	str	r2, [r4, #0]
2000553e:	001a      	movs	r2, r3
20005540:	f000 f836 	bl	200055b0 <_lseek>
20005544:	1c43      	adds	r3, r0, #1
20005546:	d000      	beq.n	2000554a <_lseek_r+0x1a>
20005548:	bd70      	pop	{r4, r5, r6, pc}
2000554a:	6823      	ldr	r3, [r4, #0]
2000554c:	2b00      	cmp	r3, #0
2000554e:	d0fb      	beq.n	20005548 <_lseek_r+0x18>
20005550:	602b      	str	r3, [r5, #0]
20005552:	e7f9      	b.n	20005548 <_lseek_r+0x18>
20005554:	20006a24 	.word	0x20006a24

20005558 <_read_r>:
20005558:	b570      	push	{r4, r5, r6, lr}
2000555a:	0005      	movs	r5, r0
2000555c:	0008      	movs	r0, r1
2000555e:	0011      	movs	r1, r2
20005560:	2200      	movs	r2, #0
20005562:	4c06      	ldr	r4, [pc, #24]	; (2000557c <_read_r+0x24>)
20005564:	6022      	str	r2, [r4, #0]
20005566:	001a      	movs	r2, r3
20005568:	f7fe fdbc 	bl	200040e4 <_read>
2000556c:	1c43      	adds	r3, r0, #1
2000556e:	d000      	beq.n	20005572 <_read_r+0x1a>
20005570:	bd70      	pop	{r4, r5, r6, pc}
20005572:	6823      	ldr	r3, [r4, #0]
20005574:	2b00      	cmp	r3, #0
20005576:	d0fb      	beq.n	20005570 <_read_r+0x18>
20005578:	602b      	str	r3, [r5, #0]
2000557a:	e7f9      	b.n	20005570 <_read_r+0x18>
2000557c:	20006a24 	.word	0x20006a24

20005580 <_close>:
20005580:	2258      	movs	r2, #88	; 0x58
20005582:	2001      	movs	r0, #1
20005584:	4b01      	ldr	r3, [pc, #4]	; (2000558c <_close+0xc>)
20005586:	4240      	negs	r0, r0
20005588:	601a      	str	r2, [r3, #0]
2000558a:	4770      	bx	lr
2000558c:	20006a24 	.word	0x20006a24

20005590 <_fstat>:
20005590:	2258      	movs	r2, #88	; 0x58
20005592:	2001      	movs	r0, #1
20005594:	4b01      	ldr	r3, [pc, #4]	; (2000559c <_fstat+0xc>)
20005596:	4240      	negs	r0, r0
20005598:	601a      	str	r2, [r3, #0]
2000559a:	4770      	bx	lr
2000559c:	20006a24 	.word	0x20006a24

200055a0 <_isatty>:
200055a0:	2258      	movs	r2, #88	; 0x58
200055a2:	4b02      	ldr	r3, [pc, #8]	; (200055ac <_isatty+0xc>)
200055a4:	2000      	movs	r0, #0
200055a6:	601a      	str	r2, [r3, #0]
200055a8:	4770      	bx	lr
200055aa:	46c0      	nop			; (mov r8, r8)
200055ac:	20006a24 	.word	0x20006a24

200055b0 <_lseek>:
200055b0:	2258      	movs	r2, #88	; 0x58
200055b2:	2001      	movs	r0, #1
200055b4:	4b01      	ldr	r3, [pc, #4]	; (200055bc <_lseek+0xc>)
200055b6:	4240      	negs	r0, r0
200055b8:	601a      	str	r2, [r3, #0]
200055ba:	4770      	bx	lr
200055bc:	20006a24 	.word	0x20006a24

200055c0 <_fini>:
200055c0:	b5f8      	push	{r3, r4, r5, r6, r7, lr}
200055c2:	46c0      	nop			; (mov r8, r8)
200055c4:	0000      	movs	r0, r0
	...

200055c8 <____get_current_exception_veneer>:
200055c8:	b401      	push	{r0}
200055ca:	4802      	ldr	r0, [pc, #8]	; (200055d4 <____get_current_exception_veneer+0xc>)
200055cc:	4684      	mov	ip, r0
200055ce:	bc01      	pop	{r0}
200055d0:	4760      	bx	ip
200055d2:	bf00      	nop
200055d4:	10000273 	.word	0x10000273

Disassembly of section .data:

200055e0 <mutex_enter_blocking>:
200055e0:	23d0      	movs	r3, #208	; 0xd0
200055e2:	b530      	push	{r4, r5, lr}
200055e4:	2500      	movs	r5, #0
200055e6:	061b      	lsls	r3, r3, #24
200055e8:	575d      	ldrsb	r5, [r3, r5]
200055ea:	2400      	movs	r4, #0
200055ec:	e006      	b.n	200055fc <mutex_enter_blocking+0x1c>
200055ee:	6803      	ldr	r3, [r0, #0]
200055f0:	f3bf 8f5f 	dmb	sy
200055f4:	601c      	str	r4, [r3, #0]
200055f6:	f381 8810 	msr	PRIMASK, r1
200055fa:	bf20      	wfe
200055fc:	6802      	ldr	r2, [r0, #0]
200055fe:	f3ef 8110 	mrs	r1, PRIMASK
20005602:	b672      	cpsid	i
20005604:	6813      	ldr	r3, [r2, #0]
20005606:	2b00      	cmp	r3, #0
20005608:	d0fc      	beq.n	20005604 <mutex_enter_blocking+0x24>
2000560a:	f3bf 8f5f 	dmb	sy
2000560e:	7903      	ldrb	r3, [r0, #4]
20005610:	2b7f      	cmp	r3, #127	; 0x7f
20005612:	d9ec      	bls.n	200055ee <mutex_enter_blocking+0xe>
20005614:	7105      	strb	r5, [r0, #4]
20005616:	6803      	ldr	r3, [r0, #0]
20005618:	f3bf 8f5f 	dmb	sy
2000561c:	2200      	movs	r2, #0
2000561e:	601a      	str	r2, [r3, #0]
20005620:	f381 8810 	msr	PRIMASK, r1
20005624:	bd30      	pop	{r4, r5, pc}
20005626:	46c0      	nop			; (mov r8, r8)

20005628 <mutex_try_enter>:
20005628:	0003      	movs	r3, r0
2000562a:	b510      	push	{r4, lr}
2000562c:	6800      	ldr	r0, [r0, #0]
2000562e:	f3ef 8410 	mrs	r4, PRIMASK
20005632:	b672      	cpsid	i
20005634:	6802      	ldr	r2, [r0, #0]
20005636:	2a00      	cmp	r2, #0
20005638:	d0fc      	beq.n	20005634 <mutex_try_enter+0xc>
2000563a:	f3bf 8f5f 	dmb	sy
2000563e:	2204      	movs	r2, #4
20005640:	569a      	ldrsb	r2, [r3, r2]
20005642:	2a00      	cmp	r2, #0
20005644:	db0b      	blt.n	2000565e <mutex_try_enter+0x36>
20005646:	2900      	cmp	r1, #0
20005648:	d00f      	beq.n	2000566a <mutex_try_enter+0x42>
2000564a:	2000      	movs	r0, #0
2000564c:	600a      	str	r2, [r1, #0]
2000564e:	681b      	ldr	r3, [r3, #0]
20005650:	f3bf 8f5f 	dmb	sy
20005654:	2200      	movs	r2, #0
20005656:	601a      	str	r2, [r3, #0]
20005658:	f384 8810 	msr	PRIMASK, r4
2000565c:	bd10      	pop	{r4, pc}
2000565e:	22d0      	movs	r2, #208	; 0xd0
20005660:	0612      	lsls	r2, r2, #24
20005662:	6812      	ldr	r2, [r2, #0]
20005664:	2001      	movs	r0, #1
20005666:	711a      	strb	r2, [r3, #4]
20005668:	e7f1      	b.n	2000564e <mutex_try_enter+0x26>
2000566a:	2000      	movs	r0, #0
2000566c:	e7ef      	b.n	2000564e <mutex_try_enter+0x26>
2000566e:	46c0      	nop			; (mov r8, r8)

20005670 <recursive_mutex_try_enter>:
20005670:	22d0      	movs	r2, #208	; 0xd0
20005672:	0003      	movs	r3, r0
20005674:	2000      	movs	r0, #0
20005676:	0612      	lsls	r2, r2, #24
20005678:	b530      	push	{r4, r5, lr}
2000567a:	5610      	ldrsb	r0, [r2, r0]
2000567c:	681c      	ldr	r4, [r3, #0]
2000567e:	f3ef 8510 	mrs	r5, PRIMASK
20005682:	b672      	cpsid	i
20005684:	6822      	ldr	r2, [r4, #0]
20005686:	2a00      	cmp	r2, #0
20005688:	d0fc      	beq.n	20005684 <recursive_mutex_try_enter+0x14>
2000568a:	f3bf 8f5f 	dmb	sy
2000568e:	2204      	movs	r2, #4
20005690:	569a      	ldrsb	r2, [r3, r2]
20005692:	2a00      	cmp	r2, #0
20005694:	db0d      	blt.n	200056b2 <recursive_mutex_try_enter+0x42>
20005696:	4290      	cmp	r0, r2
20005698:	d00b      	beq.n	200056b2 <recursive_mutex_try_enter+0x42>
2000569a:	2900      	cmp	r1, #0
2000569c:	d00f      	beq.n	200056be <recursive_mutex_try_enter+0x4e>
2000569e:	2000      	movs	r0, #0
200056a0:	600a      	str	r2, [r1, #0]
200056a2:	681b      	ldr	r3, [r3, #0]
200056a4:	f3bf 8f5f 	dmb	sy
200056a8:	2200      	movs	r2, #0
200056aa:	601a      	str	r2, [r3, #0]
200056ac:	f385 8810 	msr	PRIMASK, r5
200056b0:	bd30      	pop	{r4, r5, pc}
200056b2:	795a      	ldrb	r2, [r3, #5]
200056b4:	7118      	strb	r0, [r3, #4]
200056b6:	3201      	adds	r2, #1
200056b8:	715a      	strb	r2, [r3, #5]
200056ba:	2001      	movs	r0, #1
200056bc:	e7f1      	b.n	200056a2 <recursive_mutex_try_enter+0x32>
200056be:	2000      	movs	r0, #0
200056c0:	e7ef      	b.n	200056a2 <recursive_mutex_try_enter+0x32>
200056c2:	46c0      	nop			; (mov r8, r8)

200056c4 <mutex_exit>:
200056c4:	6802      	ldr	r2, [r0, #0]
200056c6:	f3ef 8110 	mrs	r1, PRIMASK
200056ca:	b672      	cpsid	i
200056cc:	6813      	ldr	r3, [r2, #0]
200056ce:	2b00      	cmp	r3, #0
200056d0:	d0fc      	beq.n	200056cc <mutex_exit+0x8>
200056d2:	f3bf 8f5f 	dmb	sy
200056d6:	23ff      	movs	r3, #255	; 0xff
200056d8:	7103      	strb	r3, [r0, #4]
200056da:	6803      	ldr	r3, [r0, #0]
200056dc:	f3bf 8f5f 	dmb	sy
200056e0:	2200      	movs	r2, #0
200056e2:	601a      	str	r2, [r3, #0]
200056e4:	f381 8810 	msr	PRIMASK, r1
200056e8:	bf40      	sev
200056ea:	4770      	bx	lr

200056ec <flash_init_boot2_copyout>:
200056ec:	b530      	push	{r4, r5, lr}
200056ee:	4c09      	ldr	r4, [pc, #36]	; (20005714 <flash_init_boot2_copyout+0x28>)
200056f0:	7823      	ldrb	r3, [r4, #0]
200056f2:	2b00      	cmp	r3, #0
200056f4:	d10d      	bne.n	20005712 <flash_init_boot2_copyout+0x26>
200056f6:	2380      	movs	r3, #128	; 0x80
200056f8:	4807      	ldr	r0, [pc, #28]	; (20005718 <flash_init_boot2_copyout+0x2c>)
200056fa:	4908      	ldr	r1, [pc, #32]	; (2000571c <flash_init_boot2_copyout+0x30>)
200056fc:	055b      	lsls	r3, r3, #21
200056fe:	22f0      	movs	r2, #240	; 0xf0
20005700:	681d      	ldr	r5, [r3, #0]
20005702:	0612      	lsls	r2, r2, #24
20005704:	189a      	adds	r2, r3, r2
20005706:	3304      	adds	r3, #4
20005708:	5085      	str	r5, [r0, r2]
2000570a:	428b      	cmp	r3, r1
2000570c:	d1f7      	bne.n	200056fe <flash_init_boot2_copyout+0x12>
2000570e:	2301      	movs	r3, #1
20005710:	7023      	strb	r3, [r4, #0]
20005712:	bd30      	pop	{r4, r5, pc}
20005714:	2000681c 	.word	0x2000681c
20005718:	20006670 	.word	0x20006670
2000571c:	10000100 	.word	0x10000100

20005720 <flash_enable_xip_via_boot2>:
20005720:	b510      	push	{r4, lr}
20005722:	4b02      	ldr	r3, [pc, #8]	; (2000572c <flash_enable_xip_via_boot2+0xc>)
20005724:	3301      	adds	r3, #1
20005726:	4798      	blx	r3
20005728:	bd10      	pop	{r4, pc}
2000572a:	46c0      	nop			; (mov r8, r8)
2000572c:	20006670 	.word	0x20006670

20005730 <flash_cs_force.constprop.0>:
20005730:	4b05      	ldr	r3, [pc, #20]	; (20005748 <flash_cs_force.constprop.0+0x18>)
20005732:	681a      	ldr	r2, [r3, #0]
20005734:	2380      	movs	r3, #128	; 0x80
20005736:	009b      	lsls	r3, r3, #2
20005738:	4053      	eors	r3, r2
2000573a:	22c0      	movs	r2, #192	; 0xc0
2000573c:	0092      	lsls	r2, r2, #2
2000573e:	4013      	ands	r3, r2
20005740:	4a02      	ldr	r2, [pc, #8]	; (2000574c <flash_cs_force.constprop.0+0x1c>)
20005742:	6013      	str	r3, [r2, #0]
20005744:	4770      	bx	lr
20005746:	46c0      	nop			; (mov r8, r8)
20005748:	4001800c 	.word	0x4001800c
2000574c:	4001900c 	.word	0x4001900c

20005750 <flash_cs_force.constprop.1>:
20005750:	4b03      	ldr	r3, [pc, #12]	; (20005760 <flash_cs_force.constprop.1+0x10>)
20005752:	681a      	ldr	r2, [r3, #0]
20005754:	23c0      	movs	r3, #192	; 0xc0
20005756:	009b      	lsls	r3, r3, #2
20005758:	4393      	bics	r3, r2
2000575a:	4a02      	ldr	r2, [pc, #8]	; (20005764 <flash_cs_force.constprop.1+0x14>)
2000575c:	6013      	str	r3, [r2, #0]
2000575e:	4770      	bx	lr
20005760:	4001800c 	.word	0x4001800c
20005764:	4001900c 	.word	0x4001900c

20005768 <flash_do_cmd>:
20005768:	b5f0      	push	{r4, r5, r6, r7, lr}
2000576a:	46d6      	mov	lr, sl
2000576c:	464f      	mov	r7, r9
2000576e:	4646      	mov	r6, r8
20005770:	2314      	movs	r3, #20
20005772:	b5c0      	push	{r6, r7, lr}
20005774:	2718      	movs	r7, #24
20005776:	4698      	mov	r8, r3
20005778:	4681      	mov	r9, r0
2000577a:	000d      	movs	r5, r1
2000577c:	8818      	ldrh	r0, [r3, #0]
2000577e:	4922      	ldr	r1, [pc, #136]	; (20005808 <flash_do_cmd+0xa0>)
20005780:	883b      	ldrh	r3, [r7, #0]
20005782:	0014      	movs	r4, r2
20005784:	4798      	blx	r3
20005786:	4643      	mov	r3, r8
20005788:	4682      	mov	sl, r0
2000578a:	4920      	ldr	r1, [pc, #128]	; (2000580c <flash_do_cmd+0xa4>)
2000578c:	8818      	ldrh	r0, [r3, #0]
2000578e:	883b      	ldrh	r3, [r7, #0]
20005790:	4798      	blx	r3
20005792:	4643      	mov	r3, r8
20005794:	491e      	ldr	r1, [pc, #120]	; (20005810 <flash_do_cmd+0xa8>)
20005796:	0006      	movs	r6, r0
20005798:	8818      	ldrh	r0, [r3, #0]
2000579a:	883b      	ldrh	r3, [r7, #0]
2000579c:	4798      	blx	r3
2000579e:	4680      	mov	r8, r0
200057a0:	f7ff ffa4 	bl	200056ec <flash_init_boot2_copyout>
200057a4:	47d0      	blx	sl
200057a6:	47b0      	blx	r6
200057a8:	f7ff ffc2 	bl	20005730 <flash_cs_force.constprop.0>
200057ac:	20c0      	movs	r0, #192	; 0xc0
200057ae:	0022      	movs	r2, r4
200057b0:	2608      	movs	r6, #8
200057b2:	0540      	lsls	r0, r0, #21
200057b4:	3f16      	subs	r7, #22
200057b6:	0023      	movs	r3, r4
200057b8:	4313      	orrs	r3, r2
200057ba:	d01b      	beq.n	200057f4 <flash_do_cmd+0x8c>
200057bc:	0031      	movs	r1, r6
200057be:	6a83      	ldr	r3, [r0, #40]	; 0x28
200057c0:	4019      	ands	r1, r3
200057c2:	421f      	tst	r7, r3
200057c4:	d00b      	beq.n	200057de <flash_do_cmd+0x76>
200057c6:	2c00      	cmp	r4, #0
200057c8:	d009      	beq.n	200057de <flash_do_cmd+0x76>
200057ca:	1b13      	subs	r3, r2, r4
200057cc:	2b0d      	cmp	r3, #13
200057ce:	d806      	bhi.n	200057de <flash_do_cmd+0x76>
200057d0:	464b      	mov	r3, r9
200057d2:	781b      	ldrb	r3, [r3, #0]
200057d4:	3c01      	subs	r4, #1
200057d6:	6603      	str	r3, [r0, #96]	; 0x60
200057d8:	2301      	movs	r3, #1
200057da:	469c      	mov	ip, r3
200057dc:	44e1      	add	r9, ip
200057de:	2900      	cmp	r1, #0
200057e0:	d0e9      	beq.n	200057b6 <flash_do_cmd+0x4e>
200057e2:	2a00      	cmp	r2, #0
200057e4:	d0e7      	beq.n	200057b6 <flash_do_cmd+0x4e>
200057e6:	6e03      	ldr	r3, [r0, #96]	; 0x60
200057e8:	3a01      	subs	r2, #1
200057ea:	702b      	strb	r3, [r5, #0]
200057ec:	0023      	movs	r3, r4
200057ee:	3501      	adds	r5, #1
200057f0:	4313      	orrs	r3, r2
200057f2:	d1e3      	bne.n	200057bc <flash_do_cmd+0x54>
200057f4:	f7ff ffac 	bl	20005750 <flash_cs_force.constprop.1>
200057f8:	47c0      	blx	r8
200057fa:	f7ff ff91 	bl	20005720 <flash_enable_xip_via_boot2>
200057fe:	bc1c      	pop	{r2, r3, r4}
20005800:	4690      	mov	r8, r2
20005802:	4699      	mov	r9, r3
20005804:	46a2      	mov	sl, r4
20005806:	bdf0      	pop	{r4, r5, r6, r7, pc}
20005808:	00004649 	.word	0x00004649
2000580c:	00005845 	.word	0x00005845
20005810:	00004346 	.word	0x00004346

20005814 <__bi_93>:
20005814:	534b0007 2000585c 00080000 00040000     ..KS\X. ........
20005824:	00000000 00000003 25204948 00000a64     ........HI %d...
20005834:	6c6c6548 7645206f 74797265 676e6968     Hello Everything
20005844:	00000021 6c6c6548 7645206f 74797265     !...Hello Everyt
20005854:	676e6968 00002132 006f6f66              hing2!..foo.

20005860 <at_the_end_of_time>:
20005860:	ffffffff 7fffffff 64726148 65726177     ........Hardware
20005870:	616c6120 25206d72 6c612064 64616572      alarm %d alread
20005880:	6c632079 656d6961 00000064              y claimed...

2000588c <__bi_35>:
2000588c:	50520006 a1f4b453 20005898 62756f64     ..RPS....X. doub
2000589c:	7220656c 74657365 203e2d20 544f4f42     le reset -> BOOT
200058ac:	004c4553 64726148 73736120 00747265     SEL.Hard assert.
200058bc:	2a2a2a0a 4e415020 2a204349 000a2a2a     .*** PANIC ***..
200058cc:	0000000a 2000344e 2000341e 2000341e     ....N4. .4. .4. 
200058dc:	20003456 2000341e 2000341e 2000341e     V4. .4. .4. .4. 
200058ec:	2000341e 2000341e 2000341e 2000341e     .4. .4. .4. .4. 
200058fc:	2000345e 2000341e 20003466 2000341e     ^4. .4. f4. .4. 
2000590c:	2000341e 2000340c 2000348a 20003478     .4. .4. .4. x4. 
2000591c:	200034c8 20003478 200034b6 20003478     .4. x4. .4. x4. 
2000592c:	20003478 20003478 20003478 20003478     x4. x4. x4. x4. 
2000593c:	20003478 20003478 2000346e 20003478     x4. x4. n4. x4. 
2000594c:	20003478 20003478 20003478 20003478     x4. x4. x4. x4. 
2000595c:	2000346e 20003738 200034a2 200034a2     n4. 87. .4. .4. 
2000596c:	200034a2 200034a2 200034a2 200034a2     .4. .4. .4. .4. 
2000597c:	200034a2 200034a2 200034a2 200034a2     .4. .4. .4. .4. 
2000598c:	200034a2 200034a2 200034a2 200034a2     .4. .4. .4. .4. 
2000599c:	200034a2 200034a2 200034a2 200034a2     .4. .4. .4. .4. 
200059ac:	200034a2 200034a2 200034a2 200034a2     .4. .4. .4. .4. 
200059bc:	200034a2 200034a2 200034a2 200034a2     .4. .4. .4. .4. 
200059cc:	200034a2 200034a2 200034a2 200034a2     .4. .4. .4. .4. 
200059dc:	200034a2 200037fe 200036fc 200037fe     .4. .7. .6. .7. 
200059ec:	200034a2 200034a2 200034a2 200034a2     .4. .4. .4. .4. 
200059fc:	200034a2 200034a2 200034a2 200034a2     .4. .4. .4. .4. 
20005a0c:	200034a2 200034a2 200034a2 200034a2     .4. .4. .4. .4. 
20005a1c:	200034a2 200034a2 200034a2 200034a2     .4. .4. .4. .4. 
20005a2c:	2000361c 200034a2 200034a2 200034a2     .6. .4. .4. .4. 
20005a3c:	200034a2 200034a2 200034a2 200034a2     .4. .4. .4. .4. 
20005a4c:	200034a2 200034a2 2000361c 2000374c     .4. .4. .6. L7. 
20005a5c:	2000361c 200037fe 200036fc 200037fe     .6. .7. .6. .7. 
20005a6c:	200034a2 2000361c 200034a2 200034a2     .4. .6. .4. .4. 
20005a7c:	200034a2 200034a2 200034a2 2000361c     .4. .4. .4. .6. 
20005a8c:	20003598 200034a2 200034a2 200034d4     .5. .4. .4. .4. 
20005a9c:	200034a2 2000361c 200034a2 200034a2     .4. .6. .4. .4. 
20005aac:	2000361c 2b696e66 00000000 00696e66     .6. fni+....fni.
20005abc:	006e616e 2d696e66 00000000              nan.fni-....

20005ac8 <pow10.5365>:
20005ac8:	00000000 3ff00000 00000000 40240000     .......?......$@
20005ad8:	00000000 40590000 00000000 408f4000     ......Y@.....@.@
20005ae8:	00000000 40c38800 00000000 40f86a00     .......@.....j.@
20005af8:	00000000 412e8480 00000000 416312d0     .......A......cA
20005b08:	00000000 4197d784 00000000 41cdcd65     .......A....e..A

20005b18 <__bi_44>:
20005b18:	50520006 b63cffbb 20005b5c              ..RP..<.\[. 

20005b24 <__bi_75>:
20005b24:	50520006 7f8882e1 20005b44              ..RP....D[. 

20005b30 <__bi_81>:
20005b30:	50520006 4275f0d3 20005b3c 656c6552     ..RP..uB<[. Rele
20005b40:	00657361 746f6f62 32775f32 38307135     ase.boot2_w25q08
20005b50:	00000030 2e342e31 00000030 6f636970     0...1.4.0...pico
20005b60:	00000000 6374696b 5f6e6568 6b6e6973     ....kitchen_sink
20005b70:	706f635f 6f745f79 6d61725f 00000000     _copy_to_ram....
20005b80:	20706553 32203831 00323230              Sep 18 2022.

20005b8c <crlf_str.5945>:
20005b8c:	00000a0d                                ....

20005b90 <__bi_28.4831>:
20005b90:	50520006 a1f4b453 20005bbc              ..RPS....[. 

20005b9c <__bi_29.4835>:
20005b9c:	50520008 00000092 54524155 64747320     ..RP....UART std
20005bac:	00006e69 54524155 64747320 0074756f     in..UART stdout.
20005bbc:	54524155 64747320 2f206e69 64747320     UART stdin / std
20005bcc:	0074756f                                out.

20005bd0 <_global_impure_ptr>:
20005bd0:	20005c90 00000043                       .\. C...

20005bd8 <foo>:
20005bd8:	000000c8                                ....

20005bdc <striped_spin_lock_num>:
20005bdc:	00000010                                ....

20005be0 <irq_handler_chain_slots>:
20005be0:	00000000 	.word	0x00000000
20005be4:	00010000 	.word	0x00010000
	...
20005bf0:	00020000 	.word	0x00020000
	...
20005bfc:	00030000 	.word	0x00030000
	...
20005c08:	00ff0000 	.word	0x00ff0000
20005c0c:	00000000 	.word	0x00000000

20005c10 <irq_handler_chain_first_slot>:
20005c10:	b500      	push	{lr}
20005c12:	6848      	ldr	r0, [r1, #4]
20005c14:	3101      	adds	r1, #1
20005c16:	468e      	mov	lr, r1
20005c18:	4700      	bx	r0

20005c1a <irq_handler_chain_remove_tail>:
20005c1a:	4670      	mov	r0, lr
20005c1c:	3809      	subs	r0, #9
20005c1e:	4901      	ldr	r1, [pc, #4]	; (20005c24 <irq_handler_chain_remove_tail+0xa>)
20005c20:	4788      	blx	r1
20005c22:	bd00      	pop	{pc}
20005c24:	200007f9 	.word	0x200007f9

20005c28 <default_alarm_pool>:
20005c28:	20005c40 00000000 20006510 20006798     @\. .....e. .g. 
	...

20005c40 <default_alarm_pool_heap>:
20005c40:	200067a8 00000000 00000000 00000010     .g. ............

20005c50 <aeabi_bits_funcs>:
20005c50:	00003350 	.word	0x00003350
20005c54:	0000334c 	.word	0x0000334c
20005c58:	00003354 	.word	0x00003354
20005c5c:	00003352 	.word	0x00003352

20005c60 <aeabi_bits_funcs_end>:
20005c60:	0000534d 	.word	0x0000534d
20005c64:	0000434d 	.word	0x0000434d
20005c68:	00003453 	.word	0x00003453
20005c6c:	00003443 	.word	0x00003443

20005c70 <aeabi_mem_funcs_end>:
20005c70:	20004341 	.word	0x20004341
20005c74:	00000000 	.word	0x00000000
20005c78:	2000438d 	.word	0x2000438d
20005c7c:	00000000 	.word	0x00000000
20005c80:	00000100 	.word	0x00000100
20005c84:	00000000 	.word	0x00000000

20005c88 <_impure_ptr>:
20005c88:	20005c90 00000000                       .\. ....

20005c90 <impure_data>:
20005c90:	00000000 20005f7c 20005fe4 2000604c     ....|_. ._. L`. 
	...
20005cc4:	20005bd4 00000000 00000000 00000000     .[. ............
	...
20005d38:	00000001 00000000 abcd330e e66d1234     .........3..4.m.
20005d48:	0005deec 0000000b 00000000 00000000     ................
	...

200060b8 <__malloc_av_>:
	...
200060c0:	200060b8 200060b8 200060c0 200060c0     .`. .`. .`. .`. 
200060d0:	200060c8 200060c8 200060d0 200060d0     .`. .`. .`. .`. 
200060e0:	200060d8 200060d8 200060e0 200060e0     .`. .`. .`. .`. 
200060f0:	200060e8 200060e8 200060f0 200060f0     .`. .`. .`. .`. 
20006100:	200060f8 200060f8 20006100 20006100     .`. .`. .a. .a. 
20006110:	20006108 20006108 20006110 20006110     .a. .a. .a. .a. 
20006120:	20006118 20006118 20006120 20006120     .a. .a.  a.  a. 
20006130:	20006128 20006128 20006130 20006130     (a. (a. 0a. 0a. 
20006140:	20006138 20006138 20006140 20006140     8a. 8a. @a. @a. 
20006150:	20006148 20006148 20006150 20006150     Ha. Ha. Pa. Pa. 
20006160:	20006158 20006158 20006160 20006160     Xa. Xa. `a. `a. 
20006170:	20006168 20006168 20006170 20006170     ha. ha. pa. pa. 
20006180:	20006178 20006178 20006180 20006180     xa. xa. .a. .a. 
20006190:	20006188 20006188 20006190 20006190     .a. .a. .a. .a. 
200061a0:	20006198 20006198 200061a0 200061a0     .a. .a. .a. .a. 
200061b0:	200061a8 200061a8 200061b0 200061b0     .a. .a. .a. .a. 
200061c0:	200061b8 200061b8 200061c0 200061c0     .a. .a. .a. .a. 
200061d0:	200061c8 200061c8 200061d0 200061d0     .a. .a. .a. .a. 
200061e0:	200061d8 200061d8 200061e0 200061e0     .a. .a. .a. .a. 
200061f0:	200061e8 200061e8 200061f0 200061f0     .a. .a. .a. .a. 
20006200:	200061f8 200061f8 20006200 20006200     .a. .a. .b. .b. 
20006210:	20006208 20006208 20006210 20006210     .b. .b. .b. .b. 
20006220:	20006218 20006218 20006220 20006220     .b. .b.  b.  b. 
20006230:	20006228 20006228 20006230 20006230     (b. (b. 0b. 0b. 
20006240:	20006238 20006238 20006240 20006240     8b. 8b. @b. @b. 
20006250:	20006248 20006248 20006250 20006250     Hb. Hb. Pb. Pb. 
20006260:	20006258 20006258 20006260 20006260     Xb. Xb. `b. `b. 
20006270:	20006268 20006268 20006270 20006270     hb. hb. pb. pb. 
20006280:	20006278 20006278 20006280 20006280     xb. xb. .b. .b. 
20006290:	20006288 20006288 20006290 20006290     .b. .b. .b. .b. 
200062a0:	20006298 20006298 200062a0 200062a0     .b. .b. .b. .b. 
200062b0:	200062a8 200062a8 200062b0 200062b0     .b. .b. .b. .b. 
200062c0:	200062b8 200062b8 200062c0 200062c0     .b. .b. .b. .b. 
200062d0:	200062c8 200062c8 200062d0 200062d0     .b. .b. .b. .b. 
200062e0:	200062d8 200062d8 200062e0 200062e0     .b. .b. .b. .b. 
200062f0:	200062e8 200062e8 200062f0 200062f0     .b. .b. .b. .b. 
20006300:	200062f8 200062f8 20006300 20006300     .b. .b. .c. .c. 
20006310:	20006308 20006308 20006310 20006310     .c. .c. .c. .c. 
20006320:	20006318 20006318 20006320 20006320     .c. .c.  c.  c. 
20006330:	20006328 20006328 20006330 20006330     (c. (c. 0c. 0c. 
20006340:	20006338 20006338 20006340 20006340     8c. 8c. @c. @c. 
20006350:	20006348 20006348 20006350 20006350     Hc. Hc. Pc. Pc. 
20006360:	20006358 20006358 20006360 20006360     Xc. Xc. `c. `c. 
20006370:	20006368 20006368 20006370 20006370     hc. hc. pc. pc. 
20006380:	20006378 20006378 20006380 20006380     xc. xc. .c. .c. 
20006390:	20006388 20006388 20006390 20006390     .c. .c. .c. .c. 
200063a0:	20006398 20006398 200063a0 200063a0     .c. .c. .c. .c. 
200063b0:	200063a8 200063a8 200063b0 200063b0     .c. .c. .c. .c. 
200063c0:	200063b8 200063b8 200063c0 200063c0     .c. .c. .c. .c. 
200063d0:	200063c8 200063c8 200063d0 200063d0     .c. .c. .c. .c. 
200063e0:	200063d8 200063d8 200063e0 200063e0     .c. .c. .c. .c. 
200063f0:	200063e8 200063e8 200063f0 200063f0     .c. .c. .c. .c. 
20006400:	200063f8 200063f8 20006400 20006400     .c. .c. .d. .d. 
20006410:	20006408 20006408 20006410 20006410     .d. .d. .d. .d. 
20006420:	20006418 20006418 20006420 20006420     .d. .d.  d.  d. 
20006430:	20006428 20006428 20006430 20006430     (d. (d. 0d. 0d. 
20006440:	20006438 20006438 20006440 20006440     8d. 8d. @d. @d. 
20006450:	20006448 20006448 20006450 20006450     Hd. Hd. Pd. Pd. 
20006460:	20006458 20006458 20006460 20006460     Xd. Xd. `d. `d. 
20006470:	20006468 20006468 20006470 20006470     hd. hd. pd. pd. 
20006480:	20006478 20006478 20006480 20006480     xd. xd. .d. .d. 
20006490:	20006488 20006488 20006490 20006490     .d. .d. .d. .d. 
200064a0:	20006498 20006498 200064a0 200064a0     .d. .d. .d. .d. 
200064b0:	200064a8 200064a8 200064b0 200064b0     .d. .d. .d. .d. 

200064c0 <__malloc_sbrk_base>:
200064c0:	ffffffff                                ....

200064c4 <__malloc_trim_threshold>:
200064c4:	00020000                                ....

200064c8 <__mutex_array_start>:
	...

200064d0 <recursive_mutex>:
200064d0:	00000001 00000000                       ........

200064d8 <malloc_mutex>:
	...

200064e0 <print_mutex>:
	...

200064e8 <__mutex_array_end>:
200064e8:	200024d1 	.word	0x200024d1
200064ec:	20001775 	.word	0x20001775
200064f0:	20001e7d 	.word	0x20001e7d
200064f4:	2000243d 	.word	0x2000243d

200064f8 <__frame_dummy_init_array_entry>:
200064f8:	2000013d 20001785 20004411              =.. ... .D. 
